ARM GAS  C:\Users\marce\AppData\Local\Temp\cc5vdtW0.s 			page 1


   1              		.cpu cortex-m3
   2              		.arch armv7-m
   3              		.fpu softvfp
   4              		.eabi_attribute 20, 1
   5              		.eabi_attribute 21, 1
   6              		.eabi_attribute 23, 3
   7              		.eabi_attribute 24, 1
   8              		.eabi_attribute 25, 1
   9              		.eabi_attribute 26, 1
  10              		.eabi_attribute 30, 1
  11              		.eabi_attribute 34, 1
  12              		.eabi_attribute 18, 4
  13              		.file	"GreenSwitchTask.c"
  14              		.text
  15              	.Ltext0:
  16              		.cfi_sections	.debug_frame
  17              		.section	.text.greenSwitchTask,"ax",%progbits
  18              		.align	1
  19              		.global	greenSwitchTask
  20              		.syntax unified
  21              		.thumb
  22              		.thumb_func
  24              	greenSwitchTask:
  25              	.LVL0:
  26              	.LFB76:
  27              		.file 1 "Core/Src/GreenSwitchTask.c"
   1:Core/Src/GreenSwitchTask.c **** /*
   2:Core/Src/GreenSwitchTask.c ****  * GreenSwitchTask.c
   3:Core/Src/GreenSwitchTask.c ****  *
   4:Core/Src/GreenSwitchTask.c ****  *  Created on: Nov. 23, 2022
   5:Core/Src/GreenSwitchTask.c ****  *      Author: marce
   6:Core/Src/GreenSwitchTask.c ****  */
   7:Core/Src/GreenSwitchTask.c **** 
   8:Core/Src/GreenSwitchTask.c **** #include "GreenSwitchTask.h"
   9:Core/Src/GreenSwitchTask.c **** 
  10:Core/Src/GreenSwitchTask.c **** static const uint32_t GREEN_LED_EXID = 0xBBBBBBB;
  11:Core/Src/GreenSwitchTask.c **** 
  12:Core/Src/GreenSwitchTask.c **** void greenSwitchTask(void const* arg)
  13:Core/Src/GreenSwitchTask.c **** {
  28              		.loc 1 13 1 view -0
  29              		.cfi_startproc
  30              		@ args = 0, pretend = 0, frame = 8
  31              		@ frame_needed = 0, uses_anonymous_args = 0
  32              		.loc 1 13 1 is_stmt 0 view .LVU1
  33 0000 00B5     		push	{lr}
  34              	.LCFI0:
  35              		.cfi_def_cfa_offset 4
  36              		.cfi_offset 14, -4
  37 0002 85B0     		sub	sp, sp, #20
  38              	.LCFI1:
  39              		.cfi_def_cfa_offset 24
  14:Core/Src/GreenSwitchTask.c ****     //One time osDelayUntil initialization
  15:Core/Src/GreenSwitchTask.c ****     uint32_t prevWakeTime = osKernelSysTick();
  40              		.loc 1 15 5 is_stmt 1 view .LVU2
  41              		.loc 1 15 29 is_stmt 0 view .LVU3
  42 0004 FFF7FEFF 		bl	osKernelGetSysTimerCount
  43              	.LVL1:
ARM GAS  C:\Users\marce\AppData\Local\Temp\cc5vdtW0.s 			page 2


  16:Core/Src/GreenSwitchTask.c **** 
  17:Core/Src/GreenSwitchTask.c ****     uint8_t data[1] = {0x3};
  44              		.loc 1 17 5 is_stmt 1 view .LVU4
  45              		.loc 1 17 13 is_stmt 0 view .LVU5
  46 0008 0323     		movs	r3, #3
  47 000a 8DF80C30 		strb	r3, [sp, #12]
  48 000e 14E0     		b	.L5
  49              	.L2:
  18:Core/Src/GreenSwitchTask.c **** 
  19:Core/Src/GreenSwitchTask.c ****     for (;;)
  20:Core/Src/GreenSwitchTask.c ****     {
  21:Core/Src/GreenSwitchTask.c ****     	osDelay(10);
  22:Core/Src/GreenSwitchTask.c ****     	if (HAL_GPIO_ReadPin(GREEN_SWITCH_GPIO_Port, GREEN_SWITCH_Pin)) {
  23:Core/Src/GreenSwitchTask.c ****     		data[0] = 0x30;
  24:Core/Src/GreenSwitchTask.c ****     	} else {
  25:Core/Src/GreenSwitchTask.c ****     		data[0] = 0x0;
  50              		.loc 1 25 7 is_stmt 1 view .LVU6
  51              		.loc 1 25 15 is_stmt 0 view .LVU7
  52 0010 0023     		movs	r3, #0
  53 0012 8DF80C30 		strb	r3, [sp, #12]
  54              	.L3:
  26:Core/Src/GreenSwitchTask.c ****     	}
  27:Core/Src/GreenSwitchTask.c **** 
  28:Core/Src/GreenSwitchTask.c ****     	if (osMutexWait(SPIMutexHandle, 0) == osOK) {
  55              		.loc 1 28 6 is_stmt 1 view .LVU8
  56              		.loc 1 28 10 is_stmt 0 view .LVU9
  57 0016 0021     		movs	r1, #0
  58 0018 0F4B     		ldr	r3, .L7
  59 001a 1868     		ldr	r0, [r3]
  60 001c FFF7FEFF 		bl	osMutexAcquire
  61              	.LVL2:
  62              		.loc 1 28 9 view .LVU10
  63 0020 38B9     		cbnz	r0, .L4
  29:Core/Src/GreenSwitchTask.c **** 			sendExtendedCANMessage(1, GREEN_LED_EXID, 1, data);
  64              		.loc 1 29 4 is_stmt 1 view .LVU11
  65 0022 03AB     		add	r3, sp, #12
  66 0024 0193     		str	r3, [sp, #4]
  67 0026 0120     		movs	r0, #1
  68 0028 0090     		str	r0, [sp]
  69 002a 0C4A     		ldr	r2, .L7+4
  70 002c 0023     		movs	r3, #0
  71 002e FFF7FEFF 		bl	sendExtendedCANMessage
  72              	.LVL3:
  73              	.L4:
  30:Core/Src/GreenSwitchTask.c **** 		}
  31:Core/Src/GreenSwitchTask.c **** 
  32:Core/Src/GreenSwitchTask.c ****     	osMutexRelease(SPIMutexHandle);
  74              		.loc 1 32 6 view .LVU12
  75 0032 094B     		ldr	r3, .L7
  76 0034 1868     		ldr	r0, [r3]
  77 0036 FFF7FEFF 		bl	osMutexRelease
  78              	.LVL4:
  19:Core/Src/GreenSwitchTask.c ****     {
  79              		.loc 1 19 11 view .LVU13
  80              	.L5:
  19:Core/Src/GreenSwitchTask.c ****     {
  81              		.loc 1 19 5 view .LVU14
ARM GAS  C:\Users\marce\AppData\Local\Temp\cc5vdtW0.s 			page 3


  21:Core/Src/GreenSwitchTask.c ****     	if (HAL_GPIO_ReadPin(GREEN_SWITCH_GPIO_Port, GREEN_SWITCH_Pin)) {
  82              		.loc 1 21 6 view .LVU15
  83 003a 0A20     		movs	r0, #10
  84 003c FFF7FEFF 		bl	osDelay
  85              	.LVL5:
  22:Core/Src/GreenSwitchTask.c ****     		data[0] = 0x30;
  86              		.loc 1 22 6 view .LVU16
  22:Core/Src/GreenSwitchTask.c ****     		data[0] = 0x30;
  87              		.loc 1 22 10 is_stmt 0 view .LVU17
  88 0040 4FF40071 		mov	r1, #512
  89 0044 0648     		ldr	r0, .L7+8
  90 0046 FFF7FEFF 		bl	HAL_GPIO_ReadPin
  91              	.LVL6:
  22:Core/Src/GreenSwitchTask.c ****     		data[0] = 0x30;
  92              		.loc 1 22 9 view .LVU18
  93 004a 0028     		cmp	r0, #0
  94 004c E0D0     		beq	.L2
  23:Core/Src/GreenSwitchTask.c ****     	} else {
  95              		.loc 1 23 7 is_stmt 1 view .LVU19
  23:Core/Src/GreenSwitchTask.c ****     	} else {
  96              		.loc 1 23 15 is_stmt 0 view .LVU20
  97 004e 3023     		movs	r3, #48
  98 0050 8DF80C30 		strb	r3, [sp, #12]
  99 0054 DFE7     		b	.L3
 100              	.L8:
 101 0056 00BF     		.align	2
 102              	.L7:
 103 0058 00000000 		.word	SPIMutexHandle
 104 005c BBBBBB0B 		.word	196852667
 105 0060 00080240 		.word	1073874944
 106              		.cfi_endproc
 107              	.LFE76:
 109              		.text
 110              	.Letext0:
 111              		.file 2 "c:\\st\\stm32cubeide_1.10.1\\stm32cubeide\\plugins\\com.st.stm32cube.ide.mcu.externaltool
 112              		.file 3 "c:\\st\\stm32cubeide_1.10.1\\stm32cubeide\\plugins\\com.st.stm32cube.ide.mcu.externaltool
 113              		.file 4 "Drivers/CMSIS/Device/ST/STM32L1xx/Include/stm32l152xe.h"
 114              		.file 5 "Drivers/STM32L1xx_HAL_Driver/Inc/stm32l1xx_hal_gpio.h"
 115              		.file 6 "Middlewares/Third_Party/FreeRTOS/Source/CMSIS_RTOS_V2/cmsis_os2.h"
 116              		.file 7 "Core/Inc/main.h"
 117              		.file 8 "Core/Inc/CAN.h"
ARM GAS  C:\Users\marce\AppData\Local\Temp\cc5vdtW0.s 			page 4


DEFINED SYMBOLS
                            *ABS*:0000000000000000 GreenSwitchTask.c
C:\Users\marce\AppData\Local\Temp\cc5vdtW0.s:18     .text.greenSwitchTask:0000000000000000 $t
C:\Users\marce\AppData\Local\Temp\cc5vdtW0.s:24     .text.greenSwitchTask:0000000000000000 greenSwitchTask
C:\Users\marce\AppData\Local\Temp\cc5vdtW0.s:103    .text.greenSwitchTask:0000000000000058 $d

UNDEFINED SYMBOLS
osKernelGetSysTimerCount
osMutexAcquire
sendExtendedCANMessage
osMutexRelease
osDelay
HAL_GPIO_ReadPin
SPIMutexHandle
