ARM GAS  C:\Users\marce\AppData\Local\Temp\cckSIbNd.s 			page 1


   1              		.cpu cortex-m3
   2              		.arch armv7-m
   3              		.fpu softvfp
   4              		.eabi_attribute 20, 1
   5              		.eabi_attribute 21, 1
   6              		.eabi_attribute 23, 3
   7              		.eabi_attribute 24, 1
   8              		.eabi_attribute 25, 1
   9              		.eabi_attribute 26, 1
  10              		.eabi_attribute 30, 1
  11              		.eabi_attribute 34, 1
  12              		.eabi_attribute 18, 4
  13              		.file	"stm32l1xx_hal_flash.c"
  14              		.text
  15              	.Ltext0:
  16              		.cfi_sections	.debug_frame
  17              		.section	.text.FLASH_SetErrorCode,"ax",%progbits
  18              		.align	1
  19              		.syntax unified
  20              		.thumb
  21              		.thumb_func
  23              	FLASH_SetErrorCode:
  24              	.LFB84:
  25              		.file 1 "Drivers/STM32L1xx_HAL_Driver/Src/stm32l1xx_hal_flash.c"
   1:Drivers/STM32L1xx_HAL_Driver/Src/stm32l1xx_hal_flash.c **** /**
   2:Drivers/STM32L1xx_HAL_Driver/Src/stm32l1xx_hal_flash.c ****   ******************************************************************************
   3:Drivers/STM32L1xx_HAL_Driver/Src/stm32l1xx_hal_flash.c ****   * @file    stm32l1xx_hal_flash.c
   4:Drivers/STM32L1xx_HAL_Driver/Src/stm32l1xx_hal_flash.c ****   * @author  MCD Application Team
   5:Drivers/STM32L1xx_HAL_Driver/Src/stm32l1xx_hal_flash.c ****   * @brief   FLASH HAL module driver.
   6:Drivers/STM32L1xx_HAL_Driver/Src/stm32l1xx_hal_flash.c ****   *          This file provides firmware functions to manage the following 
   7:Drivers/STM32L1xx_HAL_Driver/Src/stm32l1xx_hal_flash.c ****   *          functionalities of the internal FLASH memory:
   8:Drivers/STM32L1xx_HAL_Driver/Src/stm32l1xx_hal_flash.c ****   *           + Program operations functions
   9:Drivers/STM32L1xx_HAL_Driver/Src/stm32l1xx_hal_flash.c ****   *           + Memory Control functions 
  10:Drivers/STM32L1xx_HAL_Driver/Src/stm32l1xx_hal_flash.c ****   *           + Peripheral State functions
  11:Drivers/STM32L1xx_HAL_Driver/Src/stm32l1xx_hal_flash.c ****   *         
  12:Drivers/STM32L1xx_HAL_Driver/Src/stm32l1xx_hal_flash.c ****   @verbatim
  13:Drivers/STM32L1xx_HAL_Driver/Src/stm32l1xx_hal_flash.c ****   ==============================================================================
  14:Drivers/STM32L1xx_HAL_Driver/Src/stm32l1xx_hal_flash.c ****                         ##### FLASH peripheral features #####
  15:Drivers/STM32L1xx_HAL_Driver/Src/stm32l1xx_hal_flash.c ****   ==============================================================================
  16:Drivers/STM32L1xx_HAL_Driver/Src/stm32l1xx_hal_flash.c ****   [..] The Flash memory interface manages CPU AHB I-Code and D-Code accesses 
  17:Drivers/STM32L1xx_HAL_Driver/Src/stm32l1xx_hal_flash.c ****        to the Flash memory. It implements the erase and program Flash memory operations 
  18:Drivers/STM32L1xx_HAL_Driver/Src/stm32l1xx_hal_flash.c ****        and the read and write protection mechanisms.
  19:Drivers/STM32L1xx_HAL_Driver/Src/stm32l1xx_hal_flash.c **** 
  20:Drivers/STM32L1xx_HAL_Driver/Src/stm32l1xx_hal_flash.c ****   [..] The Flash memory interface accelerates code execution with a system of instruction
  21:Drivers/STM32L1xx_HAL_Driver/Src/stm32l1xx_hal_flash.c ****       prefetch. 
  22:Drivers/STM32L1xx_HAL_Driver/Src/stm32l1xx_hal_flash.c **** 
  23:Drivers/STM32L1xx_HAL_Driver/Src/stm32l1xx_hal_flash.c ****   [..] The FLASH main features are:
  24:Drivers/STM32L1xx_HAL_Driver/Src/stm32l1xx_hal_flash.c ****       (+) Flash memory read operations
  25:Drivers/STM32L1xx_HAL_Driver/Src/stm32l1xx_hal_flash.c ****       (+) Flash memory program/erase operations
  26:Drivers/STM32L1xx_HAL_Driver/Src/stm32l1xx_hal_flash.c ****       (+) Read / write protections
  27:Drivers/STM32L1xx_HAL_Driver/Src/stm32l1xx_hal_flash.c ****       (+) Prefetch on I-Code
  28:Drivers/STM32L1xx_HAL_Driver/Src/stm32l1xx_hal_flash.c ****       (+) Option Bytes programming
  29:Drivers/STM32L1xx_HAL_Driver/Src/stm32l1xx_hal_flash.c **** 
  30:Drivers/STM32L1xx_HAL_Driver/Src/stm32l1xx_hal_flash.c **** 
  31:Drivers/STM32L1xx_HAL_Driver/Src/stm32l1xx_hal_flash.c ****                      ##### How to use this driver #####
  32:Drivers/STM32L1xx_HAL_Driver/Src/stm32l1xx_hal_flash.c ****   ==============================================================================
  33:Drivers/STM32L1xx_HAL_Driver/Src/stm32l1xx_hal_flash.c ****   [..]                             
ARM GAS  C:\Users\marce\AppData\Local\Temp\cckSIbNd.s 			page 2


  34:Drivers/STM32L1xx_HAL_Driver/Src/stm32l1xx_hal_flash.c ****       This driver provides functions and macros to configure and program the FLASH 
  35:Drivers/STM32L1xx_HAL_Driver/Src/stm32l1xx_hal_flash.c ****       memory of all STM32L1xx devices.
  36:Drivers/STM32L1xx_HAL_Driver/Src/stm32l1xx_hal_flash.c ****     
  37:Drivers/STM32L1xx_HAL_Driver/Src/stm32l1xx_hal_flash.c ****       (#) FLASH Memory I/O Programming functions: this group includes all needed
  38:Drivers/STM32L1xx_HAL_Driver/Src/stm32l1xx_hal_flash.c ****           functions to erase and program the main memory:
  39:Drivers/STM32L1xx_HAL_Driver/Src/stm32l1xx_hal_flash.c ****         (++) Lock and Unlock the FLASH interface
  40:Drivers/STM32L1xx_HAL_Driver/Src/stm32l1xx_hal_flash.c ****         (++) Erase function: Erase page
  41:Drivers/STM32L1xx_HAL_Driver/Src/stm32l1xx_hal_flash.c ****         (++) Program functions: Fast Word and Half Page(should be 
  42:Drivers/STM32L1xx_HAL_Driver/Src/stm32l1xx_hal_flash.c ****         executed from internal SRAM).
  43:Drivers/STM32L1xx_HAL_Driver/Src/stm32l1xx_hal_flash.c ****   
  44:Drivers/STM32L1xx_HAL_Driver/Src/stm32l1xx_hal_flash.c ****       (#) DATA EEPROM Programming functions: this group includes all 
  45:Drivers/STM32L1xx_HAL_Driver/Src/stm32l1xx_hal_flash.c ****           needed functions to erase and program the DATA EEPROM memory:
  46:Drivers/STM32L1xx_HAL_Driver/Src/stm32l1xx_hal_flash.c ****         (++) Lock and Unlock the DATA EEPROM interface.
  47:Drivers/STM32L1xx_HAL_Driver/Src/stm32l1xx_hal_flash.c ****         (++) Erase function: Erase Byte, erase HalfWord, erase Word, erase 
  48:Drivers/STM32L1xx_HAL_Driver/Src/stm32l1xx_hal_flash.c ****              Double Word (should be executed from internal SRAM).
  49:Drivers/STM32L1xx_HAL_Driver/Src/stm32l1xx_hal_flash.c ****         (++) Program functions: Fast Program Byte, Fast Program Half-Word, 
  50:Drivers/STM32L1xx_HAL_Driver/Src/stm32l1xx_hal_flash.c ****              FastProgramWord, Program Byte, Program Half-Word, 
  51:Drivers/STM32L1xx_HAL_Driver/Src/stm32l1xx_hal_flash.c ****              Program Word and Program Double-Word (should be executed 
  52:Drivers/STM32L1xx_HAL_Driver/Src/stm32l1xx_hal_flash.c ****              from internal SRAM).
  53:Drivers/STM32L1xx_HAL_Driver/Src/stm32l1xx_hal_flash.c **** 
  54:Drivers/STM32L1xx_HAL_Driver/Src/stm32l1xx_hal_flash.c ****       (#) FLASH Option Bytes Programming functions: this group includes all needed
  55:Drivers/STM32L1xx_HAL_Driver/Src/stm32l1xx_hal_flash.c ****           functions to manage the Option Bytes:
  56:Drivers/STM32L1xx_HAL_Driver/Src/stm32l1xx_hal_flash.c ****         (++) Lock and Unlock the Option Bytes
  57:Drivers/STM32L1xx_HAL_Driver/Src/stm32l1xx_hal_flash.c ****         (++) Set/Reset the write protection
  58:Drivers/STM32L1xx_HAL_Driver/Src/stm32l1xx_hal_flash.c ****         (++) Set the Read protection Level
  59:Drivers/STM32L1xx_HAL_Driver/Src/stm32l1xx_hal_flash.c ****         (++) Program the user Option Bytes
  60:Drivers/STM32L1xx_HAL_Driver/Src/stm32l1xx_hal_flash.c ****         (++) Launch the Option Bytes loader
  61:Drivers/STM32L1xx_HAL_Driver/Src/stm32l1xx_hal_flash.c ****         (++) Set/Get the Read protection Level.
  62:Drivers/STM32L1xx_HAL_Driver/Src/stm32l1xx_hal_flash.c ****         (++) Set/Get the BOR level.
  63:Drivers/STM32L1xx_HAL_Driver/Src/stm32l1xx_hal_flash.c ****         (++) Get the Write protection.
  64:Drivers/STM32L1xx_HAL_Driver/Src/stm32l1xx_hal_flash.c ****         (++) Get the user option bytes.
  65:Drivers/STM32L1xx_HAL_Driver/Src/stm32l1xx_hal_flash.c ****     
  66:Drivers/STM32L1xx_HAL_Driver/Src/stm32l1xx_hal_flash.c ****       (#) Interrupts and flags management functions : this group 
  67:Drivers/STM32L1xx_HAL_Driver/Src/stm32l1xx_hal_flash.c ****           includes all needed functions to:
  68:Drivers/STM32L1xx_HAL_Driver/Src/stm32l1xx_hal_flash.c ****         (++) Handle FLASH interrupts
  69:Drivers/STM32L1xx_HAL_Driver/Src/stm32l1xx_hal_flash.c ****         (++) Wait for last FLASH operation according to its status
  70:Drivers/STM32L1xx_HAL_Driver/Src/stm32l1xx_hal_flash.c ****         (++) Get error flag status
  71:Drivers/STM32L1xx_HAL_Driver/Src/stm32l1xx_hal_flash.c **** 
  72:Drivers/STM32L1xx_HAL_Driver/Src/stm32l1xx_hal_flash.c ****     (#) FLASH Interface configuration functions: this group includes 
  73:Drivers/STM32L1xx_HAL_Driver/Src/stm32l1xx_hal_flash.c ****       the management of following features:
  74:Drivers/STM32L1xx_HAL_Driver/Src/stm32l1xx_hal_flash.c ****       (++) Enable/Disable the RUN PowerDown mode.
  75:Drivers/STM32L1xx_HAL_Driver/Src/stm32l1xx_hal_flash.c ****       (++) Enable/Disable the SLEEP PowerDown mode.  
  76:Drivers/STM32L1xx_HAL_Driver/Src/stm32l1xx_hal_flash.c ****   
  77:Drivers/STM32L1xx_HAL_Driver/Src/stm32l1xx_hal_flash.c ****     (#) FLASH Peripheral State methods: this group includes 
  78:Drivers/STM32L1xx_HAL_Driver/Src/stm32l1xx_hal_flash.c ****       the management of following features:
  79:Drivers/STM32L1xx_HAL_Driver/Src/stm32l1xx_hal_flash.c ****       (++) Wait for the FLASH operation
  80:Drivers/STM32L1xx_HAL_Driver/Src/stm32l1xx_hal_flash.c ****       (++)  Get the specific FLASH error flag
  81:Drivers/STM32L1xx_HAL_Driver/Src/stm32l1xx_hal_flash.c ****     
  82:Drivers/STM32L1xx_HAL_Driver/Src/stm32l1xx_hal_flash.c ****   [..] In addition to these function, this driver includes a set of macros allowing
  83:Drivers/STM32L1xx_HAL_Driver/Src/stm32l1xx_hal_flash.c ****        to handle the following operations:
  84:Drivers/STM32L1xx_HAL_Driver/Src/stm32l1xx_hal_flash.c ****       
  85:Drivers/STM32L1xx_HAL_Driver/Src/stm32l1xx_hal_flash.c ****       (+) Set/Get the latency
  86:Drivers/STM32L1xx_HAL_Driver/Src/stm32l1xx_hal_flash.c ****       (+) Enable/Disable the prefetch buffer
  87:Drivers/STM32L1xx_HAL_Driver/Src/stm32l1xx_hal_flash.c ****       (+) Enable/Disable the 64 bit Read Access.
  88:Drivers/STM32L1xx_HAL_Driver/Src/stm32l1xx_hal_flash.c ****       (+) Enable/Disable the Flash power-down
  89:Drivers/STM32L1xx_HAL_Driver/Src/stm32l1xx_hal_flash.c ****       (+) Enable/Disable the FLASH interrupts
  90:Drivers/STM32L1xx_HAL_Driver/Src/stm32l1xx_hal_flash.c ****       (+) Monitor the FLASH flags status
ARM GAS  C:\Users\marce\AppData\Local\Temp\cckSIbNd.s 			page 3


  91:Drivers/STM32L1xx_HAL_Driver/Src/stm32l1xx_hal_flash.c ****           
  92:Drivers/STM32L1xx_HAL_Driver/Src/stm32l1xx_hal_flash.c ****                  ##### Programming operation functions #####
  93:Drivers/STM32L1xx_HAL_Driver/Src/stm32l1xx_hal_flash.c ****   ===============================================================================  
  94:Drivers/STM32L1xx_HAL_Driver/Src/stm32l1xx_hal_flash.c ****      [..]
  95:Drivers/STM32L1xx_HAL_Driver/Src/stm32l1xx_hal_flash.c ****      This subsection provides a set of functions allowing to manage the FLASH 
  96:Drivers/STM32L1xx_HAL_Driver/Src/stm32l1xx_hal_flash.c ****      program operations.
  97:Drivers/STM32L1xx_HAL_Driver/Src/stm32l1xx_hal_flash.c ****   
  98:Drivers/STM32L1xx_HAL_Driver/Src/stm32l1xx_hal_flash.c ****     [..] The FLASH Memory Programming functions, includes the following functions:
  99:Drivers/STM32L1xx_HAL_Driver/Src/stm32l1xx_hal_flash.c ****      (+) HAL_FLASH_Unlock(void);
 100:Drivers/STM32L1xx_HAL_Driver/Src/stm32l1xx_hal_flash.c ****      (+) HAL_FLASH_Lock(void);
 101:Drivers/STM32L1xx_HAL_Driver/Src/stm32l1xx_hal_flash.c ****      (+) HAL_FLASH_Program(uint32_t TypeProgram, uint32_t Address, uint32_t Data)
 102:Drivers/STM32L1xx_HAL_Driver/Src/stm32l1xx_hal_flash.c ****      (+) HAL_FLASH_Program_IT(uint32_t TypeProgram, uint32_t Address, uint32_t Data)
 103:Drivers/STM32L1xx_HAL_Driver/Src/stm32l1xx_hal_flash.c ****     
 104:Drivers/STM32L1xx_HAL_Driver/Src/stm32l1xx_hal_flash.c ****      [..] Any operation of erase or program should follow these steps:
 105:Drivers/STM32L1xx_HAL_Driver/Src/stm32l1xx_hal_flash.c ****      (#) Call the HAL_FLASH_Unlock() function to enable the flash control register and 
 106:Drivers/STM32L1xx_HAL_Driver/Src/stm32l1xx_hal_flash.c ****          program memory access.
 107:Drivers/STM32L1xx_HAL_Driver/Src/stm32l1xx_hal_flash.c ****      (#) Call the desired function to erase page or program data.
 108:Drivers/STM32L1xx_HAL_Driver/Src/stm32l1xx_hal_flash.c ****      (#) Call the HAL_FLASH_Lock() to disable the flash program memory access 
 109:Drivers/STM32L1xx_HAL_Driver/Src/stm32l1xx_hal_flash.c ****         (recommended to protect the FLASH memory against possible unwanted operation).
 110:Drivers/STM32L1xx_HAL_Driver/Src/stm32l1xx_hal_flash.c ****   
 111:Drivers/STM32L1xx_HAL_Driver/Src/stm32l1xx_hal_flash.c ****                ##### Option Bytes Programming functions ##### 
 112:Drivers/STM32L1xx_HAL_Driver/Src/stm32l1xx_hal_flash.c ****    ==============================================================================  
 113:Drivers/STM32L1xx_HAL_Driver/Src/stm32l1xx_hal_flash.c ****   
 114:Drivers/STM32L1xx_HAL_Driver/Src/stm32l1xx_hal_flash.c ****      [..] The FLASH_Option Bytes Programming_functions, includes the following functions:
 115:Drivers/STM32L1xx_HAL_Driver/Src/stm32l1xx_hal_flash.c ****      (+) HAL_FLASH_OB_Unlock(void);
 116:Drivers/STM32L1xx_HAL_Driver/Src/stm32l1xx_hal_flash.c ****      (+) HAL_FLASH_OB_Lock(void);
 117:Drivers/STM32L1xx_HAL_Driver/Src/stm32l1xx_hal_flash.c ****      (+) HAL_FLASH_OB_Launch(void);
 118:Drivers/STM32L1xx_HAL_Driver/Src/stm32l1xx_hal_flash.c ****      (+) HAL_FLASHEx_OBProgram(FLASH_OBProgramInitTypeDef *pOBInit);
 119:Drivers/STM32L1xx_HAL_Driver/Src/stm32l1xx_hal_flash.c ****      (+) HAL_FLASHEx_OBGetConfig(FLASH_OBProgramInitTypeDef *pOBInit);
 120:Drivers/STM32L1xx_HAL_Driver/Src/stm32l1xx_hal_flash.c ****     
 121:Drivers/STM32L1xx_HAL_Driver/Src/stm32l1xx_hal_flash.c ****      [..] Any operation of erase or program should follow these steps:
 122:Drivers/STM32L1xx_HAL_Driver/Src/stm32l1xx_hal_flash.c ****      (#) Call the HAL_FLASH_OB_Unlock() function to enable the Flash option control 
 123:Drivers/STM32L1xx_HAL_Driver/Src/stm32l1xx_hal_flash.c ****          register access.
 124:Drivers/STM32L1xx_HAL_Driver/Src/stm32l1xx_hal_flash.c ****      (#) Call the following functions to program the desired option bytes.
 125:Drivers/STM32L1xx_HAL_Driver/Src/stm32l1xx_hal_flash.c ****          (++) HAL_FLASHEx_OBProgram(FLASH_OBProgramInitTypeDef *pOBInit);      
 126:Drivers/STM32L1xx_HAL_Driver/Src/stm32l1xx_hal_flash.c ****      (#) Once all needed option bytes to be programmed are correctly written, call the
 127:Drivers/STM32L1xx_HAL_Driver/Src/stm32l1xx_hal_flash.c ****          HAL_FLASH_OB_Launch(void) function to launch the Option Bytes programming process.
 128:Drivers/STM32L1xx_HAL_Driver/Src/stm32l1xx_hal_flash.c ****      (#) Call the HAL_FLASH_OB_Lock() to disable the Flash option control register access (recommen
 129:Drivers/STM32L1xx_HAL_Driver/Src/stm32l1xx_hal_flash.c ****          to protect the option Bytes against possible unwanted operations).
 130:Drivers/STM32L1xx_HAL_Driver/Src/stm32l1xx_hal_flash.c ****   
 131:Drivers/STM32L1xx_HAL_Driver/Src/stm32l1xx_hal_flash.c ****     [..] Proprietary code Read Out Protection (PcROP):    
 132:Drivers/STM32L1xx_HAL_Driver/Src/stm32l1xx_hal_flash.c ****     (#) The PcROP sector is selected by using the same option bytes as the Write
 133:Drivers/STM32L1xx_HAL_Driver/Src/stm32l1xx_hal_flash.c ****         protection. As a result, these 2 options are exclusive each other.
 134:Drivers/STM32L1xx_HAL_Driver/Src/stm32l1xx_hal_flash.c ****     (#) To activate PCROP mode for Flash sectors(s), you need to follow the sequence below:
 135:Drivers/STM32L1xx_HAL_Driver/Src/stm32l1xx_hal_flash.c ****         (++) Use this function HAL_FLASHEx_AdvOBProgram with PCROPState = OB_PCROP_STATE_ENABLE.
 136:Drivers/STM32L1xx_HAL_Driver/Src/stm32l1xx_hal_flash.c **** 
 137:Drivers/STM32L1xx_HAL_Driver/Src/stm32l1xx_hal_flash.c ****   @endverbatim
 138:Drivers/STM32L1xx_HAL_Driver/Src/stm32l1xx_hal_flash.c ****   ******************************************************************************
 139:Drivers/STM32L1xx_HAL_Driver/Src/stm32l1xx_hal_flash.c ****   * @attention
 140:Drivers/STM32L1xx_HAL_Driver/Src/stm32l1xx_hal_flash.c ****   *
 141:Drivers/STM32L1xx_HAL_Driver/Src/stm32l1xx_hal_flash.c ****   * <h2><center>&copy; Copyright (c) 2017 STMicroelectronics.
 142:Drivers/STM32L1xx_HAL_Driver/Src/stm32l1xx_hal_flash.c ****   * All rights reserved.</center></h2>
 143:Drivers/STM32L1xx_HAL_Driver/Src/stm32l1xx_hal_flash.c ****   *
 144:Drivers/STM32L1xx_HAL_Driver/Src/stm32l1xx_hal_flash.c ****   * This software component is licensed by ST under BSD 3-Clause license,
 145:Drivers/STM32L1xx_HAL_Driver/Src/stm32l1xx_hal_flash.c ****   * the "License"; You may not use this file except in compliance with the
 146:Drivers/STM32L1xx_HAL_Driver/Src/stm32l1xx_hal_flash.c ****   * License. You may obtain a copy of the License at:
 147:Drivers/STM32L1xx_HAL_Driver/Src/stm32l1xx_hal_flash.c ****   *                        opensource.org/licenses/BSD-3-Clause
ARM GAS  C:\Users\marce\AppData\Local\Temp\cckSIbNd.s 			page 4


 148:Drivers/STM32L1xx_HAL_Driver/Src/stm32l1xx_hal_flash.c ****   *
 149:Drivers/STM32L1xx_HAL_Driver/Src/stm32l1xx_hal_flash.c ****   ******************************************************************************
 150:Drivers/STM32L1xx_HAL_Driver/Src/stm32l1xx_hal_flash.c ****   */
 151:Drivers/STM32L1xx_HAL_Driver/Src/stm32l1xx_hal_flash.c **** 
 152:Drivers/STM32L1xx_HAL_Driver/Src/stm32l1xx_hal_flash.c **** /* Includes ------------------------------------------------------------------*/
 153:Drivers/STM32L1xx_HAL_Driver/Src/stm32l1xx_hal_flash.c **** #include "stm32l1xx_hal.h"
 154:Drivers/STM32L1xx_HAL_Driver/Src/stm32l1xx_hal_flash.c **** 
 155:Drivers/STM32L1xx_HAL_Driver/Src/stm32l1xx_hal_flash.c **** /** @addtogroup STM32L1xx_HAL_Driver
 156:Drivers/STM32L1xx_HAL_Driver/Src/stm32l1xx_hal_flash.c ****   * @{
 157:Drivers/STM32L1xx_HAL_Driver/Src/stm32l1xx_hal_flash.c ****   */
 158:Drivers/STM32L1xx_HAL_Driver/Src/stm32l1xx_hal_flash.c **** 
 159:Drivers/STM32L1xx_HAL_Driver/Src/stm32l1xx_hal_flash.c **** #ifdef HAL_FLASH_MODULE_ENABLED
 160:Drivers/STM32L1xx_HAL_Driver/Src/stm32l1xx_hal_flash.c **** 
 161:Drivers/STM32L1xx_HAL_Driver/Src/stm32l1xx_hal_flash.c **** /** @defgroup FLASH FLASH
 162:Drivers/STM32L1xx_HAL_Driver/Src/stm32l1xx_hal_flash.c ****   * @brief FLASH HAL module driver
 163:Drivers/STM32L1xx_HAL_Driver/Src/stm32l1xx_hal_flash.c ****   * @{
 164:Drivers/STM32L1xx_HAL_Driver/Src/stm32l1xx_hal_flash.c ****   */
 165:Drivers/STM32L1xx_HAL_Driver/Src/stm32l1xx_hal_flash.c **** 
 166:Drivers/STM32L1xx_HAL_Driver/Src/stm32l1xx_hal_flash.c **** /* Private typedef -----------------------------------------------------------*/
 167:Drivers/STM32L1xx_HAL_Driver/Src/stm32l1xx_hal_flash.c **** /* Private define ------------------------------------------------------------*/
 168:Drivers/STM32L1xx_HAL_Driver/Src/stm32l1xx_hal_flash.c **** /** @defgroup FLASH_Private_Constants FLASH Private Constants
 169:Drivers/STM32L1xx_HAL_Driver/Src/stm32l1xx_hal_flash.c ****   * @{
 170:Drivers/STM32L1xx_HAL_Driver/Src/stm32l1xx_hal_flash.c ****   */
 171:Drivers/STM32L1xx_HAL_Driver/Src/stm32l1xx_hal_flash.c **** /**
 172:Drivers/STM32L1xx_HAL_Driver/Src/stm32l1xx_hal_flash.c ****   * @}
 173:Drivers/STM32L1xx_HAL_Driver/Src/stm32l1xx_hal_flash.c ****   */
 174:Drivers/STM32L1xx_HAL_Driver/Src/stm32l1xx_hal_flash.c **** 
 175:Drivers/STM32L1xx_HAL_Driver/Src/stm32l1xx_hal_flash.c **** /* Private macro ---------------------------- ---------------------------------*/
 176:Drivers/STM32L1xx_HAL_Driver/Src/stm32l1xx_hal_flash.c **** /** @defgroup FLASH_Private_Macros FLASH Private Macros
 177:Drivers/STM32L1xx_HAL_Driver/Src/stm32l1xx_hal_flash.c ****   * @{
 178:Drivers/STM32L1xx_HAL_Driver/Src/stm32l1xx_hal_flash.c ****   */
 179:Drivers/STM32L1xx_HAL_Driver/Src/stm32l1xx_hal_flash.c ****  
 180:Drivers/STM32L1xx_HAL_Driver/Src/stm32l1xx_hal_flash.c **** /**
 181:Drivers/STM32L1xx_HAL_Driver/Src/stm32l1xx_hal_flash.c ****   * @}
 182:Drivers/STM32L1xx_HAL_Driver/Src/stm32l1xx_hal_flash.c ****   */
 183:Drivers/STM32L1xx_HAL_Driver/Src/stm32l1xx_hal_flash.c **** 
 184:Drivers/STM32L1xx_HAL_Driver/Src/stm32l1xx_hal_flash.c **** /* Private variables ---------------------------------------------------------*/
 185:Drivers/STM32L1xx_HAL_Driver/Src/stm32l1xx_hal_flash.c **** /** @defgroup FLASH_Private_Variables FLASH Private Variables
 186:Drivers/STM32L1xx_HAL_Driver/Src/stm32l1xx_hal_flash.c ****   * @{
 187:Drivers/STM32L1xx_HAL_Driver/Src/stm32l1xx_hal_flash.c ****   */
 188:Drivers/STM32L1xx_HAL_Driver/Src/stm32l1xx_hal_flash.c **** /* Variables used for Erase pages under interruption*/
 189:Drivers/STM32L1xx_HAL_Driver/Src/stm32l1xx_hal_flash.c **** FLASH_ProcessTypeDef pFlash;
 190:Drivers/STM32L1xx_HAL_Driver/Src/stm32l1xx_hal_flash.c **** /**
 191:Drivers/STM32L1xx_HAL_Driver/Src/stm32l1xx_hal_flash.c ****   * @}
 192:Drivers/STM32L1xx_HAL_Driver/Src/stm32l1xx_hal_flash.c ****   */
 193:Drivers/STM32L1xx_HAL_Driver/Src/stm32l1xx_hal_flash.c **** 
 194:Drivers/STM32L1xx_HAL_Driver/Src/stm32l1xx_hal_flash.c **** /* Private function prototypes -----------------------------------------------*/
 195:Drivers/STM32L1xx_HAL_Driver/Src/stm32l1xx_hal_flash.c **** /** @defgroup FLASH_Private_Functions FLASH Private Functions
 196:Drivers/STM32L1xx_HAL_Driver/Src/stm32l1xx_hal_flash.c ****   * @{
 197:Drivers/STM32L1xx_HAL_Driver/Src/stm32l1xx_hal_flash.c ****   */
 198:Drivers/STM32L1xx_HAL_Driver/Src/stm32l1xx_hal_flash.c **** static  void   FLASH_SetErrorCode(void);
 199:Drivers/STM32L1xx_HAL_Driver/Src/stm32l1xx_hal_flash.c **** extern void    FLASH_PageErase(uint32_t PageAddress);
 200:Drivers/STM32L1xx_HAL_Driver/Src/stm32l1xx_hal_flash.c **** /**
 201:Drivers/STM32L1xx_HAL_Driver/Src/stm32l1xx_hal_flash.c ****   * @}
 202:Drivers/STM32L1xx_HAL_Driver/Src/stm32l1xx_hal_flash.c ****   */
 203:Drivers/STM32L1xx_HAL_Driver/Src/stm32l1xx_hal_flash.c **** 
 204:Drivers/STM32L1xx_HAL_Driver/Src/stm32l1xx_hal_flash.c **** /* Exported functions ---------------------------------------------------------*/
ARM GAS  C:\Users\marce\AppData\Local\Temp\cckSIbNd.s 			page 5


 205:Drivers/STM32L1xx_HAL_Driver/Src/stm32l1xx_hal_flash.c **** /** @defgroup FLASH_Exported_Functions FLASH Exported Functions
 206:Drivers/STM32L1xx_HAL_Driver/Src/stm32l1xx_hal_flash.c ****   * @{
 207:Drivers/STM32L1xx_HAL_Driver/Src/stm32l1xx_hal_flash.c ****   */
 208:Drivers/STM32L1xx_HAL_Driver/Src/stm32l1xx_hal_flash.c ****   
 209:Drivers/STM32L1xx_HAL_Driver/Src/stm32l1xx_hal_flash.c **** /** @defgroup FLASH_Exported_Functions_Group1 Programming operation functions 
 210:Drivers/STM32L1xx_HAL_Driver/Src/stm32l1xx_hal_flash.c ****   *  @brief   Programming operation functions 
 211:Drivers/STM32L1xx_HAL_Driver/Src/stm32l1xx_hal_flash.c ****   *
 212:Drivers/STM32L1xx_HAL_Driver/Src/stm32l1xx_hal_flash.c **** @verbatim   
 213:Drivers/STM32L1xx_HAL_Driver/Src/stm32l1xx_hal_flash.c **** @endverbatim
 214:Drivers/STM32L1xx_HAL_Driver/Src/stm32l1xx_hal_flash.c ****   * @{
 215:Drivers/STM32L1xx_HAL_Driver/Src/stm32l1xx_hal_flash.c ****   */
 216:Drivers/STM32L1xx_HAL_Driver/Src/stm32l1xx_hal_flash.c **** 
 217:Drivers/STM32L1xx_HAL_Driver/Src/stm32l1xx_hal_flash.c **** /**
 218:Drivers/STM32L1xx_HAL_Driver/Src/stm32l1xx_hal_flash.c ****   * @brief  Program word at a specified address
 219:Drivers/STM32L1xx_HAL_Driver/Src/stm32l1xx_hal_flash.c ****   * @note   To correctly run this function, the HAL_FLASH_Unlock() function
 220:Drivers/STM32L1xx_HAL_Driver/Src/stm32l1xx_hal_flash.c ****   *         must be called before.
 221:Drivers/STM32L1xx_HAL_Driver/Src/stm32l1xx_hal_flash.c ****   *         Call the HAL_FLASH_Lock() to disable the flash memory access
 222:Drivers/STM32L1xx_HAL_Driver/Src/stm32l1xx_hal_flash.c ****   *         (recommended to protect the FLASH memory against possible unwanted operation).
 223:Drivers/STM32L1xx_HAL_Driver/Src/stm32l1xx_hal_flash.c ****   *
 224:Drivers/STM32L1xx_HAL_Driver/Src/stm32l1xx_hal_flash.c ****   * @param  TypeProgram   Indicate the way to program at a specified address.
 225:Drivers/STM32L1xx_HAL_Driver/Src/stm32l1xx_hal_flash.c ****   *                       This parameter can be a value of @ref FLASH_Type_Program
 226:Drivers/STM32L1xx_HAL_Driver/Src/stm32l1xx_hal_flash.c ****   * @param  Address       Specifie the address to be programmed.
 227:Drivers/STM32L1xx_HAL_Driver/Src/stm32l1xx_hal_flash.c ****   * @param  Data          Specifie the data to be programmed
 228:Drivers/STM32L1xx_HAL_Driver/Src/stm32l1xx_hal_flash.c ****   * 
 229:Drivers/STM32L1xx_HAL_Driver/Src/stm32l1xx_hal_flash.c ****   * @retval HAL_StatusTypeDef HAL Status
 230:Drivers/STM32L1xx_HAL_Driver/Src/stm32l1xx_hal_flash.c ****   */
 231:Drivers/STM32L1xx_HAL_Driver/Src/stm32l1xx_hal_flash.c **** HAL_StatusTypeDef HAL_FLASH_Program(uint32_t TypeProgram, uint32_t Address, uint32_t Data)
 232:Drivers/STM32L1xx_HAL_Driver/Src/stm32l1xx_hal_flash.c **** {
 233:Drivers/STM32L1xx_HAL_Driver/Src/stm32l1xx_hal_flash.c ****   HAL_StatusTypeDef status = HAL_ERROR;
 234:Drivers/STM32L1xx_HAL_Driver/Src/stm32l1xx_hal_flash.c ****   
 235:Drivers/STM32L1xx_HAL_Driver/Src/stm32l1xx_hal_flash.c ****   /* Process Locked */
 236:Drivers/STM32L1xx_HAL_Driver/Src/stm32l1xx_hal_flash.c ****   __HAL_LOCK(&pFlash);
 237:Drivers/STM32L1xx_HAL_Driver/Src/stm32l1xx_hal_flash.c **** 
 238:Drivers/STM32L1xx_HAL_Driver/Src/stm32l1xx_hal_flash.c ****   /* Check the parameters */
 239:Drivers/STM32L1xx_HAL_Driver/Src/stm32l1xx_hal_flash.c ****   assert_param(IS_FLASH_TYPEPROGRAM(TypeProgram));
 240:Drivers/STM32L1xx_HAL_Driver/Src/stm32l1xx_hal_flash.c ****   assert_param(IS_FLASH_PROGRAM_ADDRESS(Address));
 241:Drivers/STM32L1xx_HAL_Driver/Src/stm32l1xx_hal_flash.c **** 
 242:Drivers/STM32L1xx_HAL_Driver/Src/stm32l1xx_hal_flash.c ****   /* Wait for last operation to be completed */
 243:Drivers/STM32L1xx_HAL_Driver/Src/stm32l1xx_hal_flash.c ****   status = FLASH_WaitForLastOperation(FLASH_TIMEOUT_VALUE);
 244:Drivers/STM32L1xx_HAL_Driver/Src/stm32l1xx_hal_flash.c ****   
 245:Drivers/STM32L1xx_HAL_Driver/Src/stm32l1xx_hal_flash.c ****   if(status == HAL_OK)
 246:Drivers/STM32L1xx_HAL_Driver/Src/stm32l1xx_hal_flash.c ****   {
 247:Drivers/STM32L1xx_HAL_Driver/Src/stm32l1xx_hal_flash.c ****     /* Clean the error context */
 248:Drivers/STM32L1xx_HAL_Driver/Src/stm32l1xx_hal_flash.c ****     pFlash.ErrorCode = HAL_FLASH_ERROR_NONE;
 249:Drivers/STM32L1xx_HAL_Driver/Src/stm32l1xx_hal_flash.c **** 
 250:Drivers/STM32L1xx_HAL_Driver/Src/stm32l1xx_hal_flash.c ****     /*Program word (32-bit) at a specified address.*/
 251:Drivers/STM32L1xx_HAL_Driver/Src/stm32l1xx_hal_flash.c ****     *(__IO uint32_t *)Address = Data;
 252:Drivers/STM32L1xx_HAL_Driver/Src/stm32l1xx_hal_flash.c **** 
 253:Drivers/STM32L1xx_HAL_Driver/Src/stm32l1xx_hal_flash.c ****     /* Wait for last operation to be completed */
 254:Drivers/STM32L1xx_HAL_Driver/Src/stm32l1xx_hal_flash.c ****     status = FLASH_WaitForLastOperation(FLASH_TIMEOUT_VALUE);
 255:Drivers/STM32L1xx_HAL_Driver/Src/stm32l1xx_hal_flash.c ****   }
 256:Drivers/STM32L1xx_HAL_Driver/Src/stm32l1xx_hal_flash.c **** 
 257:Drivers/STM32L1xx_HAL_Driver/Src/stm32l1xx_hal_flash.c ****   /* Process Unlocked */
 258:Drivers/STM32L1xx_HAL_Driver/Src/stm32l1xx_hal_flash.c ****   __HAL_UNLOCK(&pFlash);
 259:Drivers/STM32L1xx_HAL_Driver/Src/stm32l1xx_hal_flash.c **** 
 260:Drivers/STM32L1xx_HAL_Driver/Src/stm32l1xx_hal_flash.c ****   return status;
 261:Drivers/STM32L1xx_HAL_Driver/Src/stm32l1xx_hal_flash.c **** }
ARM GAS  C:\Users\marce\AppData\Local\Temp\cckSIbNd.s 			page 6


 262:Drivers/STM32L1xx_HAL_Driver/Src/stm32l1xx_hal_flash.c **** 
 263:Drivers/STM32L1xx_HAL_Driver/Src/stm32l1xx_hal_flash.c **** /**
 264:Drivers/STM32L1xx_HAL_Driver/Src/stm32l1xx_hal_flash.c ****   * @brief   Program word at a specified address  with interrupt enabled.
 265:Drivers/STM32L1xx_HAL_Driver/Src/stm32l1xx_hal_flash.c ****   *
 266:Drivers/STM32L1xx_HAL_Driver/Src/stm32l1xx_hal_flash.c ****   * @param  TypeProgram  Indicate the way to program at a specified address.
 267:Drivers/STM32L1xx_HAL_Driver/Src/stm32l1xx_hal_flash.c ****   *                      This parameter can be a value of @ref FLASH_Type_Program
 268:Drivers/STM32L1xx_HAL_Driver/Src/stm32l1xx_hal_flash.c ****   * @param  Address      Specifie the address to be programmed.
 269:Drivers/STM32L1xx_HAL_Driver/Src/stm32l1xx_hal_flash.c ****   * @param  Data         Specifie the data to be programmed
 270:Drivers/STM32L1xx_HAL_Driver/Src/stm32l1xx_hal_flash.c ****   * 
 271:Drivers/STM32L1xx_HAL_Driver/Src/stm32l1xx_hal_flash.c ****   * @retval HAL_StatusTypeDef HAL Status
 272:Drivers/STM32L1xx_HAL_Driver/Src/stm32l1xx_hal_flash.c ****   */
 273:Drivers/STM32L1xx_HAL_Driver/Src/stm32l1xx_hal_flash.c **** HAL_StatusTypeDef HAL_FLASH_Program_IT(uint32_t TypeProgram, uint32_t Address, uint32_t Data)
 274:Drivers/STM32L1xx_HAL_Driver/Src/stm32l1xx_hal_flash.c **** {
 275:Drivers/STM32L1xx_HAL_Driver/Src/stm32l1xx_hal_flash.c ****   HAL_StatusTypeDef status = HAL_OK;
 276:Drivers/STM32L1xx_HAL_Driver/Src/stm32l1xx_hal_flash.c ****   
 277:Drivers/STM32L1xx_HAL_Driver/Src/stm32l1xx_hal_flash.c ****   /* Process Locked */
 278:Drivers/STM32L1xx_HAL_Driver/Src/stm32l1xx_hal_flash.c ****   __HAL_LOCK(&pFlash);
 279:Drivers/STM32L1xx_HAL_Driver/Src/stm32l1xx_hal_flash.c **** 
 280:Drivers/STM32L1xx_HAL_Driver/Src/stm32l1xx_hal_flash.c ****   /* Check the parameters */
 281:Drivers/STM32L1xx_HAL_Driver/Src/stm32l1xx_hal_flash.c ****   assert_param(IS_FLASH_TYPEPROGRAM(TypeProgram));
 282:Drivers/STM32L1xx_HAL_Driver/Src/stm32l1xx_hal_flash.c ****   assert_param(IS_FLASH_PROGRAM_ADDRESS(Address));
 283:Drivers/STM32L1xx_HAL_Driver/Src/stm32l1xx_hal_flash.c **** 
 284:Drivers/STM32L1xx_HAL_Driver/Src/stm32l1xx_hal_flash.c ****   /* Enable End of FLASH Operation and Error source interrupts */
 285:Drivers/STM32L1xx_HAL_Driver/Src/stm32l1xx_hal_flash.c ****   __HAL_FLASH_ENABLE_IT(FLASH_IT_EOP | FLASH_IT_ERR);
 286:Drivers/STM32L1xx_HAL_Driver/Src/stm32l1xx_hal_flash.c ****   
 287:Drivers/STM32L1xx_HAL_Driver/Src/stm32l1xx_hal_flash.c ****   pFlash.Address = Address;
 288:Drivers/STM32L1xx_HAL_Driver/Src/stm32l1xx_hal_flash.c ****   pFlash.ProcedureOnGoing = FLASH_PROC_PROGRAM;
 289:Drivers/STM32L1xx_HAL_Driver/Src/stm32l1xx_hal_flash.c ****   /* Clean the error context */
 290:Drivers/STM32L1xx_HAL_Driver/Src/stm32l1xx_hal_flash.c ****   pFlash.ErrorCode = HAL_FLASH_ERROR_NONE;
 291:Drivers/STM32L1xx_HAL_Driver/Src/stm32l1xx_hal_flash.c **** 
 292:Drivers/STM32L1xx_HAL_Driver/Src/stm32l1xx_hal_flash.c ****   if(TypeProgram == FLASH_TYPEPROGRAM_WORD)
 293:Drivers/STM32L1xx_HAL_Driver/Src/stm32l1xx_hal_flash.c ****   {
 294:Drivers/STM32L1xx_HAL_Driver/Src/stm32l1xx_hal_flash.c ****     /* Program word (32-bit) at a specified address. */
 295:Drivers/STM32L1xx_HAL_Driver/Src/stm32l1xx_hal_flash.c ****     *(__IO uint32_t *)Address = Data;
 296:Drivers/STM32L1xx_HAL_Driver/Src/stm32l1xx_hal_flash.c ****   }
 297:Drivers/STM32L1xx_HAL_Driver/Src/stm32l1xx_hal_flash.c ****   return status;
 298:Drivers/STM32L1xx_HAL_Driver/Src/stm32l1xx_hal_flash.c **** }
 299:Drivers/STM32L1xx_HAL_Driver/Src/stm32l1xx_hal_flash.c **** 
 300:Drivers/STM32L1xx_HAL_Driver/Src/stm32l1xx_hal_flash.c **** /**
 301:Drivers/STM32L1xx_HAL_Driver/Src/stm32l1xx_hal_flash.c ****   * @brief This function handles FLASH interrupt request.
 302:Drivers/STM32L1xx_HAL_Driver/Src/stm32l1xx_hal_flash.c ****   * @retval None
 303:Drivers/STM32L1xx_HAL_Driver/Src/stm32l1xx_hal_flash.c ****   */
 304:Drivers/STM32L1xx_HAL_Driver/Src/stm32l1xx_hal_flash.c **** void HAL_FLASH_IRQHandler(void)
 305:Drivers/STM32L1xx_HAL_Driver/Src/stm32l1xx_hal_flash.c **** {
 306:Drivers/STM32L1xx_HAL_Driver/Src/stm32l1xx_hal_flash.c ****   uint32_t addresstmp = 0U;
 307:Drivers/STM32L1xx_HAL_Driver/Src/stm32l1xx_hal_flash.c ****   
 308:Drivers/STM32L1xx_HAL_Driver/Src/stm32l1xx_hal_flash.c ****   /* Check FLASH operation error flags */
 309:Drivers/STM32L1xx_HAL_Driver/Src/stm32l1xx_hal_flash.c ****   if( __HAL_FLASH_GET_FLAG(FLASH_FLAG_WRPERR)     || 
 310:Drivers/STM32L1xx_HAL_Driver/Src/stm32l1xx_hal_flash.c ****       __HAL_FLASH_GET_FLAG(FLASH_FLAG_PGAERR)     || 
 311:Drivers/STM32L1xx_HAL_Driver/Src/stm32l1xx_hal_flash.c ****       __HAL_FLASH_GET_FLAG(FLASH_FLAG_SIZERR)     || 
 312:Drivers/STM32L1xx_HAL_Driver/Src/stm32l1xx_hal_flash.c **** #if defined(FLASH_SR_RDERR)
 313:Drivers/STM32L1xx_HAL_Driver/Src/stm32l1xx_hal_flash.c ****       __HAL_FLASH_GET_FLAG(FLASH_FLAG_RDERR)      || 
 314:Drivers/STM32L1xx_HAL_Driver/Src/stm32l1xx_hal_flash.c **** #endif /* FLASH_SR_RDERR */
 315:Drivers/STM32L1xx_HAL_Driver/Src/stm32l1xx_hal_flash.c **** #if defined(FLASH_SR_OPTVERRUSR)
 316:Drivers/STM32L1xx_HAL_Driver/Src/stm32l1xx_hal_flash.c ****       __HAL_FLASH_GET_FLAG(FLASH_FLAG_OPTVERRUSR) || 
 317:Drivers/STM32L1xx_HAL_Driver/Src/stm32l1xx_hal_flash.c **** #endif /* FLASH_SR_OPTVERRUSR */
 318:Drivers/STM32L1xx_HAL_Driver/Src/stm32l1xx_hal_flash.c ****       __HAL_FLASH_GET_FLAG(FLASH_FLAG_OPTVERR) )
ARM GAS  C:\Users\marce\AppData\Local\Temp\cckSIbNd.s 			page 7


 319:Drivers/STM32L1xx_HAL_Driver/Src/stm32l1xx_hal_flash.c ****   {
 320:Drivers/STM32L1xx_HAL_Driver/Src/stm32l1xx_hal_flash.c ****     if(pFlash.ProcedureOnGoing == FLASH_PROC_PAGEERASE)
 321:Drivers/STM32L1xx_HAL_Driver/Src/stm32l1xx_hal_flash.c ****     {
 322:Drivers/STM32L1xx_HAL_Driver/Src/stm32l1xx_hal_flash.c ****       /* Return the faulty sector */
 323:Drivers/STM32L1xx_HAL_Driver/Src/stm32l1xx_hal_flash.c ****       addresstmp = pFlash.Page;
 324:Drivers/STM32L1xx_HAL_Driver/Src/stm32l1xx_hal_flash.c ****       pFlash.Page = 0xFFFFFFFFU;
 325:Drivers/STM32L1xx_HAL_Driver/Src/stm32l1xx_hal_flash.c ****     }
 326:Drivers/STM32L1xx_HAL_Driver/Src/stm32l1xx_hal_flash.c ****     else
 327:Drivers/STM32L1xx_HAL_Driver/Src/stm32l1xx_hal_flash.c ****     {
 328:Drivers/STM32L1xx_HAL_Driver/Src/stm32l1xx_hal_flash.c ****       /* Return the faulty address */
 329:Drivers/STM32L1xx_HAL_Driver/Src/stm32l1xx_hal_flash.c ****       addresstmp = pFlash.Address;
 330:Drivers/STM32L1xx_HAL_Driver/Src/stm32l1xx_hal_flash.c ****     }
 331:Drivers/STM32L1xx_HAL_Driver/Src/stm32l1xx_hal_flash.c ****     /* Save the Error code */
 332:Drivers/STM32L1xx_HAL_Driver/Src/stm32l1xx_hal_flash.c ****     FLASH_SetErrorCode();
 333:Drivers/STM32L1xx_HAL_Driver/Src/stm32l1xx_hal_flash.c ****     
 334:Drivers/STM32L1xx_HAL_Driver/Src/stm32l1xx_hal_flash.c ****     /* FLASH error interrupt user callback */
 335:Drivers/STM32L1xx_HAL_Driver/Src/stm32l1xx_hal_flash.c ****     HAL_FLASH_OperationErrorCallback(addresstmp);
 336:Drivers/STM32L1xx_HAL_Driver/Src/stm32l1xx_hal_flash.c **** 
 337:Drivers/STM32L1xx_HAL_Driver/Src/stm32l1xx_hal_flash.c ****     /* Stop the procedure ongoing */
 338:Drivers/STM32L1xx_HAL_Driver/Src/stm32l1xx_hal_flash.c ****     pFlash.ProcedureOnGoing = FLASH_PROC_NONE;
 339:Drivers/STM32L1xx_HAL_Driver/Src/stm32l1xx_hal_flash.c ****   }
 340:Drivers/STM32L1xx_HAL_Driver/Src/stm32l1xx_hal_flash.c **** 
 341:Drivers/STM32L1xx_HAL_Driver/Src/stm32l1xx_hal_flash.c ****   /* Check FLASH End of Operation flag  */
 342:Drivers/STM32L1xx_HAL_Driver/Src/stm32l1xx_hal_flash.c ****   if(__HAL_FLASH_GET_FLAG(FLASH_FLAG_EOP))
 343:Drivers/STM32L1xx_HAL_Driver/Src/stm32l1xx_hal_flash.c ****   {
 344:Drivers/STM32L1xx_HAL_Driver/Src/stm32l1xx_hal_flash.c ****     /* Clear FLASH End of Operation pending bit */
 345:Drivers/STM32L1xx_HAL_Driver/Src/stm32l1xx_hal_flash.c ****     __HAL_FLASH_CLEAR_FLAG(FLASH_FLAG_EOP);
 346:Drivers/STM32L1xx_HAL_Driver/Src/stm32l1xx_hal_flash.c ****     
 347:Drivers/STM32L1xx_HAL_Driver/Src/stm32l1xx_hal_flash.c ****     /* Process can continue only if no error detected */
 348:Drivers/STM32L1xx_HAL_Driver/Src/stm32l1xx_hal_flash.c ****     if(pFlash.ProcedureOnGoing != FLASH_PROC_NONE)
 349:Drivers/STM32L1xx_HAL_Driver/Src/stm32l1xx_hal_flash.c ****     {
 350:Drivers/STM32L1xx_HAL_Driver/Src/stm32l1xx_hal_flash.c ****       if(pFlash.ProcedureOnGoing == FLASH_PROC_PAGEERASE)
 351:Drivers/STM32L1xx_HAL_Driver/Src/stm32l1xx_hal_flash.c ****       {
 352:Drivers/STM32L1xx_HAL_Driver/Src/stm32l1xx_hal_flash.c ****         /* Nb of pages to erased can be decreased */
 353:Drivers/STM32L1xx_HAL_Driver/Src/stm32l1xx_hal_flash.c ****         pFlash.NbPagesToErase--;
 354:Drivers/STM32L1xx_HAL_Driver/Src/stm32l1xx_hal_flash.c **** 
 355:Drivers/STM32L1xx_HAL_Driver/Src/stm32l1xx_hal_flash.c ****         /* Check if there are still pages to erase */
 356:Drivers/STM32L1xx_HAL_Driver/Src/stm32l1xx_hal_flash.c ****         if(pFlash.NbPagesToErase != 0U)
 357:Drivers/STM32L1xx_HAL_Driver/Src/stm32l1xx_hal_flash.c ****         {
 358:Drivers/STM32L1xx_HAL_Driver/Src/stm32l1xx_hal_flash.c ****           addresstmp = pFlash.Page;
 359:Drivers/STM32L1xx_HAL_Driver/Src/stm32l1xx_hal_flash.c ****           /*Indicate user which sector has been erased */
 360:Drivers/STM32L1xx_HAL_Driver/Src/stm32l1xx_hal_flash.c ****           HAL_FLASH_EndOfOperationCallback(addresstmp);
 361:Drivers/STM32L1xx_HAL_Driver/Src/stm32l1xx_hal_flash.c **** 
 362:Drivers/STM32L1xx_HAL_Driver/Src/stm32l1xx_hal_flash.c ****           /*Increment sector number*/
 363:Drivers/STM32L1xx_HAL_Driver/Src/stm32l1xx_hal_flash.c ****           addresstmp = pFlash.Page + FLASH_PAGE_SIZE;
 364:Drivers/STM32L1xx_HAL_Driver/Src/stm32l1xx_hal_flash.c ****           pFlash.Page = addresstmp;
 365:Drivers/STM32L1xx_HAL_Driver/Src/stm32l1xx_hal_flash.c **** 
 366:Drivers/STM32L1xx_HAL_Driver/Src/stm32l1xx_hal_flash.c ****           /* If the erase operation is completed, disable the ERASE Bit */
 367:Drivers/STM32L1xx_HAL_Driver/Src/stm32l1xx_hal_flash.c ****           CLEAR_BIT(FLASH->PECR, FLASH_PECR_ERASE);
 368:Drivers/STM32L1xx_HAL_Driver/Src/stm32l1xx_hal_flash.c **** 
 369:Drivers/STM32L1xx_HAL_Driver/Src/stm32l1xx_hal_flash.c ****           FLASH_PageErase(addresstmp);
 370:Drivers/STM32L1xx_HAL_Driver/Src/stm32l1xx_hal_flash.c ****         }
 371:Drivers/STM32L1xx_HAL_Driver/Src/stm32l1xx_hal_flash.c ****         else
 372:Drivers/STM32L1xx_HAL_Driver/Src/stm32l1xx_hal_flash.c ****         {
 373:Drivers/STM32L1xx_HAL_Driver/Src/stm32l1xx_hal_flash.c ****           /* No more pages to Erase, user callback can be called. */
 374:Drivers/STM32L1xx_HAL_Driver/Src/stm32l1xx_hal_flash.c ****           /* Reset Sector and stop Erase pages procedure */
 375:Drivers/STM32L1xx_HAL_Driver/Src/stm32l1xx_hal_flash.c ****           pFlash.Page = addresstmp = 0xFFFFFFFFU;
ARM GAS  C:\Users\marce\AppData\Local\Temp\cckSIbNd.s 			page 8


 376:Drivers/STM32L1xx_HAL_Driver/Src/stm32l1xx_hal_flash.c ****           pFlash.ProcedureOnGoing = FLASH_PROC_NONE;
 377:Drivers/STM32L1xx_HAL_Driver/Src/stm32l1xx_hal_flash.c ****           /* FLASH EOP interrupt user callback */
 378:Drivers/STM32L1xx_HAL_Driver/Src/stm32l1xx_hal_flash.c ****           HAL_FLASH_EndOfOperationCallback(addresstmp);
 379:Drivers/STM32L1xx_HAL_Driver/Src/stm32l1xx_hal_flash.c ****         }
 380:Drivers/STM32L1xx_HAL_Driver/Src/stm32l1xx_hal_flash.c ****       }
 381:Drivers/STM32L1xx_HAL_Driver/Src/stm32l1xx_hal_flash.c ****       else
 382:Drivers/STM32L1xx_HAL_Driver/Src/stm32l1xx_hal_flash.c ****       {
 383:Drivers/STM32L1xx_HAL_Driver/Src/stm32l1xx_hal_flash.c ****           /* If the program operation is completed, disable the PROG Bit */
 384:Drivers/STM32L1xx_HAL_Driver/Src/stm32l1xx_hal_flash.c ****           CLEAR_BIT(FLASH->PECR, FLASH_PECR_PROG);
 385:Drivers/STM32L1xx_HAL_Driver/Src/stm32l1xx_hal_flash.c **** 
 386:Drivers/STM32L1xx_HAL_Driver/Src/stm32l1xx_hal_flash.c ****           /* Program ended. Return the selected address */
 387:Drivers/STM32L1xx_HAL_Driver/Src/stm32l1xx_hal_flash.c ****           /* FLASH EOP interrupt user callback */
 388:Drivers/STM32L1xx_HAL_Driver/Src/stm32l1xx_hal_flash.c ****           HAL_FLASH_EndOfOperationCallback(pFlash.Address);
 389:Drivers/STM32L1xx_HAL_Driver/Src/stm32l1xx_hal_flash.c ****         
 390:Drivers/STM32L1xx_HAL_Driver/Src/stm32l1xx_hal_flash.c ****           /* Reset Address and stop Program procedure */
 391:Drivers/STM32L1xx_HAL_Driver/Src/stm32l1xx_hal_flash.c ****           pFlash.Address = 0xFFFFFFFFU;
 392:Drivers/STM32L1xx_HAL_Driver/Src/stm32l1xx_hal_flash.c ****           pFlash.ProcedureOnGoing = FLASH_PROC_NONE;
 393:Drivers/STM32L1xx_HAL_Driver/Src/stm32l1xx_hal_flash.c ****       }
 394:Drivers/STM32L1xx_HAL_Driver/Src/stm32l1xx_hal_flash.c ****     }
 395:Drivers/STM32L1xx_HAL_Driver/Src/stm32l1xx_hal_flash.c ****   }
 396:Drivers/STM32L1xx_HAL_Driver/Src/stm32l1xx_hal_flash.c ****   
 397:Drivers/STM32L1xx_HAL_Driver/Src/stm32l1xx_hal_flash.c **** 
 398:Drivers/STM32L1xx_HAL_Driver/Src/stm32l1xx_hal_flash.c ****   if(pFlash.ProcedureOnGoing == FLASH_PROC_NONE)
 399:Drivers/STM32L1xx_HAL_Driver/Src/stm32l1xx_hal_flash.c ****   {
 400:Drivers/STM32L1xx_HAL_Driver/Src/stm32l1xx_hal_flash.c ****     /* Operation is completed, disable the PROG and ERASE */
 401:Drivers/STM32L1xx_HAL_Driver/Src/stm32l1xx_hal_flash.c ****     CLEAR_BIT(FLASH->PECR, (FLASH_PECR_ERASE | FLASH_PECR_PROG));
 402:Drivers/STM32L1xx_HAL_Driver/Src/stm32l1xx_hal_flash.c **** 
 403:Drivers/STM32L1xx_HAL_Driver/Src/stm32l1xx_hal_flash.c ****     /* Disable End of FLASH Operation and Error source interrupts */
 404:Drivers/STM32L1xx_HAL_Driver/Src/stm32l1xx_hal_flash.c ****     __HAL_FLASH_DISABLE_IT(FLASH_IT_EOP | FLASH_IT_ERR);
 405:Drivers/STM32L1xx_HAL_Driver/Src/stm32l1xx_hal_flash.c **** 
 406:Drivers/STM32L1xx_HAL_Driver/Src/stm32l1xx_hal_flash.c ****     /* Process Unlocked */
 407:Drivers/STM32L1xx_HAL_Driver/Src/stm32l1xx_hal_flash.c ****     __HAL_UNLOCK(&pFlash);
 408:Drivers/STM32L1xx_HAL_Driver/Src/stm32l1xx_hal_flash.c ****   }
 409:Drivers/STM32L1xx_HAL_Driver/Src/stm32l1xx_hal_flash.c **** }
 410:Drivers/STM32L1xx_HAL_Driver/Src/stm32l1xx_hal_flash.c **** 
 411:Drivers/STM32L1xx_HAL_Driver/Src/stm32l1xx_hal_flash.c **** /**
 412:Drivers/STM32L1xx_HAL_Driver/Src/stm32l1xx_hal_flash.c ****   * @brief  FLASH end of operation interrupt callback
 413:Drivers/STM32L1xx_HAL_Driver/Src/stm32l1xx_hal_flash.c ****   * @param  ReturnValue The value saved in this parameter depends on the ongoing procedure
 414:Drivers/STM32L1xx_HAL_Driver/Src/stm32l1xx_hal_flash.c ****   *                 - Pages Erase: Address of the page which has been erased 
 415:Drivers/STM32L1xx_HAL_Driver/Src/stm32l1xx_hal_flash.c ****   *                    (if 0xFFFFFFFF, it means that all the selected pages have been erased)
 416:Drivers/STM32L1xx_HAL_Driver/Src/stm32l1xx_hal_flash.c ****   *                 - Program: Address which was selected for data program
 417:Drivers/STM32L1xx_HAL_Driver/Src/stm32l1xx_hal_flash.c ****   * @retval none
 418:Drivers/STM32L1xx_HAL_Driver/Src/stm32l1xx_hal_flash.c ****   */
 419:Drivers/STM32L1xx_HAL_Driver/Src/stm32l1xx_hal_flash.c **** __weak void HAL_FLASH_EndOfOperationCallback(uint32_t ReturnValue)
 420:Drivers/STM32L1xx_HAL_Driver/Src/stm32l1xx_hal_flash.c **** {
 421:Drivers/STM32L1xx_HAL_Driver/Src/stm32l1xx_hal_flash.c ****   /* Prevent unused argument(s) compilation warning */
 422:Drivers/STM32L1xx_HAL_Driver/Src/stm32l1xx_hal_flash.c ****   UNUSED(ReturnValue);
 423:Drivers/STM32L1xx_HAL_Driver/Src/stm32l1xx_hal_flash.c **** 
 424:Drivers/STM32L1xx_HAL_Driver/Src/stm32l1xx_hal_flash.c ****   /* NOTE : This function Should not be modified, when the callback is needed,
 425:Drivers/STM32L1xx_HAL_Driver/Src/stm32l1xx_hal_flash.c ****             the HAL_FLASH_EndOfOperationCallback could be implemented in the user file
 426:Drivers/STM32L1xx_HAL_Driver/Src/stm32l1xx_hal_flash.c ****    */ 
 427:Drivers/STM32L1xx_HAL_Driver/Src/stm32l1xx_hal_flash.c **** }
 428:Drivers/STM32L1xx_HAL_Driver/Src/stm32l1xx_hal_flash.c **** 
 429:Drivers/STM32L1xx_HAL_Driver/Src/stm32l1xx_hal_flash.c **** /**
 430:Drivers/STM32L1xx_HAL_Driver/Src/stm32l1xx_hal_flash.c ****   * @brief  FLASH operation error interrupt callback
 431:Drivers/STM32L1xx_HAL_Driver/Src/stm32l1xx_hal_flash.c ****   * @param  ReturnValue The value saved in this parameter depends on the ongoing procedure
 432:Drivers/STM32L1xx_HAL_Driver/Src/stm32l1xx_hal_flash.c ****   *                 - Pages Erase: Address of the page which returned an error
ARM GAS  C:\Users\marce\AppData\Local\Temp\cckSIbNd.s 			page 9


 433:Drivers/STM32L1xx_HAL_Driver/Src/stm32l1xx_hal_flash.c ****   *                 - Program: Address which was selected for data program
 434:Drivers/STM32L1xx_HAL_Driver/Src/stm32l1xx_hal_flash.c ****   * @retval none
 435:Drivers/STM32L1xx_HAL_Driver/Src/stm32l1xx_hal_flash.c ****   */
 436:Drivers/STM32L1xx_HAL_Driver/Src/stm32l1xx_hal_flash.c **** __weak void HAL_FLASH_OperationErrorCallback(uint32_t ReturnValue)
 437:Drivers/STM32L1xx_HAL_Driver/Src/stm32l1xx_hal_flash.c **** {
 438:Drivers/STM32L1xx_HAL_Driver/Src/stm32l1xx_hal_flash.c ****   /* Prevent unused argument(s) compilation warning */
 439:Drivers/STM32L1xx_HAL_Driver/Src/stm32l1xx_hal_flash.c ****   UNUSED(ReturnValue);
 440:Drivers/STM32L1xx_HAL_Driver/Src/stm32l1xx_hal_flash.c **** 
 441:Drivers/STM32L1xx_HAL_Driver/Src/stm32l1xx_hal_flash.c ****   /* NOTE : This function Should not be modified, when the callback is needed,
 442:Drivers/STM32L1xx_HAL_Driver/Src/stm32l1xx_hal_flash.c ****             the HAL_FLASH_OperationErrorCallback could be implemented in the user file
 443:Drivers/STM32L1xx_HAL_Driver/Src/stm32l1xx_hal_flash.c ****    */ 
 444:Drivers/STM32L1xx_HAL_Driver/Src/stm32l1xx_hal_flash.c **** }
 445:Drivers/STM32L1xx_HAL_Driver/Src/stm32l1xx_hal_flash.c **** 
 446:Drivers/STM32L1xx_HAL_Driver/Src/stm32l1xx_hal_flash.c **** /**
 447:Drivers/STM32L1xx_HAL_Driver/Src/stm32l1xx_hal_flash.c ****   * @}
 448:Drivers/STM32L1xx_HAL_Driver/Src/stm32l1xx_hal_flash.c ****   */
 449:Drivers/STM32L1xx_HAL_Driver/Src/stm32l1xx_hal_flash.c **** 
 450:Drivers/STM32L1xx_HAL_Driver/Src/stm32l1xx_hal_flash.c **** /** @defgroup FLASH_Exported_Functions_Group2 Peripheral Control functions 
 451:Drivers/STM32L1xx_HAL_Driver/Src/stm32l1xx_hal_flash.c ****  *  @brief   management functions 
 452:Drivers/STM32L1xx_HAL_Driver/Src/stm32l1xx_hal_flash.c ****  *
 453:Drivers/STM32L1xx_HAL_Driver/Src/stm32l1xx_hal_flash.c **** @verbatim   
 454:Drivers/STM32L1xx_HAL_Driver/Src/stm32l1xx_hal_flash.c ****  ===============================================================================
 455:Drivers/STM32L1xx_HAL_Driver/Src/stm32l1xx_hal_flash.c ****                       ##### Peripheral Control functions #####
 456:Drivers/STM32L1xx_HAL_Driver/Src/stm32l1xx_hal_flash.c ****  ===============================================================================  
 457:Drivers/STM32L1xx_HAL_Driver/Src/stm32l1xx_hal_flash.c ****     [..]
 458:Drivers/STM32L1xx_HAL_Driver/Src/stm32l1xx_hal_flash.c ****     This subsection provides a set of functions allowing to control the FLASH 
 459:Drivers/STM32L1xx_HAL_Driver/Src/stm32l1xx_hal_flash.c ****     memory operations.
 460:Drivers/STM32L1xx_HAL_Driver/Src/stm32l1xx_hal_flash.c **** 
 461:Drivers/STM32L1xx_HAL_Driver/Src/stm32l1xx_hal_flash.c **** @endverbatim
 462:Drivers/STM32L1xx_HAL_Driver/Src/stm32l1xx_hal_flash.c ****   * @{
 463:Drivers/STM32L1xx_HAL_Driver/Src/stm32l1xx_hal_flash.c ****   */
 464:Drivers/STM32L1xx_HAL_Driver/Src/stm32l1xx_hal_flash.c **** 
 465:Drivers/STM32L1xx_HAL_Driver/Src/stm32l1xx_hal_flash.c **** /**
 466:Drivers/STM32L1xx_HAL_Driver/Src/stm32l1xx_hal_flash.c ****   * @brief  Unlock the FLASH control register access
 467:Drivers/STM32L1xx_HAL_Driver/Src/stm32l1xx_hal_flash.c ****   * @retval HAL Status
 468:Drivers/STM32L1xx_HAL_Driver/Src/stm32l1xx_hal_flash.c ****   */
 469:Drivers/STM32L1xx_HAL_Driver/Src/stm32l1xx_hal_flash.c **** HAL_StatusTypeDef HAL_FLASH_Unlock(void)
 470:Drivers/STM32L1xx_HAL_Driver/Src/stm32l1xx_hal_flash.c **** {
 471:Drivers/STM32L1xx_HAL_Driver/Src/stm32l1xx_hal_flash.c ****   if (HAL_IS_BIT_SET(FLASH->PECR, FLASH_PECR_PRGLOCK))
 472:Drivers/STM32L1xx_HAL_Driver/Src/stm32l1xx_hal_flash.c ****   {
 473:Drivers/STM32L1xx_HAL_Driver/Src/stm32l1xx_hal_flash.c ****     /* Unlocking FLASH_PECR register access*/
 474:Drivers/STM32L1xx_HAL_Driver/Src/stm32l1xx_hal_flash.c ****     if(HAL_IS_BIT_SET(FLASH->PECR, FLASH_PECR_PELOCK))
 475:Drivers/STM32L1xx_HAL_Driver/Src/stm32l1xx_hal_flash.c ****     {  
 476:Drivers/STM32L1xx_HAL_Driver/Src/stm32l1xx_hal_flash.c ****       WRITE_REG(FLASH->PEKEYR, FLASH_PEKEY1);
 477:Drivers/STM32L1xx_HAL_Driver/Src/stm32l1xx_hal_flash.c ****       WRITE_REG(FLASH->PEKEYR, FLASH_PEKEY2);
 478:Drivers/STM32L1xx_HAL_Driver/Src/stm32l1xx_hal_flash.c ****       
 479:Drivers/STM32L1xx_HAL_Driver/Src/stm32l1xx_hal_flash.c ****       /* Verify that PELOCK is unlocked */
 480:Drivers/STM32L1xx_HAL_Driver/Src/stm32l1xx_hal_flash.c ****       if(HAL_IS_BIT_SET(FLASH->PECR, FLASH_PECR_PELOCK))
 481:Drivers/STM32L1xx_HAL_Driver/Src/stm32l1xx_hal_flash.c ****       {
 482:Drivers/STM32L1xx_HAL_Driver/Src/stm32l1xx_hal_flash.c ****         return HAL_ERROR;
 483:Drivers/STM32L1xx_HAL_Driver/Src/stm32l1xx_hal_flash.c ****       }
 484:Drivers/STM32L1xx_HAL_Driver/Src/stm32l1xx_hal_flash.c ****     }
 485:Drivers/STM32L1xx_HAL_Driver/Src/stm32l1xx_hal_flash.c ****     
 486:Drivers/STM32L1xx_HAL_Driver/Src/stm32l1xx_hal_flash.c ****     /* Unlocking the program memory access */
 487:Drivers/STM32L1xx_HAL_Driver/Src/stm32l1xx_hal_flash.c ****     WRITE_REG(FLASH->PRGKEYR, FLASH_PRGKEY1);
 488:Drivers/STM32L1xx_HAL_Driver/Src/stm32l1xx_hal_flash.c ****     WRITE_REG(FLASH->PRGKEYR, FLASH_PRGKEY2);  
 489:Drivers/STM32L1xx_HAL_Driver/Src/stm32l1xx_hal_flash.c ****     
ARM GAS  C:\Users\marce\AppData\Local\Temp\cckSIbNd.s 			page 10


 490:Drivers/STM32L1xx_HAL_Driver/Src/stm32l1xx_hal_flash.c ****     /* Verify that PRGLOCK is unlocked */
 491:Drivers/STM32L1xx_HAL_Driver/Src/stm32l1xx_hal_flash.c ****     if (HAL_IS_BIT_SET(FLASH->PECR, FLASH_PECR_PRGLOCK))
 492:Drivers/STM32L1xx_HAL_Driver/Src/stm32l1xx_hal_flash.c ****     {
 493:Drivers/STM32L1xx_HAL_Driver/Src/stm32l1xx_hal_flash.c ****       return HAL_ERROR;
 494:Drivers/STM32L1xx_HAL_Driver/Src/stm32l1xx_hal_flash.c ****     }
 495:Drivers/STM32L1xx_HAL_Driver/Src/stm32l1xx_hal_flash.c ****   }
 496:Drivers/STM32L1xx_HAL_Driver/Src/stm32l1xx_hal_flash.c ****   
 497:Drivers/STM32L1xx_HAL_Driver/Src/stm32l1xx_hal_flash.c ****   return HAL_OK; 
 498:Drivers/STM32L1xx_HAL_Driver/Src/stm32l1xx_hal_flash.c **** }
 499:Drivers/STM32L1xx_HAL_Driver/Src/stm32l1xx_hal_flash.c **** 
 500:Drivers/STM32L1xx_HAL_Driver/Src/stm32l1xx_hal_flash.c **** /**
 501:Drivers/STM32L1xx_HAL_Driver/Src/stm32l1xx_hal_flash.c ****   * @brief  Locks the FLASH control register access
 502:Drivers/STM32L1xx_HAL_Driver/Src/stm32l1xx_hal_flash.c ****   * @retval HAL Status
 503:Drivers/STM32L1xx_HAL_Driver/Src/stm32l1xx_hal_flash.c ****   */
 504:Drivers/STM32L1xx_HAL_Driver/Src/stm32l1xx_hal_flash.c **** HAL_StatusTypeDef HAL_FLASH_Lock(void)
 505:Drivers/STM32L1xx_HAL_Driver/Src/stm32l1xx_hal_flash.c **** {
 506:Drivers/STM32L1xx_HAL_Driver/Src/stm32l1xx_hal_flash.c ****   /* Set the PRGLOCK Bit to lock the FLASH Registers access */
 507:Drivers/STM32L1xx_HAL_Driver/Src/stm32l1xx_hal_flash.c ****   SET_BIT(FLASH->PECR, FLASH_PECR_PRGLOCK);
 508:Drivers/STM32L1xx_HAL_Driver/Src/stm32l1xx_hal_flash.c ****   
 509:Drivers/STM32L1xx_HAL_Driver/Src/stm32l1xx_hal_flash.c ****   return HAL_OK;  
 510:Drivers/STM32L1xx_HAL_Driver/Src/stm32l1xx_hal_flash.c **** }
 511:Drivers/STM32L1xx_HAL_Driver/Src/stm32l1xx_hal_flash.c **** 
 512:Drivers/STM32L1xx_HAL_Driver/Src/stm32l1xx_hal_flash.c **** /**
 513:Drivers/STM32L1xx_HAL_Driver/Src/stm32l1xx_hal_flash.c ****   * @brief  Unlock the FLASH Option Control Registers access.
 514:Drivers/STM32L1xx_HAL_Driver/Src/stm32l1xx_hal_flash.c ****   * @retval HAL Status
 515:Drivers/STM32L1xx_HAL_Driver/Src/stm32l1xx_hal_flash.c ****   */
 516:Drivers/STM32L1xx_HAL_Driver/Src/stm32l1xx_hal_flash.c **** HAL_StatusTypeDef HAL_FLASH_OB_Unlock(void)
 517:Drivers/STM32L1xx_HAL_Driver/Src/stm32l1xx_hal_flash.c **** {
 518:Drivers/STM32L1xx_HAL_Driver/Src/stm32l1xx_hal_flash.c ****   if(HAL_IS_BIT_SET(FLASH->PECR, FLASH_PECR_OPTLOCK))
 519:Drivers/STM32L1xx_HAL_Driver/Src/stm32l1xx_hal_flash.c ****   {
 520:Drivers/STM32L1xx_HAL_Driver/Src/stm32l1xx_hal_flash.c ****     /* Unlocking FLASH_PECR register access*/
 521:Drivers/STM32L1xx_HAL_Driver/Src/stm32l1xx_hal_flash.c ****     if(HAL_IS_BIT_SET(FLASH->PECR, FLASH_PECR_PELOCK))
 522:Drivers/STM32L1xx_HAL_Driver/Src/stm32l1xx_hal_flash.c ****     {  
 523:Drivers/STM32L1xx_HAL_Driver/Src/stm32l1xx_hal_flash.c ****       /* Unlocking FLASH_PECR register access*/
 524:Drivers/STM32L1xx_HAL_Driver/Src/stm32l1xx_hal_flash.c ****       WRITE_REG(FLASH->PEKEYR, FLASH_PEKEY1);
 525:Drivers/STM32L1xx_HAL_Driver/Src/stm32l1xx_hal_flash.c ****       WRITE_REG(FLASH->PEKEYR, FLASH_PEKEY2);
 526:Drivers/STM32L1xx_HAL_Driver/Src/stm32l1xx_hal_flash.c **** 
 527:Drivers/STM32L1xx_HAL_Driver/Src/stm32l1xx_hal_flash.c ****       /* Verify that PELOCK is unlocked */
 528:Drivers/STM32L1xx_HAL_Driver/Src/stm32l1xx_hal_flash.c ****       if(HAL_IS_BIT_SET(FLASH->PECR, FLASH_PECR_PELOCK))
 529:Drivers/STM32L1xx_HAL_Driver/Src/stm32l1xx_hal_flash.c ****       {
 530:Drivers/STM32L1xx_HAL_Driver/Src/stm32l1xx_hal_flash.c ****         return HAL_ERROR;
 531:Drivers/STM32L1xx_HAL_Driver/Src/stm32l1xx_hal_flash.c ****       }
 532:Drivers/STM32L1xx_HAL_Driver/Src/stm32l1xx_hal_flash.c ****     }
 533:Drivers/STM32L1xx_HAL_Driver/Src/stm32l1xx_hal_flash.c **** 
 534:Drivers/STM32L1xx_HAL_Driver/Src/stm32l1xx_hal_flash.c ****     /* Unlocking the option bytes block access */
 535:Drivers/STM32L1xx_HAL_Driver/Src/stm32l1xx_hal_flash.c ****     WRITE_REG(FLASH->OPTKEYR, FLASH_OPTKEY1);
 536:Drivers/STM32L1xx_HAL_Driver/Src/stm32l1xx_hal_flash.c ****     WRITE_REG(FLASH->OPTKEYR, FLASH_OPTKEY2);
 537:Drivers/STM32L1xx_HAL_Driver/Src/stm32l1xx_hal_flash.c **** 
 538:Drivers/STM32L1xx_HAL_Driver/Src/stm32l1xx_hal_flash.c ****     /* Verify that OPTLOCK is unlocked */
 539:Drivers/STM32L1xx_HAL_Driver/Src/stm32l1xx_hal_flash.c ****     if (HAL_IS_BIT_SET(FLASH->PECR, FLASH_PECR_OPTLOCK))
 540:Drivers/STM32L1xx_HAL_Driver/Src/stm32l1xx_hal_flash.c ****     {
 541:Drivers/STM32L1xx_HAL_Driver/Src/stm32l1xx_hal_flash.c ****       return HAL_ERROR;
 542:Drivers/STM32L1xx_HAL_Driver/Src/stm32l1xx_hal_flash.c ****     }
 543:Drivers/STM32L1xx_HAL_Driver/Src/stm32l1xx_hal_flash.c ****   }
 544:Drivers/STM32L1xx_HAL_Driver/Src/stm32l1xx_hal_flash.c ****   
 545:Drivers/STM32L1xx_HAL_Driver/Src/stm32l1xx_hal_flash.c ****   return HAL_OK;  
 546:Drivers/STM32L1xx_HAL_Driver/Src/stm32l1xx_hal_flash.c **** }
ARM GAS  C:\Users\marce\AppData\Local\Temp\cckSIbNd.s 			page 11


 547:Drivers/STM32L1xx_HAL_Driver/Src/stm32l1xx_hal_flash.c **** 
 548:Drivers/STM32L1xx_HAL_Driver/Src/stm32l1xx_hal_flash.c **** /**
 549:Drivers/STM32L1xx_HAL_Driver/Src/stm32l1xx_hal_flash.c ****   * @brief  Lock the FLASH Option Control Registers access.
 550:Drivers/STM32L1xx_HAL_Driver/Src/stm32l1xx_hal_flash.c ****   * @retval HAL Status 
 551:Drivers/STM32L1xx_HAL_Driver/Src/stm32l1xx_hal_flash.c ****   */
 552:Drivers/STM32L1xx_HAL_Driver/Src/stm32l1xx_hal_flash.c **** HAL_StatusTypeDef HAL_FLASH_OB_Lock(void)
 553:Drivers/STM32L1xx_HAL_Driver/Src/stm32l1xx_hal_flash.c **** {
 554:Drivers/STM32L1xx_HAL_Driver/Src/stm32l1xx_hal_flash.c ****   /* Set the OPTLOCK Bit to lock the option bytes block access */
 555:Drivers/STM32L1xx_HAL_Driver/Src/stm32l1xx_hal_flash.c ****   SET_BIT(FLASH->PECR, FLASH_PECR_OPTLOCK);
 556:Drivers/STM32L1xx_HAL_Driver/Src/stm32l1xx_hal_flash.c ****   
 557:Drivers/STM32L1xx_HAL_Driver/Src/stm32l1xx_hal_flash.c ****   return HAL_OK;  
 558:Drivers/STM32L1xx_HAL_Driver/Src/stm32l1xx_hal_flash.c **** }
 559:Drivers/STM32L1xx_HAL_Driver/Src/stm32l1xx_hal_flash.c ****   
 560:Drivers/STM32L1xx_HAL_Driver/Src/stm32l1xx_hal_flash.c **** /**
 561:Drivers/STM32L1xx_HAL_Driver/Src/stm32l1xx_hal_flash.c ****   * @brief  Launch the option byte loading.
 562:Drivers/STM32L1xx_HAL_Driver/Src/stm32l1xx_hal_flash.c ****   * @note   This function will reset automatically the MCU.
 563:Drivers/STM32L1xx_HAL_Driver/Src/stm32l1xx_hal_flash.c ****   * @retval HAL Status
 564:Drivers/STM32L1xx_HAL_Driver/Src/stm32l1xx_hal_flash.c ****   */
 565:Drivers/STM32L1xx_HAL_Driver/Src/stm32l1xx_hal_flash.c **** HAL_StatusTypeDef HAL_FLASH_OB_Launch(void)
 566:Drivers/STM32L1xx_HAL_Driver/Src/stm32l1xx_hal_flash.c **** {
 567:Drivers/STM32L1xx_HAL_Driver/Src/stm32l1xx_hal_flash.c ****   /* Set the OBL_Launch bit to launch the option byte loading */
 568:Drivers/STM32L1xx_HAL_Driver/Src/stm32l1xx_hal_flash.c ****   SET_BIT(FLASH->PECR, FLASH_PECR_OBL_LAUNCH);
 569:Drivers/STM32L1xx_HAL_Driver/Src/stm32l1xx_hal_flash.c ****   
 570:Drivers/STM32L1xx_HAL_Driver/Src/stm32l1xx_hal_flash.c ****   /* Wait for last operation to be completed */
 571:Drivers/STM32L1xx_HAL_Driver/Src/stm32l1xx_hal_flash.c ****   return(FLASH_WaitForLastOperation(FLASH_TIMEOUT_VALUE));
 572:Drivers/STM32L1xx_HAL_Driver/Src/stm32l1xx_hal_flash.c **** }
 573:Drivers/STM32L1xx_HAL_Driver/Src/stm32l1xx_hal_flash.c **** 
 574:Drivers/STM32L1xx_HAL_Driver/Src/stm32l1xx_hal_flash.c **** /**
 575:Drivers/STM32L1xx_HAL_Driver/Src/stm32l1xx_hal_flash.c ****   * @}
 576:Drivers/STM32L1xx_HAL_Driver/Src/stm32l1xx_hal_flash.c ****   */  
 577:Drivers/STM32L1xx_HAL_Driver/Src/stm32l1xx_hal_flash.c **** 
 578:Drivers/STM32L1xx_HAL_Driver/Src/stm32l1xx_hal_flash.c **** /** @defgroup FLASH_Exported_Functions_Group3 Peripheral errors functions 
 579:Drivers/STM32L1xx_HAL_Driver/Src/stm32l1xx_hal_flash.c ****  *  @brief    Peripheral errors functions 
 580:Drivers/STM32L1xx_HAL_Driver/Src/stm32l1xx_hal_flash.c ****  *
 581:Drivers/STM32L1xx_HAL_Driver/Src/stm32l1xx_hal_flash.c **** @verbatim   
 582:Drivers/STM32L1xx_HAL_Driver/Src/stm32l1xx_hal_flash.c ****  ===============================================================================
 583:Drivers/STM32L1xx_HAL_Driver/Src/stm32l1xx_hal_flash.c ****                       ##### Peripheral Errors functions #####
 584:Drivers/STM32L1xx_HAL_Driver/Src/stm32l1xx_hal_flash.c ****  ===============================================================================  
 585:Drivers/STM32L1xx_HAL_Driver/Src/stm32l1xx_hal_flash.c ****     [..]
 586:Drivers/STM32L1xx_HAL_Driver/Src/stm32l1xx_hal_flash.c ****     This subsection permit to get in run-time errors of  the FLASH peripheral.
 587:Drivers/STM32L1xx_HAL_Driver/Src/stm32l1xx_hal_flash.c **** 
 588:Drivers/STM32L1xx_HAL_Driver/Src/stm32l1xx_hal_flash.c **** @endverbatim
 589:Drivers/STM32L1xx_HAL_Driver/Src/stm32l1xx_hal_flash.c ****   * @{
 590:Drivers/STM32L1xx_HAL_Driver/Src/stm32l1xx_hal_flash.c ****   */
 591:Drivers/STM32L1xx_HAL_Driver/Src/stm32l1xx_hal_flash.c **** 
 592:Drivers/STM32L1xx_HAL_Driver/Src/stm32l1xx_hal_flash.c **** /**
 593:Drivers/STM32L1xx_HAL_Driver/Src/stm32l1xx_hal_flash.c ****   * @brief  Get the specific FLASH error flag.
 594:Drivers/STM32L1xx_HAL_Driver/Src/stm32l1xx_hal_flash.c ****   * @retval FLASH_ErrorCode The returned value can be:
 595:Drivers/STM32L1xx_HAL_Driver/Src/stm32l1xx_hal_flash.c ****   *            @ref FLASH_Error_Codes
 596:Drivers/STM32L1xx_HAL_Driver/Src/stm32l1xx_hal_flash.c ****   */
 597:Drivers/STM32L1xx_HAL_Driver/Src/stm32l1xx_hal_flash.c **** uint32_t HAL_FLASH_GetError(void)
 598:Drivers/STM32L1xx_HAL_Driver/Src/stm32l1xx_hal_flash.c **** {
 599:Drivers/STM32L1xx_HAL_Driver/Src/stm32l1xx_hal_flash.c ****    return pFlash.ErrorCode;
 600:Drivers/STM32L1xx_HAL_Driver/Src/stm32l1xx_hal_flash.c **** }
 601:Drivers/STM32L1xx_HAL_Driver/Src/stm32l1xx_hal_flash.c **** 
 602:Drivers/STM32L1xx_HAL_Driver/Src/stm32l1xx_hal_flash.c **** /**
 603:Drivers/STM32L1xx_HAL_Driver/Src/stm32l1xx_hal_flash.c ****   * @}
ARM GAS  C:\Users\marce\AppData\Local\Temp\cckSIbNd.s 			page 12


 604:Drivers/STM32L1xx_HAL_Driver/Src/stm32l1xx_hal_flash.c ****   */
 605:Drivers/STM32L1xx_HAL_Driver/Src/stm32l1xx_hal_flash.c **** 
 606:Drivers/STM32L1xx_HAL_Driver/Src/stm32l1xx_hal_flash.c **** /**
 607:Drivers/STM32L1xx_HAL_Driver/Src/stm32l1xx_hal_flash.c ****   * @}
 608:Drivers/STM32L1xx_HAL_Driver/Src/stm32l1xx_hal_flash.c ****   */
 609:Drivers/STM32L1xx_HAL_Driver/Src/stm32l1xx_hal_flash.c **** 
 610:Drivers/STM32L1xx_HAL_Driver/Src/stm32l1xx_hal_flash.c **** /** @addtogroup FLASH_Private_Functions
 611:Drivers/STM32L1xx_HAL_Driver/Src/stm32l1xx_hal_flash.c ****  * @{
 612:Drivers/STM32L1xx_HAL_Driver/Src/stm32l1xx_hal_flash.c ****  */
 613:Drivers/STM32L1xx_HAL_Driver/Src/stm32l1xx_hal_flash.c **** 
 614:Drivers/STM32L1xx_HAL_Driver/Src/stm32l1xx_hal_flash.c **** /**
 615:Drivers/STM32L1xx_HAL_Driver/Src/stm32l1xx_hal_flash.c ****   * @brief  Wait for a FLASH operation to complete.
 616:Drivers/STM32L1xx_HAL_Driver/Src/stm32l1xx_hal_flash.c ****   * @param  Timeout  maximum flash operation timeout
 617:Drivers/STM32L1xx_HAL_Driver/Src/stm32l1xx_hal_flash.c ****   * @retval HAL Status
 618:Drivers/STM32L1xx_HAL_Driver/Src/stm32l1xx_hal_flash.c ****   */
 619:Drivers/STM32L1xx_HAL_Driver/Src/stm32l1xx_hal_flash.c **** HAL_StatusTypeDef FLASH_WaitForLastOperation(uint32_t Timeout)
 620:Drivers/STM32L1xx_HAL_Driver/Src/stm32l1xx_hal_flash.c **** {
 621:Drivers/STM32L1xx_HAL_Driver/Src/stm32l1xx_hal_flash.c ****   /* Wait for the FLASH operation to complete by polling on BUSY flag to be reset.
 622:Drivers/STM32L1xx_HAL_Driver/Src/stm32l1xx_hal_flash.c ****      Even if the FLASH operation fails, the BUSY flag will be reset and an error
 623:Drivers/STM32L1xx_HAL_Driver/Src/stm32l1xx_hal_flash.c ****      flag will be set */
 624:Drivers/STM32L1xx_HAL_Driver/Src/stm32l1xx_hal_flash.c ****      
 625:Drivers/STM32L1xx_HAL_Driver/Src/stm32l1xx_hal_flash.c ****   uint32_t tickstart = HAL_GetTick();
 626:Drivers/STM32L1xx_HAL_Driver/Src/stm32l1xx_hal_flash.c ****      
 627:Drivers/STM32L1xx_HAL_Driver/Src/stm32l1xx_hal_flash.c ****   while(__HAL_FLASH_GET_FLAG(FLASH_FLAG_BSY)) 
 628:Drivers/STM32L1xx_HAL_Driver/Src/stm32l1xx_hal_flash.c ****   { 
 629:Drivers/STM32L1xx_HAL_Driver/Src/stm32l1xx_hal_flash.c ****     if (Timeout != HAL_MAX_DELAY)
 630:Drivers/STM32L1xx_HAL_Driver/Src/stm32l1xx_hal_flash.c ****     {
 631:Drivers/STM32L1xx_HAL_Driver/Src/stm32l1xx_hal_flash.c ****       if((Timeout == 0U) || ((HAL_GetTick()-tickstart) > Timeout))
 632:Drivers/STM32L1xx_HAL_Driver/Src/stm32l1xx_hal_flash.c ****       {
 633:Drivers/STM32L1xx_HAL_Driver/Src/stm32l1xx_hal_flash.c ****         return HAL_TIMEOUT;
 634:Drivers/STM32L1xx_HAL_Driver/Src/stm32l1xx_hal_flash.c ****       }
 635:Drivers/STM32L1xx_HAL_Driver/Src/stm32l1xx_hal_flash.c ****     }
 636:Drivers/STM32L1xx_HAL_Driver/Src/stm32l1xx_hal_flash.c ****   }
 637:Drivers/STM32L1xx_HAL_Driver/Src/stm32l1xx_hal_flash.c ****   
 638:Drivers/STM32L1xx_HAL_Driver/Src/stm32l1xx_hal_flash.c ****   /* Check FLASH End of Operation flag  */
 639:Drivers/STM32L1xx_HAL_Driver/Src/stm32l1xx_hal_flash.c ****   if (__HAL_FLASH_GET_FLAG(FLASH_FLAG_EOP))
 640:Drivers/STM32L1xx_HAL_Driver/Src/stm32l1xx_hal_flash.c ****   {
 641:Drivers/STM32L1xx_HAL_Driver/Src/stm32l1xx_hal_flash.c ****     /* Clear FLASH End of Operation pending bit */
 642:Drivers/STM32L1xx_HAL_Driver/Src/stm32l1xx_hal_flash.c ****     __HAL_FLASH_CLEAR_FLAG(FLASH_FLAG_EOP);
 643:Drivers/STM32L1xx_HAL_Driver/Src/stm32l1xx_hal_flash.c ****   }
 644:Drivers/STM32L1xx_HAL_Driver/Src/stm32l1xx_hal_flash.c ****   
 645:Drivers/STM32L1xx_HAL_Driver/Src/stm32l1xx_hal_flash.c ****   if(__HAL_FLASH_GET_FLAG(FLASH_FLAG_WRPERR)  || 
 646:Drivers/STM32L1xx_HAL_Driver/Src/stm32l1xx_hal_flash.c ****      __HAL_FLASH_GET_FLAG(FLASH_FLAG_OPTVERR) || 
 647:Drivers/STM32L1xx_HAL_Driver/Src/stm32l1xx_hal_flash.c **** #if defined(FLASH_SR_RDERR)
 648:Drivers/STM32L1xx_HAL_Driver/Src/stm32l1xx_hal_flash.c ****       __HAL_FLASH_GET_FLAG(FLASH_FLAG_RDERR) || 
 649:Drivers/STM32L1xx_HAL_Driver/Src/stm32l1xx_hal_flash.c **** #endif /* FLASH_SR_RDERR */
 650:Drivers/STM32L1xx_HAL_Driver/Src/stm32l1xx_hal_flash.c **** #if defined(FLASH_SR_OPTVERRUSR)
 651:Drivers/STM32L1xx_HAL_Driver/Src/stm32l1xx_hal_flash.c ****       __HAL_FLASH_GET_FLAG(FLASH_FLAG_OPTVERRUSR) || 
 652:Drivers/STM32L1xx_HAL_Driver/Src/stm32l1xx_hal_flash.c **** #endif /* FLASH_SR_OPTVERRUSR */
 653:Drivers/STM32L1xx_HAL_Driver/Src/stm32l1xx_hal_flash.c ****      __HAL_FLASH_GET_FLAG(FLASH_FLAG_SIZERR) || 
 654:Drivers/STM32L1xx_HAL_Driver/Src/stm32l1xx_hal_flash.c ****      __HAL_FLASH_GET_FLAG(FLASH_FLAG_PGAERR))
 655:Drivers/STM32L1xx_HAL_Driver/Src/stm32l1xx_hal_flash.c ****   {
 656:Drivers/STM32L1xx_HAL_Driver/Src/stm32l1xx_hal_flash.c ****     /*Save the error code*/
 657:Drivers/STM32L1xx_HAL_Driver/Src/stm32l1xx_hal_flash.c ****     FLASH_SetErrorCode();
 658:Drivers/STM32L1xx_HAL_Driver/Src/stm32l1xx_hal_flash.c ****     return HAL_ERROR;
 659:Drivers/STM32L1xx_HAL_Driver/Src/stm32l1xx_hal_flash.c ****   }
 660:Drivers/STM32L1xx_HAL_Driver/Src/stm32l1xx_hal_flash.c **** 
ARM GAS  C:\Users\marce\AppData\Local\Temp\cckSIbNd.s 			page 13


 661:Drivers/STM32L1xx_HAL_Driver/Src/stm32l1xx_hal_flash.c ****   /* There is no error flag set */
 662:Drivers/STM32L1xx_HAL_Driver/Src/stm32l1xx_hal_flash.c ****   return HAL_OK;
 663:Drivers/STM32L1xx_HAL_Driver/Src/stm32l1xx_hal_flash.c **** }
 664:Drivers/STM32L1xx_HAL_Driver/Src/stm32l1xx_hal_flash.c **** 
 665:Drivers/STM32L1xx_HAL_Driver/Src/stm32l1xx_hal_flash.c **** 
 666:Drivers/STM32L1xx_HAL_Driver/Src/stm32l1xx_hal_flash.c **** /**
 667:Drivers/STM32L1xx_HAL_Driver/Src/stm32l1xx_hal_flash.c ****   * @brief  Set the specific FLASH error flag.
 668:Drivers/STM32L1xx_HAL_Driver/Src/stm32l1xx_hal_flash.c ****   * @retval None
 669:Drivers/STM32L1xx_HAL_Driver/Src/stm32l1xx_hal_flash.c ****   */
 670:Drivers/STM32L1xx_HAL_Driver/Src/stm32l1xx_hal_flash.c **** static void FLASH_SetErrorCode(void)
 671:Drivers/STM32L1xx_HAL_Driver/Src/stm32l1xx_hal_flash.c **** {
  26              		.loc 1 671 1 view -0
  27              		.cfi_startproc
  28              		@ args = 0, pretend = 0, frame = 0
  29              		@ frame_needed = 0, uses_anonymous_args = 0
  30              		@ link register save eliminated.
 672:Drivers/STM32L1xx_HAL_Driver/Src/stm32l1xx_hal_flash.c ****   uint32_t flags = 0U;
  31              		.loc 1 672 3 view .LVU1
  32              	.LVL0:
 673:Drivers/STM32L1xx_HAL_Driver/Src/stm32l1xx_hal_flash.c ****   
 674:Drivers/STM32L1xx_HAL_Driver/Src/stm32l1xx_hal_flash.c ****   if(__HAL_FLASH_GET_FLAG(FLASH_FLAG_WRPERR))
  33              		.loc 1 674 3 view .LVU2
  34              		.loc 1 674 6 is_stmt 0 view .LVU3
  35 0000 1F4B     		ldr	r3, .L7
  36 0002 9B69     		ldr	r3, [r3, #24]
  37              		.loc 1 674 5 view .LVU4
  38 0004 13F48073 		ands	r3, r3, #256
  39 0008 06D0     		beq	.L2
 675:Drivers/STM32L1xx_HAL_Driver/Src/stm32l1xx_hal_flash.c ****   {
 676:Drivers/STM32L1xx_HAL_Driver/Src/stm32l1xx_hal_flash.c ****     pFlash.ErrorCode |= HAL_FLASH_ERROR_WRP;
  40              		.loc 1 676 5 is_stmt 1 view .LVU5
  41              		.loc 1 676 22 is_stmt 0 view .LVU6
  42 000a 1E4A     		ldr	r2, .L7+4
  43 000c 5369     		ldr	r3, [r2, #20]
  44 000e 43F00203 		orr	r3, r3, #2
  45 0012 5361     		str	r3, [r2, #20]
 677:Drivers/STM32L1xx_HAL_Driver/Src/stm32l1xx_hal_flash.c ****     flags |= FLASH_FLAG_WRPERR;
  46              		.loc 1 677 5 is_stmt 1 view .LVU7
  47              	.LVL1:
  48              		.loc 1 677 11 is_stmt 0 view .LVU8
  49 0014 4FF48073 		mov	r3, #256
  50              	.LVL2:
  51              	.L2:
 678:Drivers/STM32L1xx_HAL_Driver/Src/stm32l1xx_hal_flash.c ****   }
 679:Drivers/STM32L1xx_HAL_Driver/Src/stm32l1xx_hal_flash.c ****   if(__HAL_FLASH_GET_FLAG(FLASH_FLAG_PGAERR))
  52              		.loc 1 679 3 is_stmt 1 view .LVU9
  53              		.loc 1 679 6 is_stmt 0 view .LVU10
  54 0018 194A     		ldr	r2, .L7
  55 001a 9269     		ldr	r2, [r2, #24]
  56              		.loc 1 679 5 view .LVU11
  57 001c 12F4007F 		tst	r2, #512
  58 0020 06D0     		beq	.L3
 680:Drivers/STM32L1xx_HAL_Driver/Src/stm32l1xx_hal_flash.c ****   {
 681:Drivers/STM32L1xx_HAL_Driver/Src/stm32l1xx_hal_flash.c ****     pFlash.ErrorCode |= HAL_FLASH_ERROR_PGA;
  59              		.loc 1 681 5 is_stmt 1 view .LVU12
  60              		.loc 1 681 22 is_stmt 0 view .LVU13
  61 0022 1849     		ldr	r1, .L7+4
ARM GAS  C:\Users\marce\AppData\Local\Temp\cckSIbNd.s 			page 14


  62 0024 4A69     		ldr	r2, [r1, #20]
  63 0026 42F00102 		orr	r2, r2, #1
  64 002a 4A61     		str	r2, [r1, #20]
 682:Drivers/STM32L1xx_HAL_Driver/Src/stm32l1xx_hal_flash.c ****     flags |= FLASH_FLAG_PGAERR;
  65              		.loc 1 682 5 is_stmt 1 view .LVU14
  66              		.loc 1 682 11 is_stmt 0 view .LVU15
  67 002c 43F40073 		orr	r3, r3, #512
  68              	.LVL3:
  69              	.L3:
 683:Drivers/STM32L1xx_HAL_Driver/Src/stm32l1xx_hal_flash.c ****   }
 684:Drivers/STM32L1xx_HAL_Driver/Src/stm32l1xx_hal_flash.c ****   if(__HAL_FLASH_GET_FLAG(FLASH_FLAG_OPTVERR))
  70              		.loc 1 684 3 is_stmt 1 view .LVU16
  71              		.loc 1 684 6 is_stmt 0 view .LVU17
  72 0030 134A     		ldr	r2, .L7
  73 0032 9269     		ldr	r2, [r2, #24]
  74              		.loc 1 684 5 view .LVU18
  75 0034 12F4006F 		tst	r2, #2048
  76 0038 06D0     		beq	.L4
 685:Drivers/STM32L1xx_HAL_Driver/Src/stm32l1xx_hal_flash.c ****   {
 686:Drivers/STM32L1xx_HAL_Driver/Src/stm32l1xx_hal_flash.c ****     pFlash.ErrorCode |= HAL_FLASH_ERROR_OPTV;
  77              		.loc 1 686 5 is_stmt 1 view .LVU19
  78              		.loc 1 686 22 is_stmt 0 view .LVU20
  79 003a 1249     		ldr	r1, .L7+4
  80 003c 4A69     		ldr	r2, [r1, #20]
  81 003e 42F00402 		orr	r2, r2, #4
  82 0042 4A61     		str	r2, [r1, #20]
 687:Drivers/STM32L1xx_HAL_Driver/Src/stm32l1xx_hal_flash.c ****     flags |= FLASH_FLAG_OPTVERR;
  83              		.loc 1 687 5 is_stmt 1 view .LVU21
  84              		.loc 1 687 11 is_stmt 0 view .LVU22
  85 0044 43F40063 		orr	r3, r3, #2048
  86              	.LVL4:
  87              	.L4:
 688:Drivers/STM32L1xx_HAL_Driver/Src/stm32l1xx_hal_flash.c ****   }
 689:Drivers/STM32L1xx_HAL_Driver/Src/stm32l1xx_hal_flash.c **** 
 690:Drivers/STM32L1xx_HAL_Driver/Src/stm32l1xx_hal_flash.c **** #if defined(FLASH_SR_RDERR)
 691:Drivers/STM32L1xx_HAL_Driver/Src/stm32l1xx_hal_flash.c ****   if(__HAL_FLASH_GET_FLAG(FLASH_FLAG_RDERR))
 692:Drivers/STM32L1xx_HAL_Driver/Src/stm32l1xx_hal_flash.c ****   {
 693:Drivers/STM32L1xx_HAL_Driver/Src/stm32l1xx_hal_flash.c ****     pFlash.ErrorCode |= HAL_FLASH_ERROR_RD;
 694:Drivers/STM32L1xx_HAL_Driver/Src/stm32l1xx_hal_flash.c ****     flags |= FLASH_FLAG_RDERR;
 695:Drivers/STM32L1xx_HAL_Driver/Src/stm32l1xx_hal_flash.c ****   }
 696:Drivers/STM32L1xx_HAL_Driver/Src/stm32l1xx_hal_flash.c **** #endif /* FLASH_SR_RDERR */
 697:Drivers/STM32L1xx_HAL_Driver/Src/stm32l1xx_hal_flash.c **** #if defined(FLASH_SR_OPTVERRUSR)
 698:Drivers/STM32L1xx_HAL_Driver/Src/stm32l1xx_hal_flash.c ****   if(__HAL_FLASH_GET_FLAG(FLASH_FLAG_OPTVERRUSR))
  88              		.loc 1 698 3 is_stmt 1 view .LVU23
  89              		.loc 1 698 6 is_stmt 0 view .LVU24
  90 0048 0D4A     		ldr	r2, .L7
  91 004a 9269     		ldr	r2, [r2, #24]
  92              		.loc 1 698 5 view .LVU25
  93 004c 12F4805F 		tst	r2, #4096
  94 0050 06D0     		beq	.L5
 699:Drivers/STM32L1xx_HAL_Driver/Src/stm32l1xx_hal_flash.c ****   {
 700:Drivers/STM32L1xx_HAL_Driver/Src/stm32l1xx_hal_flash.c ****     pFlash.ErrorCode |= HAL_FLASH_ERROR_OPTVUSR;
  95              		.loc 1 700 5 is_stmt 1 view .LVU26
  96              		.loc 1 700 22 is_stmt 0 view .LVU27
  97 0052 0C49     		ldr	r1, .L7+4
  98 0054 4A69     		ldr	r2, [r1, #20]
  99 0056 42F02002 		orr	r2, r2, #32
ARM GAS  C:\Users\marce\AppData\Local\Temp\cckSIbNd.s 			page 15


 100 005a 4A61     		str	r2, [r1, #20]
 701:Drivers/STM32L1xx_HAL_Driver/Src/stm32l1xx_hal_flash.c ****     flags |= FLASH_FLAG_OPTVERRUSR;
 101              		.loc 1 701 5 is_stmt 1 view .LVU28
 102              		.loc 1 701 11 is_stmt 0 view .LVU29
 103 005c 43F48053 		orr	r3, r3, #4096
 104              	.LVL5:
 105              	.L5:
 702:Drivers/STM32L1xx_HAL_Driver/Src/stm32l1xx_hal_flash.c ****   }
 703:Drivers/STM32L1xx_HAL_Driver/Src/stm32l1xx_hal_flash.c **** #endif /* FLASH_SR_OPTVERRUSR */
 704:Drivers/STM32L1xx_HAL_Driver/Src/stm32l1xx_hal_flash.c ****   if(__HAL_FLASH_GET_FLAG(FLASH_FLAG_SIZERR))
 106              		.loc 1 704 3 is_stmt 1 view .LVU30
 107              		.loc 1 704 6 is_stmt 0 view .LVU31
 108 0060 074A     		ldr	r2, .L7
 109 0062 9269     		ldr	r2, [r2, #24]
 110              		.loc 1 704 5 view .LVU32
 111 0064 12F4806F 		tst	r2, #1024
 112 0068 06D0     		beq	.L6
 705:Drivers/STM32L1xx_HAL_Driver/Src/stm32l1xx_hal_flash.c ****   {
 706:Drivers/STM32L1xx_HAL_Driver/Src/stm32l1xx_hal_flash.c ****     pFlash.ErrorCode |= HAL_FLASH_ERROR_SIZE;
 113              		.loc 1 706 5 is_stmt 1 view .LVU33
 114              		.loc 1 706 22 is_stmt 0 view .LVU34
 115 006a 0649     		ldr	r1, .L7+4
 116 006c 4A69     		ldr	r2, [r1, #20]
 117 006e 42F00802 		orr	r2, r2, #8
 118 0072 4A61     		str	r2, [r1, #20]
 707:Drivers/STM32L1xx_HAL_Driver/Src/stm32l1xx_hal_flash.c ****     flags |= FLASH_FLAG_SIZERR;
 119              		.loc 1 707 5 is_stmt 1 view .LVU35
 120              		.loc 1 707 11 is_stmt 0 view .LVU36
 121 0074 43F48063 		orr	r3, r3, #1024
 122              	.LVL6:
 123              	.L6:
 708:Drivers/STM32L1xx_HAL_Driver/Src/stm32l1xx_hal_flash.c ****   }
 709:Drivers/STM32L1xx_HAL_Driver/Src/stm32l1xx_hal_flash.c ****   /* Clear FLASH error pending bits */
 710:Drivers/STM32L1xx_HAL_Driver/Src/stm32l1xx_hal_flash.c ****   __HAL_FLASH_CLEAR_FLAG(flags);
 124              		.loc 1 710 3 is_stmt 1 view .LVU37
 125 0078 014A     		ldr	r2, .L7
 126 007a 9361     		str	r3, [r2, #24]
 711:Drivers/STM32L1xx_HAL_Driver/Src/stm32l1xx_hal_flash.c **** }
 127              		.loc 1 711 1 is_stmt 0 view .LVU38
 128 007c 7047     		bx	lr
 129              	.L8:
 130 007e 00BF     		.align	2
 131              	.L7:
 132 0080 003C0240 		.word	1073888256
 133 0084 00000000 		.word	.LANCHOR0
 134              		.cfi_endproc
 135              	.LFE84:
 137              		.section	.text.HAL_FLASH_Program_IT,"ax",%progbits
 138              		.align	1
 139              		.global	HAL_FLASH_Program_IT
 140              		.syntax unified
 141              		.thumb
 142              		.thumb_func
 144              	HAL_FLASH_Program_IT:
 145              	.LVL7:
 146              	.LFB73:
 274:Drivers/STM32L1xx_HAL_Driver/Src/stm32l1xx_hal_flash.c ****   HAL_StatusTypeDef status = HAL_OK;
ARM GAS  C:\Users\marce\AppData\Local\Temp\cckSIbNd.s 			page 16


 147              		.loc 1 274 1 is_stmt 1 view -0
 148              		.cfi_startproc
 149              		@ args = 0, pretend = 0, frame = 0
 150              		@ frame_needed = 0, uses_anonymous_args = 0
 151              		@ link register save eliminated.
 275:Drivers/STM32L1xx_HAL_Driver/Src/stm32l1xx_hal_flash.c ****   
 152              		.loc 1 275 3 view .LVU40
 278:Drivers/STM32L1xx_HAL_Driver/Src/stm32l1xx_hal_flash.c **** 
 153              		.loc 1 278 3 view .LVU41
 278:Drivers/STM32L1xx_HAL_Driver/Src/stm32l1xx_hal_flash.c **** 
 154              		.loc 1 278 3 view .LVU42
 155 0000 0D4B     		ldr	r3, .L18
 156 0002 1B7C     		ldrb	r3, [r3, #16]	@ zero_extendqisi2
 157 0004 012B     		cmp	r3, #1
 158 0006 15D0     		beq	.L11
 274:Drivers/STM32L1xx_HAL_Driver/Src/stm32l1xx_hal_flash.c ****   HAL_StatusTypeDef status = HAL_OK;
 159              		.loc 1 274 1 is_stmt 0 discriminator 2 view .LVU43
 160 0008 30B4     		push	{r4, r5}
 161              	.LCFI0:
 162              		.cfi_def_cfa_offset 8
 163              		.cfi_offset 4, -8
 164              		.cfi_offset 5, -4
 278:Drivers/STM32L1xx_HAL_Driver/Src/stm32l1xx_hal_flash.c **** 
 165              		.loc 1 278 3 is_stmt 1 discriminator 2 view .LVU44
 166 000a 0B4B     		ldr	r3, .L18
 167 000c 0124     		movs	r4, #1
 168 000e 1C74     		strb	r4, [r3, #16]
 278:Drivers/STM32L1xx_HAL_Driver/Src/stm32l1xx_hal_flash.c **** 
 169              		.loc 1 278 3 discriminator 2 view .LVU45
 281:Drivers/STM32L1xx_HAL_Driver/Src/stm32l1xx_hal_flash.c ****   assert_param(IS_FLASH_PROGRAM_ADDRESS(Address));
 170              		.loc 1 281 3 discriminator 2 view .LVU46
 282:Drivers/STM32L1xx_HAL_Driver/Src/stm32l1xx_hal_flash.c **** 
 171              		.loc 1 282 3 discriminator 2 view .LVU47
 285:Drivers/STM32L1xx_HAL_Driver/Src/stm32l1xx_hal_flash.c ****   
 172              		.loc 1 285 3 discriminator 2 view .LVU48
 173 0010 0A4D     		ldr	r5, .L18+4
 174 0012 6C68     		ldr	r4, [r5, #4]
 175 0014 44F44034 		orr	r4, r4, #196608
 176 0018 6C60     		str	r4, [r5, #4]
 287:Drivers/STM32L1xx_HAL_Driver/Src/stm32l1xx_hal_flash.c ****   pFlash.ProcedureOnGoing = FLASH_PROC_PROGRAM;
 177              		.loc 1 287 3 discriminator 2 view .LVU49
 287:Drivers/STM32L1xx_HAL_Driver/Src/stm32l1xx_hal_flash.c ****   pFlash.ProcedureOnGoing = FLASH_PROC_PROGRAM;
 178              		.loc 1 287 18 is_stmt 0 discriminator 2 view .LVU50
 179 001a 9960     		str	r1, [r3, #8]
 288:Drivers/STM32L1xx_HAL_Driver/Src/stm32l1xx_hal_flash.c ****   /* Clean the error context */
 180              		.loc 1 288 3 is_stmt 1 discriminator 2 view .LVU51
 288:Drivers/STM32L1xx_HAL_Driver/Src/stm32l1xx_hal_flash.c ****   /* Clean the error context */
 181              		.loc 1 288 27 is_stmt 0 discriminator 2 view .LVU52
 182 001c 0224     		movs	r4, #2
 183 001e 1C70     		strb	r4, [r3]
 290:Drivers/STM32L1xx_HAL_Driver/Src/stm32l1xx_hal_flash.c **** 
 184              		.loc 1 290 3 is_stmt 1 discriminator 2 view .LVU53
 290:Drivers/STM32L1xx_HAL_Driver/Src/stm32l1xx_hal_flash.c **** 
 185              		.loc 1 290 20 is_stmt 0 discriminator 2 view .LVU54
 186 0020 0024     		movs	r4, #0
 187 0022 5C61     		str	r4, [r3, #20]
 292:Drivers/STM32L1xx_HAL_Driver/Src/stm32l1xx_hal_flash.c ****   {
ARM GAS  C:\Users\marce\AppData\Local\Temp\cckSIbNd.s 			page 17


 188              		.loc 1 292 3 is_stmt 1 discriminator 2 view .LVU55
 292:Drivers/STM32L1xx_HAL_Driver/Src/stm32l1xx_hal_flash.c ****   {
 189              		.loc 1 292 5 is_stmt 0 discriminator 2 view .LVU56
 190 0024 0228     		cmp	r0, #2
 191 0026 02D0     		beq	.L17
 297:Drivers/STM32L1xx_HAL_Driver/Src/stm32l1xx_hal_flash.c **** }
 192              		.loc 1 297 10 view .LVU57
 193 0028 0020     		movs	r0, #0
 194              	.LVL8:
 195              	.L10:
 298:Drivers/STM32L1xx_HAL_Driver/Src/stm32l1xx_hal_flash.c **** 
 196              		.loc 1 298 1 view .LVU58
 197 002a 30BC     		pop	{r4, r5}
 198              	.LCFI1:
 199              		.cfi_remember_state
 200              		.cfi_restore 5
 201              		.cfi_restore 4
 202              		.cfi_def_cfa_offset 0
 203 002c 7047     		bx	lr
 204              	.LVL9:
 205              	.L17:
 206              	.LCFI2:
 207              		.cfi_restore_state
 295:Drivers/STM32L1xx_HAL_Driver/Src/stm32l1xx_hal_flash.c ****   }
 208              		.loc 1 295 5 is_stmt 1 view .LVU59
 295:Drivers/STM32L1xx_HAL_Driver/Src/stm32l1xx_hal_flash.c ****   }
 209              		.loc 1 295 31 is_stmt 0 view .LVU60
 210 002e 0A60     		str	r2, [r1]
 297:Drivers/STM32L1xx_HAL_Driver/Src/stm32l1xx_hal_flash.c **** }
 211              		.loc 1 297 10 view .LVU61
 212 0030 2046     		mov	r0, r4
 213              	.LVL10:
 297:Drivers/STM32L1xx_HAL_Driver/Src/stm32l1xx_hal_flash.c **** }
 214              		.loc 1 297 10 view .LVU62
 215 0032 FAE7     		b	.L10
 216              	.LVL11:
 217              	.L11:
 218              	.LCFI3:
 219              		.cfi_def_cfa_offset 0
 220              		.cfi_restore 4
 221              		.cfi_restore 5
 278:Drivers/STM32L1xx_HAL_Driver/Src/stm32l1xx_hal_flash.c **** 
 222              		.loc 1 278 3 view .LVU63
 223 0034 0220     		movs	r0, #2
 224              	.LVL12:
 298:Drivers/STM32L1xx_HAL_Driver/Src/stm32l1xx_hal_flash.c **** 
 225              		.loc 1 298 1 view .LVU64
 226 0036 7047     		bx	lr
 227              	.L19:
 228              		.align	2
 229              	.L18:
 230 0038 00000000 		.word	.LANCHOR0
 231 003c 003C0240 		.word	1073888256
 232              		.cfi_endproc
 233              	.LFE73:
 235              		.section	.text.HAL_FLASH_EndOfOperationCallback,"ax",%progbits
 236              		.align	1
ARM GAS  C:\Users\marce\AppData\Local\Temp\cckSIbNd.s 			page 18


 237              		.weak	HAL_FLASH_EndOfOperationCallback
 238              		.syntax unified
 239              		.thumb
 240              		.thumb_func
 242              	HAL_FLASH_EndOfOperationCallback:
 243              	.LVL13:
 244              	.LFB75:
 420:Drivers/STM32L1xx_HAL_Driver/Src/stm32l1xx_hal_flash.c ****   /* Prevent unused argument(s) compilation warning */
 245              		.loc 1 420 1 is_stmt 1 view -0
 246              		.cfi_startproc
 247              		@ args = 0, pretend = 0, frame = 0
 248              		@ frame_needed = 0, uses_anonymous_args = 0
 249              		@ link register save eliminated.
 422:Drivers/STM32L1xx_HAL_Driver/Src/stm32l1xx_hal_flash.c **** 
 250              		.loc 1 422 3 view .LVU66
 427:Drivers/STM32L1xx_HAL_Driver/Src/stm32l1xx_hal_flash.c **** 
 251              		.loc 1 427 1 is_stmt 0 view .LVU67
 252 0000 7047     		bx	lr
 253              		.cfi_endproc
 254              	.LFE75:
 256              		.section	.text.HAL_FLASH_OperationErrorCallback,"ax",%progbits
 257              		.align	1
 258              		.weak	HAL_FLASH_OperationErrorCallback
 259              		.syntax unified
 260              		.thumb
 261              		.thumb_func
 263              	HAL_FLASH_OperationErrorCallback:
 264              	.LVL14:
 265              	.LFB76:
 437:Drivers/STM32L1xx_HAL_Driver/Src/stm32l1xx_hal_flash.c ****   /* Prevent unused argument(s) compilation warning */
 266              		.loc 1 437 1 is_stmt 1 view -0
 267              		.cfi_startproc
 268              		@ args = 0, pretend = 0, frame = 0
 269              		@ frame_needed = 0, uses_anonymous_args = 0
 270              		@ link register save eliminated.
 439:Drivers/STM32L1xx_HAL_Driver/Src/stm32l1xx_hal_flash.c **** 
 271              		.loc 1 439 3 view .LVU69
 444:Drivers/STM32L1xx_HAL_Driver/Src/stm32l1xx_hal_flash.c **** 
 272              		.loc 1 444 1 is_stmt 0 view .LVU70
 273 0000 7047     		bx	lr
 274              		.cfi_endproc
 275              	.LFE76:
 277              		.section	.text.HAL_FLASH_IRQHandler,"ax",%progbits
 278              		.align	1
 279              		.global	HAL_FLASH_IRQHandler
 280              		.syntax unified
 281              		.thumb
 282              		.thumb_func
 284              	HAL_FLASH_IRQHandler:
 285              	.LFB74:
 305:Drivers/STM32L1xx_HAL_Driver/Src/stm32l1xx_hal_flash.c ****   uint32_t addresstmp = 0U;
 286              		.loc 1 305 1 is_stmt 1 view -0
 287              		.cfi_startproc
 288              		@ args = 0, pretend = 0, frame = 0
 289              		@ frame_needed = 0, uses_anonymous_args = 0
 290 0000 10B5     		push	{r4, lr}
 291              	.LCFI4:
ARM GAS  C:\Users\marce\AppData\Local\Temp\cckSIbNd.s 			page 19


 292              		.cfi_def_cfa_offset 8
 293              		.cfi_offset 4, -8
 294              		.cfi_offset 14, -4
 306:Drivers/STM32L1xx_HAL_Driver/Src/stm32l1xx_hal_flash.c ****   
 295              		.loc 1 306 3 view .LVU72
 296              	.LVL15:
 309:Drivers/STM32L1xx_HAL_Driver/Src/stm32l1xx_hal_flash.c ****       __HAL_FLASH_GET_FLAG(FLASH_FLAG_PGAERR)     || 
 297              		.loc 1 309 3 view .LVU73
 309:Drivers/STM32L1xx_HAL_Driver/Src/stm32l1xx_hal_flash.c ****       __HAL_FLASH_GET_FLAG(FLASH_FLAG_PGAERR)     || 
 298              		.loc 1 309 7 is_stmt 0 view .LVU74
 299 0002 3E4B     		ldr	r3, .L33
 300 0004 9B69     		ldr	r3, [r3, #24]
 309:Drivers/STM32L1xx_HAL_Driver/Src/stm32l1xx_hal_flash.c ****       __HAL_FLASH_GET_FLAG(FLASH_FLAG_PGAERR)     || 
 301              		.loc 1 309 5 view .LVU75
 302 0006 13F4807F 		tst	r3, #256
 303 000a 13D1     		bne	.L23
 310:Drivers/STM32L1xx_HAL_Driver/Src/stm32l1xx_hal_flash.c ****       __HAL_FLASH_GET_FLAG(FLASH_FLAG_SIZERR)     || 
 304              		.loc 1 310 7 discriminator 1 view .LVU76
 305 000c 3B4B     		ldr	r3, .L33
 306 000e 9B69     		ldr	r3, [r3, #24]
 309:Drivers/STM32L1xx_HAL_Driver/Src/stm32l1xx_hal_flash.c ****       __HAL_FLASH_GET_FLAG(FLASH_FLAG_PGAERR)     || 
 307              		.loc 1 309 51 discriminator 1 view .LVU77
 308 0010 13F4007F 		tst	r3, #512
 309 0014 0ED1     		bne	.L23
 311:Drivers/STM32L1xx_HAL_Driver/Src/stm32l1xx_hal_flash.c **** #if defined(FLASH_SR_RDERR)
 310              		.loc 1 311 7 view .LVU78
 311 0016 394B     		ldr	r3, .L33
 312 0018 9B69     		ldr	r3, [r3, #24]
 310:Drivers/STM32L1xx_HAL_Driver/Src/stm32l1xx_hal_flash.c ****       __HAL_FLASH_GET_FLAG(FLASH_FLAG_SIZERR)     || 
 313              		.loc 1 310 51 view .LVU79
 314 001a 13F4806F 		tst	r3, #1024
 315 001e 09D1     		bne	.L23
 316:Drivers/STM32L1xx_HAL_Driver/Src/stm32l1xx_hal_flash.c **** #endif /* FLASH_SR_OPTVERRUSR */
 316              		.loc 1 316 7 view .LVU80
 317 0020 364B     		ldr	r3, .L33
 318 0022 9B69     		ldr	r3, [r3, #24]
 311:Drivers/STM32L1xx_HAL_Driver/Src/stm32l1xx_hal_flash.c **** #if defined(FLASH_SR_RDERR)
 319              		.loc 1 311 51 view .LVU81
 320 0024 13F4805F 		tst	r3, #4096
 321 0028 04D1     		bne	.L23
 318:Drivers/STM32L1xx_HAL_Driver/Src/stm32l1xx_hal_flash.c ****   {
 322              		.loc 1 318 7 view .LVU82
 323 002a 344B     		ldr	r3, .L33
 324 002c 9B69     		ldr	r3, [r3, #24]
 316:Drivers/STM32L1xx_HAL_Driver/Src/stm32l1xx_hal_flash.c **** #endif /* FLASH_SR_OPTVERRUSR */
 325              		.loc 1 316 51 view .LVU83
 326 002e 13F4006F 		tst	r3, #2048
 327 0032 0ED0     		beq	.L24
 328              	.L23:
 320:Drivers/STM32L1xx_HAL_Driver/Src/stm32l1xx_hal_flash.c ****     {
 329              		.loc 1 320 5 is_stmt 1 view .LVU84
 320:Drivers/STM32L1xx_HAL_Driver/Src/stm32l1xx_hal_flash.c ****     {
 330              		.loc 1 320 14 is_stmt 0 view .LVU85
 331 0034 324B     		ldr	r3, .L33+4
 332 0036 1B78     		ldrb	r3, [r3]	@ zero_extendqisi2
 333 0038 DBB2     		uxtb	r3, r3
 320:Drivers/STM32L1xx_HAL_Driver/Src/stm32l1xx_hal_flash.c ****     {
ARM GAS  C:\Users\marce\AppData\Local\Temp\cckSIbNd.s 			page 20


 334              		.loc 1 320 7 view .LVU86
 335 003a 012B     		cmp	r3, #1
 336 003c 30D0     		beq	.L32
 329:Drivers/STM32L1xx_HAL_Driver/Src/stm32l1xx_hal_flash.c ****     }
 337              		.loc 1 329 7 is_stmt 1 view .LVU87
 329:Drivers/STM32L1xx_HAL_Driver/Src/stm32l1xx_hal_flash.c ****     }
 338              		.loc 1 329 18 is_stmt 0 view .LVU88
 339 003e 304B     		ldr	r3, .L33+4
 340 0040 9C68     		ldr	r4, [r3, #8]
 341              	.LVL16:
 342              	.L26:
 332:Drivers/STM32L1xx_HAL_Driver/Src/stm32l1xx_hal_flash.c ****     
 343              		.loc 1 332 5 is_stmt 1 view .LVU89
 344 0042 FFF7FEFF 		bl	FLASH_SetErrorCode
 345              	.LVL17:
 335:Drivers/STM32L1xx_HAL_Driver/Src/stm32l1xx_hal_flash.c **** 
 346              		.loc 1 335 5 view .LVU90
 347 0046 2046     		mov	r0, r4
 348 0048 FFF7FEFF 		bl	HAL_FLASH_OperationErrorCallback
 349              	.LVL18:
 338:Drivers/STM32L1xx_HAL_Driver/Src/stm32l1xx_hal_flash.c ****   }
 350              		.loc 1 338 5 view .LVU91
 338:Drivers/STM32L1xx_HAL_Driver/Src/stm32l1xx_hal_flash.c ****   }
 351              		.loc 1 338 29 is_stmt 0 view .LVU92
 352 004c 2C4B     		ldr	r3, .L33+4
 353 004e 0022     		movs	r2, #0
 354 0050 1A70     		strb	r2, [r3]
 355              	.LVL19:
 356              	.L24:
 342:Drivers/STM32L1xx_HAL_Driver/Src/stm32l1xx_hal_flash.c ****   {
 357              		.loc 1 342 3 is_stmt 1 view .LVU93
 342:Drivers/STM32L1xx_HAL_Driver/Src/stm32l1xx_hal_flash.c ****   {
 358              		.loc 1 342 6 is_stmt 0 view .LVU94
 359 0052 2A4B     		ldr	r3, .L33
 360 0054 9B69     		ldr	r3, [r3, #24]
 342:Drivers/STM32L1xx_HAL_Driver/Src/stm32l1xx_hal_flash.c ****   {
 361              		.loc 1 342 5 view .LVU95
 362 0056 13F0020F 		tst	r3, #2
 363 005a 3ED0     		beq	.L27
 345:Drivers/STM32L1xx_HAL_Driver/Src/stm32l1xx_hal_flash.c ****     
 364              		.loc 1 345 5 is_stmt 1 view .LVU96
 365 005c 274B     		ldr	r3, .L33
 366 005e 0222     		movs	r2, #2
 367 0060 9A61     		str	r2, [r3, #24]
 348:Drivers/STM32L1xx_HAL_Driver/Src/stm32l1xx_hal_flash.c ****     {
 368              		.loc 1 348 5 view .LVU97
 348:Drivers/STM32L1xx_HAL_Driver/Src/stm32l1xx_hal_flash.c ****     {
 369              		.loc 1 348 14 is_stmt 0 view .LVU98
 370 0062 274B     		ldr	r3, .L33+4
 371 0064 1B78     		ldrb	r3, [r3]	@ zero_extendqisi2
 348:Drivers/STM32L1xx_HAL_Driver/Src/stm32l1xx_hal_flash.c ****     {
 372              		.loc 1 348 7 view .LVU99
 373 0066 002B     		cmp	r3, #0
 374 0068 37D0     		beq	.L27
 350:Drivers/STM32L1xx_HAL_Driver/Src/stm32l1xx_hal_flash.c ****       {
 375              		.loc 1 350 7 is_stmt 1 view .LVU100
 350:Drivers/STM32L1xx_HAL_Driver/Src/stm32l1xx_hal_flash.c ****       {
ARM GAS  C:\Users\marce\AppData\Local\Temp\cckSIbNd.s 			page 21


 376              		.loc 1 350 16 is_stmt 0 view .LVU101
 377 006a 254B     		ldr	r3, .L33+4
 378 006c 1B78     		ldrb	r3, [r3]	@ zero_extendqisi2
 379 006e DBB2     		uxtb	r3, r3
 350:Drivers/STM32L1xx_HAL_Driver/Src/stm32l1xx_hal_flash.c ****       {
 380              		.loc 1 350 9 view .LVU102
 381 0070 012B     		cmp	r3, #1
 382 0072 24D1     		bne	.L28
 353:Drivers/STM32L1xx_HAL_Driver/Src/stm32l1xx_hal_flash.c **** 
 383              		.loc 1 353 9 is_stmt 1 view .LVU103
 353:Drivers/STM32L1xx_HAL_Driver/Src/stm32l1xx_hal_flash.c **** 
 384              		.loc 1 353 15 is_stmt 0 view .LVU104
 385 0074 224B     		ldr	r3, .L33+4
 386 0076 5A68     		ldr	r2, [r3, #4]
 353:Drivers/STM32L1xx_HAL_Driver/Src/stm32l1xx_hal_flash.c **** 
 387              		.loc 1 353 30 view .LVU105
 388 0078 013A     		subs	r2, r2, #1
 389 007a 5A60     		str	r2, [r3, #4]
 356:Drivers/STM32L1xx_HAL_Driver/Src/stm32l1xx_hal_flash.c ****         {
 390              		.loc 1 356 9 is_stmt 1 view .LVU106
 356:Drivers/STM32L1xx_HAL_Driver/Src/stm32l1xx_hal_flash.c ****         {
 391              		.loc 1 356 18 is_stmt 0 view .LVU107
 392 007c 5B68     		ldr	r3, [r3, #4]
 356:Drivers/STM32L1xx_HAL_Driver/Src/stm32l1xx_hal_flash.c ****         {
 393              		.loc 1 356 11 view .LVU108
 394 007e ABB1     		cbz	r3, .L29
 358:Drivers/STM32L1xx_HAL_Driver/Src/stm32l1xx_hal_flash.c ****           /*Indicate user which sector has been erased */
 395              		.loc 1 358 11 is_stmt 1 view .LVU109
 358:Drivers/STM32L1xx_HAL_Driver/Src/stm32l1xx_hal_flash.c ****           /*Indicate user which sector has been erased */
 396              		.loc 1 358 22 is_stmt 0 view .LVU110
 397 0080 1F4C     		ldr	r4, .L33+4
 398 0082 E068     		ldr	r0, [r4, #12]
 399              	.LVL20:
 360:Drivers/STM32L1xx_HAL_Driver/Src/stm32l1xx_hal_flash.c **** 
 400              		.loc 1 360 11 is_stmt 1 view .LVU111
 401 0084 FFF7FEFF 		bl	HAL_FLASH_EndOfOperationCallback
 402              	.LVL21:
 363:Drivers/STM32L1xx_HAL_Driver/Src/stm32l1xx_hal_flash.c ****           pFlash.Page = addresstmp;
 403              		.loc 1 363 11 view .LVU112
 363:Drivers/STM32L1xx_HAL_Driver/Src/stm32l1xx_hal_flash.c ****           pFlash.Page = addresstmp;
 404              		.loc 1 363 30 is_stmt 0 view .LVU113
 405 0088 E068     		ldr	r0, [r4, #12]
 363:Drivers/STM32L1xx_HAL_Driver/Src/stm32l1xx_hal_flash.c ****           pFlash.Page = addresstmp;
 406              		.loc 1 363 22 view .LVU114
 407 008a 00F58070 		add	r0, r0, #256
 408              	.LVL22:
 364:Drivers/STM32L1xx_HAL_Driver/Src/stm32l1xx_hal_flash.c **** 
 409              		.loc 1 364 11 is_stmt 1 view .LVU115
 364:Drivers/STM32L1xx_HAL_Driver/Src/stm32l1xx_hal_flash.c **** 
 410              		.loc 1 364 23 is_stmt 0 view .LVU116
 411 008e E060     		str	r0, [r4, #12]
 367:Drivers/STM32L1xx_HAL_Driver/Src/stm32l1xx_hal_flash.c **** 
 412              		.loc 1 367 11 is_stmt 1 view .LVU117
 413 0090 1A4A     		ldr	r2, .L33
 414 0092 5368     		ldr	r3, [r2, #4]
 415 0094 23F40073 		bic	r3, r3, #512
 416 0098 5360     		str	r3, [r2, #4]
ARM GAS  C:\Users\marce\AppData\Local\Temp\cckSIbNd.s 			page 22


 369:Drivers/STM32L1xx_HAL_Driver/Src/stm32l1xx_hal_flash.c ****         }
 417              		.loc 1 369 11 view .LVU118
 418 009a FFF7FEFF 		bl	FLASH_PageErase
 419              	.LVL23:
 369:Drivers/STM32L1xx_HAL_Driver/Src/stm32l1xx_hal_flash.c ****         }
 420              		.loc 1 369 11 is_stmt 0 view .LVU119
 421 009e 1CE0     		b	.L27
 422              	.LVL24:
 423              	.L32:
 323:Drivers/STM32L1xx_HAL_Driver/Src/stm32l1xx_hal_flash.c ****       pFlash.Page = 0xFFFFFFFFU;
 424              		.loc 1 323 7 is_stmt 1 view .LVU120
 323:Drivers/STM32L1xx_HAL_Driver/Src/stm32l1xx_hal_flash.c ****       pFlash.Page = 0xFFFFFFFFU;
 425              		.loc 1 323 18 is_stmt 0 view .LVU121
 426 00a0 174B     		ldr	r3, .L33+4
 427 00a2 DC68     		ldr	r4, [r3, #12]
 428              	.LVL25:
 324:Drivers/STM32L1xx_HAL_Driver/Src/stm32l1xx_hal_flash.c ****     }
 429              		.loc 1 324 7 is_stmt 1 view .LVU122
 324:Drivers/STM32L1xx_HAL_Driver/Src/stm32l1xx_hal_flash.c ****     }
 430              		.loc 1 324 19 is_stmt 0 view .LVU123
 431 00a4 4FF0FF32 		mov	r2, #-1
 432 00a8 DA60     		str	r2, [r3, #12]
 433 00aa CAE7     		b	.L26
 434              	.LVL26:
 435              	.L29:
 375:Drivers/STM32L1xx_HAL_Driver/Src/stm32l1xx_hal_flash.c ****           pFlash.ProcedureOnGoing = FLASH_PROC_NONE;
 436              		.loc 1 375 11 is_stmt 1 view .LVU124
 375:Drivers/STM32L1xx_HAL_Driver/Src/stm32l1xx_hal_flash.c ****           pFlash.ProcedureOnGoing = FLASH_PROC_NONE;
 437              		.loc 1 375 23 is_stmt 0 view .LVU125
 438 00ac 144B     		ldr	r3, .L33+4
 439 00ae 4FF0FF30 		mov	r0, #-1
 440 00b2 D860     		str	r0, [r3, #12]
 376:Drivers/STM32L1xx_HAL_Driver/Src/stm32l1xx_hal_flash.c ****           /* FLASH EOP interrupt user callback */
 441              		.loc 1 376 11 is_stmt 1 view .LVU126
 376:Drivers/STM32L1xx_HAL_Driver/Src/stm32l1xx_hal_flash.c ****           /* FLASH EOP interrupt user callback */
 442              		.loc 1 376 35 is_stmt 0 view .LVU127
 443 00b4 0022     		movs	r2, #0
 444 00b6 1A70     		strb	r2, [r3]
 378:Drivers/STM32L1xx_HAL_Driver/Src/stm32l1xx_hal_flash.c ****         }
 445              		.loc 1 378 11 is_stmt 1 view .LVU128
 446 00b8 FFF7FEFF 		bl	HAL_FLASH_EndOfOperationCallback
 447              	.LVL27:
 448 00bc 0DE0     		b	.L27
 449              	.LVL28:
 450              	.L28:
 384:Drivers/STM32L1xx_HAL_Driver/Src/stm32l1xx_hal_flash.c **** 
 451              		.loc 1 384 11 view .LVU129
 452 00be 0F4A     		ldr	r2, .L33
 453 00c0 5368     		ldr	r3, [r2, #4]
 454 00c2 23F00803 		bic	r3, r3, #8
 455 00c6 5360     		str	r3, [r2, #4]
 388:Drivers/STM32L1xx_HAL_Driver/Src/stm32l1xx_hal_flash.c ****         
 456              		.loc 1 388 11 view .LVU130
 457 00c8 0D4C     		ldr	r4, .L33+4
 458 00ca A068     		ldr	r0, [r4, #8]
 459 00cc FFF7FEFF 		bl	HAL_FLASH_EndOfOperationCallback
 460              	.LVL29:
ARM GAS  C:\Users\marce\AppData\Local\Temp\cckSIbNd.s 			page 23


 391:Drivers/STM32L1xx_HAL_Driver/Src/stm32l1xx_hal_flash.c ****           pFlash.ProcedureOnGoing = FLASH_PROC_NONE;
 461              		.loc 1 391 11 view .LVU131
 391:Drivers/STM32L1xx_HAL_Driver/Src/stm32l1xx_hal_flash.c ****           pFlash.ProcedureOnGoing = FLASH_PROC_NONE;
 462              		.loc 1 391 26 is_stmt 0 view .LVU132
 463 00d0 4FF0FF33 		mov	r3, #-1
 464 00d4 A360     		str	r3, [r4, #8]
 392:Drivers/STM32L1xx_HAL_Driver/Src/stm32l1xx_hal_flash.c ****       }
 465              		.loc 1 392 11 is_stmt 1 view .LVU133
 392:Drivers/STM32L1xx_HAL_Driver/Src/stm32l1xx_hal_flash.c ****       }
 466              		.loc 1 392 35 is_stmt 0 view .LVU134
 467 00d6 0023     		movs	r3, #0
 468 00d8 2370     		strb	r3, [r4]
 469              	.L27:
 398:Drivers/STM32L1xx_HAL_Driver/Src/stm32l1xx_hal_flash.c ****   {
 470              		.loc 1 398 3 is_stmt 1 view .LVU135
 398:Drivers/STM32L1xx_HAL_Driver/Src/stm32l1xx_hal_flash.c ****   {
 471              		.loc 1 398 12 is_stmt 0 view .LVU136
 472 00da 094B     		ldr	r3, .L33+4
 473 00dc 1B78     		ldrb	r3, [r3]	@ zero_extendqisi2
 398:Drivers/STM32L1xx_HAL_Driver/Src/stm32l1xx_hal_flash.c ****   {
 474              		.loc 1 398 5 view .LVU137
 475 00de 5BB9     		cbnz	r3, .L22
 401:Drivers/STM32L1xx_HAL_Driver/Src/stm32l1xx_hal_flash.c **** 
 476              		.loc 1 401 5 is_stmt 1 view .LVU138
 477 00e0 064B     		ldr	r3, .L33
 478 00e2 5A68     		ldr	r2, [r3, #4]
 479 00e4 22F40272 		bic	r2, r2, #520
 480 00e8 5A60     		str	r2, [r3, #4]
 404:Drivers/STM32L1xx_HAL_Driver/Src/stm32l1xx_hal_flash.c **** 
 481              		.loc 1 404 5 view .LVU139
 482 00ea 5A68     		ldr	r2, [r3, #4]
 483 00ec 22F44032 		bic	r2, r2, #196608
 484 00f0 5A60     		str	r2, [r3, #4]
 407:Drivers/STM32L1xx_HAL_Driver/Src/stm32l1xx_hal_flash.c ****   }
 485              		.loc 1 407 5 view .LVU140
 407:Drivers/STM32L1xx_HAL_Driver/Src/stm32l1xx_hal_flash.c ****   }
 486              		.loc 1 407 5 view .LVU141
 487 00f2 034B     		ldr	r3, .L33+4
 488 00f4 0022     		movs	r2, #0
 489 00f6 1A74     		strb	r2, [r3, #16]
 407:Drivers/STM32L1xx_HAL_Driver/Src/stm32l1xx_hal_flash.c ****   }
 490              		.loc 1 407 5 view .LVU142
 491              	.L22:
 409:Drivers/STM32L1xx_HAL_Driver/Src/stm32l1xx_hal_flash.c **** 
 492              		.loc 1 409 1 is_stmt 0 view .LVU143
 493 00f8 10BD     		pop	{r4, pc}
 494              	.L34:
 495 00fa 00BF     		.align	2
 496              	.L33:
 497 00fc 003C0240 		.word	1073888256
 498 0100 00000000 		.word	.LANCHOR0
 499              		.cfi_endproc
 500              	.LFE74:
 502              		.section	.text.HAL_FLASH_Unlock,"ax",%progbits
 503              		.align	1
 504              		.global	HAL_FLASH_Unlock
 505              		.syntax unified
ARM GAS  C:\Users\marce\AppData\Local\Temp\cckSIbNd.s 			page 24


 506              		.thumb
 507              		.thumb_func
 509              	HAL_FLASH_Unlock:
 510              	.LFB77:
 470:Drivers/STM32L1xx_HAL_Driver/Src/stm32l1xx_hal_flash.c ****   if (HAL_IS_BIT_SET(FLASH->PECR, FLASH_PECR_PRGLOCK))
 511              		.loc 1 470 1 is_stmt 1 view -0
 512              		.cfi_startproc
 513              		@ args = 0, pretend = 0, frame = 0
 514              		@ frame_needed = 0, uses_anonymous_args = 0
 515              		@ link register save eliminated.
 471:Drivers/STM32L1xx_HAL_Driver/Src/stm32l1xx_hal_flash.c ****   {
 516              		.loc 1 471 3 view .LVU145
 471:Drivers/STM32L1xx_HAL_Driver/Src/stm32l1xx_hal_flash.c ****   {
 517              		.loc 1 471 7 is_stmt 0 view .LVU146
 518 0000 144B     		ldr	r3, .L41
 519 0002 5B68     		ldr	r3, [r3, #4]
 471:Drivers/STM32L1xx_HAL_Driver/Src/stm32l1xx_hal_flash.c ****   {
 520              		.loc 1 471 6 view .LVU147
 521 0004 13F0020F 		tst	r3, #2
 522 0008 1DD0     		beq	.L38
 474:Drivers/STM32L1xx_HAL_Driver/Src/stm32l1xx_hal_flash.c ****     {  
 523              		.loc 1 474 5 is_stmt 1 view .LVU148
 474:Drivers/STM32L1xx_HAL_Driver/Src/stm32l1xx_hal_flash.c ****     {  
 524              		.loc 1 474 8 is_stmt 0 view .LVU149
 525 000a 124B     		ldr	r3, .L41
 526 000c 5B68     		ldr	r3, [r3, #4]
 474:Drivers/STM32L1xx_HAL_Driver/Src/stm32l1xx_hal_flash.c ****     {  
 527              		.loc 1 474 7 view .LVU150
 528 000e 13F0010F 		tst	r3, #1
 529 0012 08D0     		beq	.L37
 476:Drivers/STM32L1xx_HAL_Driver/Src/stm32l1xx_hal_flash.c ****       WRITE_REG(FLASH->PEKEYR, FLASH_PEKEY2);
 530              		.loc 1 476 7 is_stmt 1 view .LVU151
 531 0014 0F4B     		ldr	r3, .L41
 532 0016 104A     		ldr	r2, .L41+4
 533 0018 DA60     		str	r2, [r3, #12]
 477:Drivers/STM32L1xx_HAL_Driver/Src/stm32l1xx_hal_flash.c ****       
 534              		.loc 1 477 7 view .LVU152
 535 001a 104A     		ldr	r2, .L41+8
 536 001c DA60     		str	r2, [r3, #12]
 480:Drivers/STM32L1xx_HAL_Driver/Src/stm32l1xx_hal_flash.c ****       {
 537              		.loc 1 480 7 view .LVU153
 480:Drivers/STM32L1xx_HAL_Driver/Src/stm32l1xx_hal_flash.c ****       {
 538              		.loc 1 480 10 is_stmt 0 view .LVU154
 539 001e 5B68     		ldr	r3, [r3, #4]
 480:Drivers/STM32L1xx_HAL_Driver/Src/stm32l1xx_hal_flash.c ****       {
 540              		.loc 1 480 9 view .LVU155
 541 0020 13F0010F 		tst	r3, #1
 542 0024 11D1     		bne	.L39
 543              	.L37:
 487:Drivers/STM32L1xx_HAL_Driver/Src/stm32l1xx_hal_flash.c ****     WRITE_REG(FLASH->PRGKEYR, FLASH_PRGKEY2);  
 544              		.loc 1 487 5 is_stmt 1 view .LVU156
 545 0026 0B4B     		ldr	r3, .L41
 546 0028 0D4A     		ldr	r2, .L41+12
 547 002a 1A61     		str	r2, [r3, #16]
 488:Drivers/STM32L1xx_HAL_Driver/Src/stm32l1xx_hal_flash.c ****     
 548              		.loc 1 488 5 view .LVU157
 549 002c A2F1F342 		sub	r2, r2, #2038431744
ARM GAS  C:\Users\marce\AppData\Local\Temp\cckSIbNd.s 			page 25


 550 0030 A2F51922 		sub	r2, r2, #626688
 551 0034 A2F6A912 		subw	r2, r2, #2473
 552 0038 1A61     		str	r2, [r3, #16]
 491:Drivers/STM32L1xx_HAL_Driver/Src/stm32l1xx_hal_flash.c ****     {
 553              		.loc 1 491 5 view .LVU158
 491:Drivers/STM32L1xx_HAL_Driver/Src/stm32l1xx_hal_flash.c ****     {
 554              		.loc 1 491 9 is_stmt 0 view .LVU159
 555 003a 5B68     		ldr	r3, [r3, #4]
 491:Drivers/STM32L1xx_HAL_Driver/Src/stm32l1xx_hal_flash.c ****     {
 556              		.loc 1 491 8 view .LVU160
 557 003c 13F0020F 		tst	r3, #2
 558 0040 05D1     		bne	.L40
 497:Drivers/STM32L1xx_HAL_Driver/Src/stm32l1xx_hal_flash.c **** }
 559              		.loc 1 497 10 view .LVU161
 560 0042 0020     		movs	r0, #0
 561 0044 7047     		bx	lr
 562              	.L38:
 563 0046 0020     		movs	r0, #0
 564 0048 7047     		bx	lr
 565              	.L39:
 482:Drivers/STM32L1xx_HAL_Driver/Src/stm32l1xx_hal_flash.c ****       }
 566              		.loc 1 482 16 view .LVU162
 567 004a 0120     		movs	r0, #1
 568 004c 7047     		bx	lr
 569              	.L40:
 493:Drivers/STM32L1xx_HAL_Driver/Src/stm32l1xx_hal_flash.c ****     }
 570              		.loc 1 493 14 view .LVU163
 571 004e 0120     		movs	r0, #1
 498:Drivers/STM32L1xx_HAL_Driver/Src/stm32l1xx_hal_flash.c **** 
 572              		.loc 1 498 1 view .LVU164
 573 0050 7047     		bx	lr
 574              	.L42:
 575 0052 00BF     		.align	2
 576              	.L41:
 577 0054 003C0240 		.word	1073888256
 578 0058 EFCDAB89 		.word	-1985229329
 579 005c 05040302 		.word	33752069
 580 0060 BFAE9D8C 		.word	-1935823169
 581              		.cfi_endproc
 582              	.LFE77:
 584              		.section	.text.HAL_FLASH_Lock,"ax",%progbits
 585              		.align	1
 586              		.global	HAL_FLASH_Lock
 587              		.syntax unified
 588              		.thumb
 589              		.thumb_func
 591              	HAL_FLASH_Lock:
 592              	.LFB78:
 505:Drivers/STM32L1xx_HAL_Driver/Src/stm32l1xx_hal_flash.c ****   /* Set the PRGLOCK Bit to lock the FLASH Registers access */
 593              		.loc 1 505 1 is_stmt 1 view -0
 594              		.cfi_startproc
 595              		@ args = 0, pretend = 0, frame = 0
 596              		@ frame_needed = 0, uses_anonymous_args = 0
 597              		@ link register save eliminated.
 507:Drivers/STM32L1xx_HAL_Driver/Src/stm32l1xx_hal_flash.c ****   
 598              		.loc 1 507 3 view .LVU166
 599 0000 034A     		ldr	r2, .L44
ARM GAS  C:\Users\marce\AppData\Local\Temp\cckSIbNd.s 			page 26


 600 0002 5368     		ldr	r3, [r2, #4]
 601 0004 43F00203 		orr	r3, r3, #2
 602 0008 5360     		str	r3, [r2, #4]
 509:Drivers/STM32L1xx_HAL_Driver/Src/stm32l1xx_hal_flash.c **** }
 603              		.loc 1 509 3 view .LVU167
 510:Drivers/STM32L1xx_HAL_Driver/Src/stm32l1xx_hal_flash.c **** 
 604              		.loc 1 510 1 is_stmt 0 view .LVU168
 605 000a 0020     		movs	r0, #0
 606 000c 7047     		bx	lr
 607              	.L45:
 608 000e 00BF     		.align	2
 609              	.L44:
 610 0010 003C0240 		.word	1073888256
 611              		.cfi_endproc
 612              	.LFE78:
 614              		.section	.text.HAL_FLASH_OB_Unlock,"ax",%progbits
 615              		.align	1
 616              		.global	HAL_FLASH_OB_Unlock
 617              		.syntax unified
 618              		.thumb
 619              		.thumb_func
 621              	HAL_FLASH_OB_Unlock:
 622              	.LFB79:
 517:Drivers/STM32L1xx_HAL_Driver/Src/stm32l1xx_hal_flash.c ****   if(HAL_IS_BIT_SET(FLASH->PECR, FLASH_PECR_OPTLOCK))
 623              		.loc 1 517 1 is_stmt 1 view -0
 624              		.cfi_startproc
 625              		@ args = 0, pretend = 0, frame = 0
 626              		@ frame_needed = 0, uses_anonymous_args = 0
 627              		@ link register save eliminated.
 518:Drivers/STM32L1xx_HAL_Driver/Src/stm32l1xx_hal_flash.c ****   {
 628              		.loc 1 518 3 view .LVU170
 518:Drivers/STM32L1xx_HAL_Driver/Src/stm32l1xx_hal_flash.c ****   {
 629              		.loc 1 518 6 is_stmt 0 view .LVU171
 630 0000 144B     		ldr	r3, .L52
 631 0002 5B68     		ldr	r3, [r3, #4]
 518:Drivers/STM32L1xx_HAL_Driver/Src/stm32l1xx_hal_flash.c ****   {
 632              		.loc 1 518 5 view .LVU172
 633 0004 13F0040F 		tst	r3, #4
 634 0008 1DD0     		beq	.L49
 521:Drivers/STM32L1xx_HAL_Driver/Src/stm32l1xx_hal_flash.c ****     {  
 635              		.loc 1 521 5 is_stmt 1 view .LVU173
 521:Drivers/STM32L1xx_HAL_Driver/Src/stm32l1xx_hal_flash.c ****     {  
 636              		.loc 1 521 8 is_stmt 0 view .LVU174
 637 000a 124B     		ldr	r3, .L52
 638 000c 5B68     		ldr	r3, [r3, #4]
 521:Drivers/STM32L1xx_HAL_Driver/Src/stm32l1xx_hal_flash.c ****     {  
 639              		.loc 1 521 7 view .LVU175
 640 000e 13F0010F 		tst	r3, #1
 641 0012 08D0     		beq	.L48
 524:Drivers/STM32L1xx_HAL_Driver/Src/stm32l1xx_hal_flash.c ****       WRITE_REG(FLASH->PEKEYR, FLASH_PEKEY2);
 642              		.loc 1 524 7 is_stmt 1 view .LVU176
 643 0014 0F4B     		ldr	r3, .L52
 644 0016 104A     		ldr	r2, .L52+4
 645 0018 DA60     		str	r2, [r3, #12]
 525:Drivers/STM32L1xx_HAL_Driver/Src/stm32l1xx_hal_flash.c **** 
 646              		.loc 1 525 7 view .LVU177
 647 001a 104A     		ldr	r2, .L52+8
ARM GAS  C:\Users\marce\AppData\Local\Temp\cckSIbNd.s 			page 27


 648 001c DA60     		str	r2, [r3, #12]
 528:Drivers/STM32L1xx_HAL_Driver/Src/stm32l1xx_hal_flash.c ****       {
 649              		.loc 1 528 7 view .LVU178
 528:Drivers/STM32L1xx_HAL_Driver/Src/stm32l1xx_hal_flash.c ****       {
 650              		.loc 1 528 10 is_stmt 0 view .LVU179
 651 001e 5B68     		ldr	r3, [r3, #4]
 528:Drivers/STM32L1xx_HAL_Driver/Src/stm32l1xx_hal_flash.c ****       {
 652              		.loc 1 528 9 view .LVU180
 653 0020 13F0010F 		tst	r3, #1
 654 0024 11D1     		bne	.L50
 655              	.L48:
 535:Drivers/STM32L1xx_HAL_Driver/Src/stm32l1xx_hal_flash.c ****     WRITE_REG(FLASH->OPTKEYR, FLASH_OPTKEY2);
 656              		.loc 1 535 5 is_stmt 1 view .LVU181
 657 0026 0B4B     		ldr	r3, .L52
 658 0028 0D4A     		ldr	r2, .L52+12
 659 002a 5A61     		str	r2, [r3, #20]
 536:Drivers/STM32L1xx_HAL_Driver/Src/stm32l1xx_hal_flash.c **** 
 660              		.loc 1 536 5 view .LVU182
 661 002c 02F12052 		add	r2, r2, #671088640
 662 0030 02F56912 		add	r2, r2, #3817472
 663 0034 02F65F42 		addw	r2, r2, #3167
 664 0038 5A61     		str	r2, [r3, #20]
 539:Drivers/STM32L1xx_HAL_Driver/Src/stm32l1xx_hal_flash.c ****     {
 665              		.loc 1 539 5 view .LVU183
 539:Drivers/STM32L1xx_HAL_Driver/Src/stm32l1xx_hal_flash.c ****     {
 666              		.loc 1 539 9 is_stmt 0 view .LVU184
 667 003a 5B68     		ldr	r3, [r3, #4]
 539:Drivers/STM32L1xx_HAL_Driver/Src/stm32l1xx_hal_flash.c ****     {
 668              		.loc 1 539 8 view .LVU185
 669 003c 13F0040F 		tst	r3, #4
 670 0040 05D1     		bne	.L51
 545:Drivers/STM32L1xx_HAL_Driver/Src/stm32l1xx_hal_flash.c **** }
 671              		.loc 1 545 10 view .LVU186
 672 0042 0020     		movs	r0, #0
 673 0044 7047     		bx	lr
 674              	.L49:
 675 0046 0020     		movs	r0, #0
 676 0048 7047     		bx	lr
 677              	.L50:
 530:Drivers/STM32L1xx_HAL_Driver/Src/stm32l1xx_hal_flash.c ****       }
 678              		.loc 1 530 16 view .LVU187
 679 004a 0120     		movs	r0, #1
 680 004c 7047     		bx	lr
 681              	.L51:
 541:Drivers/STM32L1xx_HAL_Driver/Src/stm32l1xx_hal_flash.c ****     }
 682              		.loc 1 541 14 view .LVU188
 683 004e 0120     		movs	r0, #1
 546:Drivers/STM32L1xx_HAL_Driver/Src/stm32l1xx_hal_flash.c **** 
 684              		.loc 1 546 1 view .LVU189
 685 0050 7047     		bx	lr
 686              	.L53:
 687 0052 00BF     		.align	2
 688              	.L52:
 689 0054 003C0240 		.word	1073888256
 690 0058 EFCDAB89 		.word	-1985229329
 691 005c 05040302 		.word	33752069
 692 0060 C8D9EAFB 		.word	-68494904
ARM GAS  C:\Users\marce\AppData\Local\Temp\cckSIbNd.s 			page 28


 693              		.cfi_endproc
 694              	.LFE79:
 696              		.section	.text.HAL_FLASH_OB_Lock,"ax",%progbits
 697              		.align	1
 698              		.global	HAL_FLASH_OB_Lock
 699              		.syntax unified
 700              		.thumb
 701              		.thumb_func
 703              	HAL_FLASH_OB_Lock:
 704              	.LFB80:
 553:Drivers/STM32L1xx_HAL_Driver/Src/stm32l1xx_hal_flash.c ****   /* Set the OPTLOCK Bit to lock the option bytes block access */
 705              		.loc 1 553 1 is_stmt 1 view -0
 706              		.cfi_startproc
 707              		@ args = 0, pretend = 0, frame = 0
 708              		@ frame_needed = 0, uses_anonymous_args = 0
 709              		@ link register save eliminated.
 555:Drivers/STM32L1xx_HAL_Driver/Src/stm32l1xx_hal_flash.c ****   
 710              		.loc 1 555 3 view .LVU191
 711 0000 034A     		ldr	r2, .L55
 712 0002 5368     		ldr	r3, [r2, #4]
 713 0004 43F00403 		orr	r3, r3, #4
 714 0008 5360     		str	r3, [r2, #4]
 557:Drivers/STM32L1xx_HAL_Driver/Src/stm32l1xx_hal_flash.c **** }
 715              		.loc 1 557 3 view .LVU192
 558:Drivers/STM32L1xx_HAL_Driver/Src/stm32l1xx_hal_flash.c ****   
 716              		.loc 1 558 1 is_stmt 0 view .LVU193
 717 000a 0020     		movs	r0, #0
 718 000c 7047     		bx	lr
 719              	.L56:
 720 000e 00BF     		.align	2
 721              	.L55:
 722 0010 003C0240 		.word	1073888256
 723              		.cfi_endproc
 724              	.LFE80:
 726              		.section	.text.HAL_FLASH_GetError,"ax",%progbits
 727              		.align	1
 728              		.global	HAL_FLASH_GetError
 729              		.syntax unified
 730              		.thumb
 731              		.thumb_func
 733              	HAL_FLASH_GetError:
 734              	.LFB82:
 598:Drivers/STM32L1xx_HAL_Driver/Src/stm32l1xx_hal_flash.c ****    return pFlash.ErrorCode;
 735              		.loc 1 598 1 is_stmt 1 view -0
 736              		.cfi_startproc
 737              		@ args = 0, pretend = 0, frame = 0
 738              		@ frame_needed = 0, uses_anonymous_args = 0
 739              		@ link register save eliminated.
 599:Drivers/STM32L1xx_HAL_Driver/Src/stm32l1xx_hal_flash.c **** }
 740              		.loc 1 599 4 view .LVU195
 599:Drivers/STM32L1xx_HAL_Driver/Src/stm32l1xx_hal_flash.c **** }
 741              		.loc 1 599 17 is_stmt 0 view .LVU196
 742 0000 014B     		ldr	r3, .L58
 743 0002 5869     		ldr	r0, [r3, #20]
 600:Drivers/STM32L1xx_HAL_Driver/Src/stm32l1xx_hal_flash.c **** 
 744              		.loc 1 600 1 view .LVU197
 745 0004 7047     		bx	lr
ARM GAS  C:\Users\marce\AppData\Local\Temp\cckSIbNd.s 			page 29


 746              	.L59:
 747 0006 00BF     		.align	2
 748              	.L58:
 749 0008 00000000 		.word	.LANCHOR0
 750              		.cfi_endproc
 751              	.LFE82:
 753              		.section	.text.FLASH_WaitForLastOperation,"ax",%progbits
 754              		.align	1
 755              		.global	FLASH_WaitForLastOperation
 756              		.syntax unified
 757              		.thumb
 758              		.thumb_func
 760              	FLASH_WaitForLastOperation:
 761              	.LVL30:
 762              	.LFB83:
 620:Drivers/STM32L1xx_HAL_Driver/Src/stm32l1xx_hal_flash.c ****   /* Wait for the FLASH operation to complete by polling on BUSY flag to be reset.
 763              		.loc 1 620 1 is_stmt 1 view -0
 764              		.cfi_startproc
 765              		@ args = 0, pretend = 0, frame = 0
 766              		@ frame_needed = 0, uses_anonymous_args = 0
 620:Drivers/STM32L1xx_HAL_Driver/Src/stm32l1xx_hal_flash.c ****   /* Wait for the FLASH operation to complete by polling on BUSY flag to be reset.
 767              		.loc 1 620 1 is_stmt 0 view .LVU199
 768 0000 38B5     		push	{r3, r4, r5, lr}
 769              	.LCFI5:
 770              		.cfi_def_cfa_offset 16
 771              		.cfi_offset 3, -16
 772              		.cfi_offset 4, -12
 773              		.cfi_offset 5, -8
 774              		.cfi_offset 14, -4
 775 0002 0446     		mov	r4, r0
 625:Drivers/STM32L1xx_HAL_Driver/Src/stm32l1xx_hal_flash.c ****      
 776              		.loc 1 625 3 is_stmt 1 view .LVU200
 625:Drivers/STM32L1xx_HAL_Driver/Src/stm32l1xx_hal_flash.c ****      
 777              		.loc 1 625 24 is_stmt 0 view .LVU201
 778 0004 FFF7FEFF 		bl	HAL_GetTick
 779              	.LVL31:
 625:Drivers/STM32L1xx_HAL_Driver/Src/stm32l1xx_hal_flash.c ****      
 780              		.loc 1 625 24 view .LVU202
 781 0008 0546     		mov	r5, r0
 782              	.LVL32:
 627:Drivers/STM32L1xx_HAL_Driver/Src/stm32l1xx_hal_flash.c ****   { 
 783              		.loc 1 627 3 is_stmt 1 view .LVU203
 784              	.L62:
 627:Drivers/STM32L1xx_HAL_Driver/Src/stm32l1xx_hal_flash.c ****   { 
 785              		.loc 1 627 8 view .LVU204
 627:Drivers/STM32L1xx_HAL_Driver/Src/stm32l1xx_hal_flash.c ****   { 
 786              		.loc 1 627 9 is_stmt 0 view .LVU205
 787 000a 1B4B     		ldr	r3, .L71
 788 000c 9B69     		ldr	r3, [r3, #24]
 627:Drivers/STM32L1xx_HAL_Driver/Src/stm32l1xx_hal_flash.c ****   { 
 789              		.loc 1 627 8 view .LVU206
 790 000e 13F0010F 		tst	r3, #1
 791 0012 0AD0     		beq	.L70
 629:Drivers/STM32L1xx_HAL_Driver/Src/stm32l1xx_hal_flash.c ****     {
 792              		.loc 1 629 5 is_stmt 1 view .LVU207
 629:Drivers/STM32L1xx_HAL_Driver/Src/stm32l1xx_hal_flash.c ****     {
 793              		.loc 1 629 8 is_stmt 0 view .LVU208
ARM GAS  C:\Users\marce\AppData\Local\Temp\cckSIbNd.s 			page 30


 794 0014 B4F1FF3F 		cmp	r4, #-1
 795 0018 F7D0     		beq	.L62
 631:Drivers/STM32L1xx_HAL_Driver/Src/stm32l1xx_hal_flash.c ****       {
 796              		.loc 1 631 7 is_stmt 1 view .LVU209
 631:Drivers/STM32L1xx_HAL_Driver/Src/stm32l1xx_hal_flash.c ****       {
 797              		.loc 1 631 9 is_stmt 0 view .LVU210
 798 001a 24B1     		cbz	r4, .L63
 631:Drivers/STM32L1xx_HAL_Driver/Src/stm32l1xx_hal_flash.c ****       {
 799              		.loc 1 631 31 discriminator 1 view .LVU211
 800 001c FFF7FEFF 		bl	HAL_GetTick
 801              	.LVL33:
 631:Drivers/STM32L1xx_HAL_Driver/Src/stm32l1xx_hal_flash.c ****       {
 802              		.loc 1 631 44 discriminator 1 view .LVU212
 803 0020 401B     		subs	r0, r0, r5
 631:Drivers/STM32L1xx_HAL_Driver/Src/stm32l1xx_hal_flash.c ****       {
 804              		.loc 1 631 26 discriminator 1 view .LVU213
 805 0022 A042     		cmp	r0, r4
 806 0024 F1D9     		bls	.L62
 807              	.L63:
 633:Drivers/STM32L1xx_HAL_Driver/Src/stm32l1xx_hal_flash.c ****       }
 808              		.loc 1 633 9 is_stmt 1 view .LVU214
 633:Drivers/STM32L1xx_HAL_Driver/Src/stm32l1xx_hal_flash.c ****       }
 809              		.loc 1 633 16 is_stmt 0 view .LVU215
 810 0026 0320     		movs	r0, #3
 811 0028 25E0     		b	.L64
 812              	.L70:
 639:Drivers/STM32L1xx_HAL_Driver/Src/stm32l1xx_hal_flash.c ****   {
 813              		.loc 1 639 3 is_stmt 1 view .LVU216
 639:Drivers/STM32L1xx_HAL_Driver/Src/stm32l1xx_hal_flash.c ****   {
 814              		.loc 1 639 7 is_stmt 0 view .LVU217
 815 002a 134B     		ldr	r3, .L71
 816 002c 9B69     		ldr	r3, [r3, #24]
 639:Drivers/STM32L1xx_HAL_Driver/Src/stm32l1xx_hal_flash.c ****   {
 817              		.loc 1 639 6 view .LVU218
 818 002e 13F0020F 		tst	r3, #2
 819 0032 02D0     		beq	.L66
 642:Drivers/STM32L1xx_HAL_Driver/Src/stm32l1xx_hal_flash.c ****   }
 820              		.loc 1 642 5 is_stmt 1 view .LVU219
 821 0034 104B     		ldr	r3, .L71
 822 0036 0222     		movs	r2, #2
 823 0038 9A61     		str	r2, [r3, #24]
 824              	.L66:
 645:Drivers/STM32L1xx_HAL_Driver/Src/stm32l1xx_hal_flash.c ****      __HAL_FLASH_GET_FLAG(FLASH_FLAG_OPTVERR) || 
 825              		.loc 1 645 3 view .LVU220
 645:Drivers/STM32L1xx_HAL_Driver/Src/stm32l1xx_hal_flash.c ****      __HAL_FLASH_GET_FLAG(FLASH_FLAG_OPTVERR) || 
 826              		.loc 1 645 6 is_stmt 0 view .LVU221
 827 003a 0F4B     		ldr	r3, .L71
 828 003c 9B69     		ldr	r3, [r3, #24]
 645:Drivers/STM32L1xx_HAL_Driver/Src/stm32l1xx_hal_flash.c ****      __HAL_FLASH_GET_FLAG(FLASH_FLAG_OPTVERR) || 
 829              		.loc 1 645 5 view .LVU222
 830 003e 13F4807F 		tst	r3, #256
 831 0042 15D1     		bne	.L67
 646:Drivers/STM32L1xx_HAL_Driver/Src/stm32l1xx_hal_flash.c **** #if defined(FLASH_SR_RDERR)
 832              		.loc 1 646 6 discriminator 1 view .LVU223
 833 0044 0C4B     		ldr	r3, .L71
 834 0046 9B69     		ldr	r3, [r3, #24]
 645:Drivers/STM32L1xx_HAL_Driver/Src/stm32l1xx_hal_flash.c ****      __HAL_FLASH_GET_FLAG(FLASH_FLAG_OPTVERR) || 
ARM GAS  C:\Users\marce\AppData\Local\Temp\cckSIbNd.s 			page 31


 835              		.loc 1 645 47 discriminator 1 view .LVU224
 836 0048 13F4006F 		tst	r3, #2048
 837 004c 10D1     		bne	.L67
 651:Drivers/STM32L1xx_HAL_Driver/Src/stm32l1xx_hal_flash.c **** #endif /* FLASH_SR_OPTVERRUSR */
 838              		.loc 1 651 7 view .LVU225
 839 004e 0A4B     		ldr	r3, .L71
 840 0050 9B69     		ldr	r3, [r3, #24]
 646:Drivers/STM32L1xx_HAL_Driver/Src/stm32l1xx_hal_flash.c **** #if defined(FLASH_SR_RDERR)
 841              		.loc 1 646 47 view .LVU226
 842 0052 13F4805F 		tst	r3, #4096
 843 0056 0BD1     		bne	.L67
 653:Drivers/STM32L1xx_HAL_Driver/Src/stm32l1xx_hal_flash.c ****      __HAL_FLASH_GET_FLAG(FLASH_FLAG_PGAERR))
 844              		.loc 1 653 6 view .LVU227
 845 0058 074B     		ldr	r3, .L71
 846 005a 9B69     		ldr	r3, [r3, #24]
 651:Drivers/STM32L1xx_HAL_Driver/Src/stm32l1xx_hal_flash.c **** #endif /* FLASH_SR_OPTVERRUSR */
 847              		.loc 1 651 51 view .LVU228
 848 005c 13F4806F 		tst	r3, #1024
 849 0060 06D1     		bne	.L67
 654:Drivers/STM32L1xx_HAL_Driver/Src/stm32l1xx_hal_flash.c ****   {
 850              		.loc 1 654 6 view .LVU229
 851 0062 054B     		ldr	r3, .L71
 852 0064 9B69     		ldr	r3, [r3, #24]
 653:Drivers/STM32L1xx_HAL_Driver/Src/stm32l1xx_hal_flash.c ****      __HAL_FLASH_GET_FLAG(FLASH_FLAG_PGAERR))
 853              		.loc 1 653 46 view .LVU230
 854 0066 13F4007F 		tst	r3, #512
 855 006a 01D1     		bne	.L67
 662:Drivers/STM32L1xx_HAL_Driver/Src/stm32l1xx_hal_flash.c **** }
 856              		.loc 1 662 10 view .LVU231
 857 006c 0020     		movs	r0, #0
 858 006e 02E0     		b	.L64
 859              	.L67:
 657:Drivers/STM32L1xx_HAL_Driver/Src/stm32l1xx_hal_flash.c ****     return HAL_ERROR;
 860              		.loc 1 657 5 is_stmt 1 view .LVU232
 861 0070 FFF7FEFF 		bl	FLASH_SetErrorCode
 862              	.LVL34:
 658:Drivers/STM32L1xx_HAL_Driver/Src/stm32l1xx_hal_flash.c ****   }
 863              		.loc 1 658 5 view .LVU233
 658:Drivers/STM32L1xx_HAL_Driver/Src/stm32l1xx_hal_flash.c ****   }
 864              		.loc 1 658 12 is_stmt 0 view .LVU234
 865 0074 0120     		movs	r0, #1
 866              	.L64:
 663:Drivers/STM32L1xx_HAL_Driver/Src/stm32l1xx_hal_flash.c **** 
 867              		.loc 1 663 1 view .LVU235
 868 0076 38BD     		pop	{r3, r4, r5, pc}
 869              	.LVL35:
 870              	.L72:
 663:Drivers/STM32L1xx_HAL_Driver/Src/stm32l1xx_hal_flash.c **** 
 871              		.loc 1 663 1 view .LVU236
 872              		.align	2
 873              	.L71:
 874 0078 003C0240 		.word	1073888256
 875              		.cfi_endproc
 876              	.LFE83:
 878              		.section	.text.HAL_FLASH_Program,"ax",%progbits
 879              		.align	1
 880              		.global	HAL_FLASH_Program
ARM GAS  C:\Users\marce\AppData\Local\Temp\cckSIbNd.s 			page 32


 881              		.syntax unified
 882              		.thumb
 883              		.thumb_func
 885              	HAL_FLASH_Program:
 886              	.LVL36:
 887              	.LFB72:
 232:Drivers/STM32L1xx_HAL_Driver/Src/stm32l1xx_hal_flash.c ****   HAL_StatusTypeDef status = HAL_ERROR;
 888              		.loc 1 232 1 is_stmt 1 view -0
 889              		.cfi_startproc
 890              		@ args = 0, pretend = 0, frame = 0
 891              		@ frame_needed = 0, uses_anonymous_args = 0
 232:Drivers/STM32L1xx_HAL_Driver/Src/stm32l1xx_hal_flash.c ****   HAL_StatusTypeDef status = HAL_ERROR;
 892              		.loc 1 232 1 is_stmt 0 view .LVU238
 893 0000 38B5     		push	{r3, r4, r5, lr}
 894              	.LCFI6:
 895              		.cfi_def_cfa_offset 16
 896              		.cfi_offset 3, -16
 897              		.cfi_offset 4, -12
 898              		.cfi_offset 5, -8
 899              		.cfi_offset 14, -4
 233:Drivers/STM32L1xx_HAL_Driver/Src/stm32l1xx_hal_flash.c ****   
 900              		.loc 1 233 3 is_stmt 1 view .LVU239
 901              	.LVL37:
 236:Drivers/STM32L1xx_HAL_Driver/Src/stm32l1xx_hal_flash.c **** 
 902              		.loc 1 236 3 view .LVU240
 236:Drivers/STM32L1xx_HAL_Driver/Src/stm32l1xx_hal_flash.c **** 
 903              		.loc 1 236 3 view .LVU241
 904 0002 0E4B     		ldr	r3, .L79
 905 0004 1B7C     		ldrb	r3, [r3, #16]	@ zero_extendqisi2
 906 0006 012B     		cmp	r3, #1
 907 0008 16D0     		beq	.L76
 908 000a 0D46     		mov	r5, r1
 909 000c 1446     		mov	r4, r2
 236:Drivers/STM32L1xx_HAL_Driver/Src/stm32l1xx_hal_flash.c **** 
 910              		.loc 1 236 3 discriminator 2 view .LVU242
 911 000e 0B4B     		ldr	r3, .L79
 912 0010 0122     		movs	r2, #1
 913              	.LVL38:
 236:Drivers/STM32L1xx_HAL_Driver/Src/stm32l1xx_hal_flash.c **** 
 914              		.loc 1 236 3 is_stmt 0 discriminator 2 view .LVU243
 915 0012 1A74     		strb	r2, [r3, #16]
 236:Drivers/STM32L1xx_HAL_Driver/Src/stm32l1xx_hal_flash.c **** 
 916              		.loc 1 236 3 is_stmt 1 discriminator 2 view .LVU244
 239:Drivers/STM32L1xx_HAL_Driver/Src/stm32l1xx_hal_flash.c ****   assert_param(IS_FLASH_PROGRAM_ADDRESS(Address));
 917              		.loc 1 239 3 discriminator 2 view .LVU245
 240:Drivers/STM32L1xx_HAL_Driver/Src/stm32l1xx_hal_flash.c **** 
 918              		.loc 1 240 3 discriminator 2 view .LVU246
 243:Drivers/STM32L1xx_HAL_Driver/Src/stm32l1xx_hal_flash.c ****   
 919              		.loc 1 243 3 discriminator 2 view .LVU247
 243:Drivers/STM32L1xx_HAL_Driver/Src/stm32l1xx_hal_flash.c ****   
 920              		.loc 1 243 12 is_stmt 0 discriminator 2 view .LVU248
 921 0014 4CF25030 		movw	r0, #50000
 922              	.LVL39:
 243:Drivers/STM32L1xx_HAL_Driver/Src/stm32l1xx_hal_flash.c ****   
 923              		.loc 1 243 12 discriminator 2 view .LVU249
 924 0018 FFF7FEFF 		bl	FLASH_WaitForLastOperation
 925              	.LVL40:
ARM GAS  C:\Users\marce\AppData\Local\Temp\cckSIbNd.s 			page 33


 245:Drivers/STM32L1xx_HAL_Driver/Src/stm32l1xx_hal_flash.c ****   {
 926              		.loc 1 245 3 is_stmt 1 discriminator 2 view .LVU250
 245:Drivers/STM32L1xx_HAL_Driver/Src/stm32l1xx_hal_flash.c ****   {
 927              		.loc 1 245 5 is_stmt 0 discriminator 2 view .LVU251
 928 001c 18B1     		cbz	r0, .L78
 929              	.L75:
 258:Drivers/STM32L1xx_HAL_Driver/Src/stm32l1xx_hal_flash.c **** 
 930              		.loc 1 258 3 is_stmt 1 view .LVU252
 258:Drivers/STM32L1xx_HAL_Driver/Src/stm32l1xx_hal_flash.c **** 
 931              		.loc 1 258 3 view .LVU253
 932 001e 074B     		ldr	r3, .L79
 933 0020 0022     		movs	r2, #0
 934 0022 1A74     		strb	r2, [r3, #16]
 258:Drivers/STM32L1xx_HAL_Driver/Src/stm32l1xx_hal_flash.c **** 
 935              		.loc 1 258 3 view .LVU254
 260:Drivers/STM32L1xx_HAL_Driver/Src/stm32l1xx_hal_flash.c **** }
 936              		.loc 1 260 3 view .LVU255
 937              	.LVL41:
 938              	.L74:
 261:Drivers/STM32L1xx_HAL_Driver/Src/stm32l1xx_hal_flash.c **** 
 939              		.loc 1 261 1 is_stmt 0 view .LVU256
 940 0024 38BD     		pop	{r3, r4, r5, pc}
 941              	.LVL42:
 942              	.L78:
 248:Drivers/STM32L1xx_HAL_Driver/Src/stm32l1xx_hal_flash.c **** 
 943              		.loc 1 248 5 is_stmt 1 view .LVU257
 248:Drivers/STM32L1xx_HAL_Driver/Src/stm32l1xx_hal_flash.c **** 
 944              		.loc 1 248 22 is_stmt 0 view .LVU258
 945 0026 054B     		ldr	r3, .L79
 946 0028 0022     		movs	r2, #0
 947 002a 5A61     		str	r2, [r3, #20]
 251:Drivers/STM32L1xx_HAL_Driver/Src/stm32l1xx_hal_flash.c **** 
 948              		.loc 1 251 5 is_stmt 1 view .LVU259
 251:Drivers/STM32L1xx_HAL_Driver/Src/stm32l1xx_hal_flash.c **** 
 949              		.loc 1 251 31 is_stmt 0 view .LVU260
 950 002c 2C60     		str	r4, [r5]
 254:Drivers/STM32L1xx_HAL_Driver/Src/stm32l1xx_hal_flash.c ****   }
 951              		.loc 1 254 5 is_stmt 1 view .LVU261
 254:Drivers/STM32L1xx_HAL_Driver/Src/stm32l1xx_hal_flash.c ****   }
 952              		.loc 1 254 14 is_stmt 0 view .LVU262
 953 002e 4CF25030 		movw	r0, #50000
 954              	.LVL43:
 254:Drivers/STM32L1xx_HAL_Driver/Src/stm32l1xx_hal_flash.c ****   }
 955              		.loc 1 254 14 view .LVU263
 956 0032 FFF7FEFF 		bl	FLASH_WaitForLastOperation
 957              	.LVL44:
 254:Drivers/STM32L1xx_HAL_Driver/Src/stm32l1xx_hal_flash.c ****   }
 958              		.loc 1 254 14 view .LVU264
 959 0036 F2E7     		b	.L75
 960              	.LVL45:
 961              	.L76:
 236:Drivers/STM32L1xx_HAL_Driver/Src/stm32l1xx_hal_flash.c **** 
 962              		.loc 1 236 3 view .LVU265
 963 0038 0220     		movs	r0, #2
 964              	.LVL46:
 236:Drivers/STM32L1xx_HAL_Driver/Src/stm32l1xx_hal_flash.c **** 
 965              		.loc 1 236 3 view .LVU266
ARM GAS  C:\Users\marce\AppData\Local\Temp\cckSIbNd.s 			page 34


 966 003a F3E7     		b	.L74
 967              	.L80:
 968              		.align	2
 969              	.L79:
 970 003c 00000000 		.word	.LANCHOR0
 971              		.cfi_endproc
 972              	.LFE72:
 974              		.section	.text.HAL_FLASH_OB_Launch,"ax",%progbits
 975              		.align	1
 976              		.global	HAL_FLASH_OB_Launch
 977              		.syntax unified
 978              		.thumb
 979              		.thumb_func
 981              	HAL_FLASH_OB_Launch:
 982              	.LFB81:
 566:Drivers/STM32L1xx_HAL_Driver/Src/stm32l1xx_hal_flash.c ****   /* Set the OBL_Launch bit to launch the option byte loading */
 983              		.loc 1 566 1 is_stmt 1 view -0
 984              		.cfi_startproc
 985              		@ args = 0, pretend = 0, frame = 0
 986              		@ frame_needed = 0, uses_anonymous_args = 0
 987 0000 08B5     		push	{r3, lr}
 988              	.LCFI7:
 989              		.cfi_def_cfa_offset 8
 990              		.cfi_offset 3, -8
 991              		.cfi_offset 14, -4
 568:Drivers/STM32L1xx_HAL_Driver/Src/stm32l1xx_hal_flash.c ****   
 992              		.loc 1 568 3 view .LVU268
 993 0002 054A     		ldr	r2, .L83
 994 0004 5368     		ldr	r3, [r2, #4]
 995 0006 43F48023 		orr	r3, r3, #262144
 996 000a 5360     		str	r3, [r2, #4]
 571:Drivers/STM32L1xx_HAL_Driver/Src/stm32l1xx_hal_flash.c **** }
 997              		.loc 1 571 3 view .LVU269
 571:Drivers/STM32L1xx_HAL_Driver/Src/stm32l1xx_hal_flash.c **** }
 998              		.loc 1 571 10 is_stmt 0 view .LVU270
 999 000c 4CF25030 		movw	r0, #50000
 1000 0010 FFF7FEFF 		bl	FLASH_WaitForLastOperation
 1001              	.LVL47:
 572:Drivers/STM32L1xx_HAL_Driver/Src/stm32l1xx_hal_flash.c **** 
 1002              		.loc 1 572 1 view .LVU271
 1003 0014 08BD     		pop	{r3, pc}
 1004              	.L84:
 1005 0016 00BF     		.align	2
 1006              	.L83:
 1007 0018 003C0240 		.word	1073888256
 1008              		.cfi_endproc
 1009              	.LFE81:
 1011              		.global	pFlash
 1012              		.section	.bss.pFlash,"aw",%nobits
 1013              		.align	2
 1014              		.set	.LANCHOR0,. + 0
 1017              	pFlash:
 1018 0000 00000000 		.space	24
 1018      00000000 
 1018      00000000 
 1018      00000000 
 1018      00000000 
ARM GAS  C:\Users\marce\AppData\Local\Temp\cckSIbNd.s 			page 35


 1019              		.text
 1020              	.Letext0:
 1021              		.file 2 "c:\\st\\stm32cubeide_1.10.1\\stm32cubeide\\plugins\\com.st.stm32cube.ide.mcu.externaltool
 1022              		.file 3 "c:\\st\\stm32cubeide_1.10.1\\stm32cubeide\\plugins\\com.st.stm32cube.ide.mcu.externaltool
 1023              		.file 4 "Drivers/CMSIS/Device/ST/STM32L1xx/Include/stm32l152xe.h"
 1024              		.file 5 "Drivers/STM32L1xx_HAL_Driver/Inc/stm32l1xx_hal_def.h"
 1025              		.file 6 "Drivers/STM32L1xx_HAL_Driver/Inc/stm32l1xx_hal_flash.h"
 1026              		.file 7 "Drivers/STM32L1xx_HAL_Driver/Inc/stm32l1xx_hal.h"
ARM GAS  C:\Users\marce\AppData\Local\Temp\cckSIbNd.s 			page 36

