ARM GAS  /tmp/ccAAsIoz.s 			page 1


   1              		.cpu cortex-m3
   2              		.eabi_attribute 20, 1
   3              		.eabi_attribute 21, 1
   4              		.eabi_attribute 23, 3
   5              		.eabi_attribute 24, 1
   6              		.eabi_attribute 25, 1
   7              		.eabi_attribute 26, 1
   8              		.eabi_attribute 30, 1
   9              		.eabi_attribute 34, 1
  10              		.eabi_attribute 18, 4
  11              		.file	"stm32l1xx_hal_flash_ex.c"
  12              		.text
  13              	.Ltext0:
  14              		.cfi_sections	.debug_frame
  15              		.section	.text.FLASH_OB_GetUser,"ax",%progbits
  16              		.align	1
  17              		.syntax unified
  18              		.thumb
  19              		.thumb_func
  20              		.fpu softvfp
  22              	FLASH_OB_GetUser:
  23              	.LFB86:
  24              		.file 1 "Drivers/STM32L1xx_HAL_Driver/Src/stm32l1xx_hal_flash_ex.c"
   1:Drivers/STM32L1xx_HAL_Driver/Src/stm32l1xx_hal_flash_ex.c **** /**
   2:Drivers/STM32L1xx_HAL_Driver/Src/stm32l1xx_hal_flash_ex.c ****   ******************************************************************************
   3:Drivers/STM32L1xx_HAL_Driver/Src/stm32l1xx_hal_flash_ex.c ****   * @file    stm32l1xx_hal_flash_ex.c
   4:Drivers/STM32L1xx_HAL_Driver/Src/stm32l1xx_hal_flash_ex.c ****   * @author  MCD Application Team
   5:Drivers/STM32L1xx_HAL_Driver/Src/stm32l1xx_hal_flash_ex.c ****   * @brief   Extended FLASH HAL module driver.
   6:Drivers/STM32L1xx_HAL_Driver/Src/stm32l1xx_hal_flash_ex.c ****   *
   7:Drivers/STM32L1xx_HAL_Driver/Src/stm32l1xx_hal_flash_ex.c ****   *          This file provides firmware functions to manage the following
   8:Drivers/STM32L1xx_HAL_Driver/Src/stm32l1xx_hal_flash_ex.c ****   *          functionalities of the internal FLASH memory:
   9:Drivers/STM32L1xx_HAL_Driver/Src/stm32l1xx_hal_flash_ex.c ****   *            + FLASH Interface configuration
  10:Drivers/STM32L1xx_HAL_Driver/Src/stm32l1xx_hal_flash_ex.c ****   *            + FLASH Memory Erasing
  11:Drivers/STM32L1xx_HAL_Driver/Src/stm32l1xx_hal_flash_ex.c ****   *            + DATA EEPROM Programming/Erasing
  12:Drivers/STM32L1xx_HAL_Driver/Src/stm32l1xx_hal_flash_ex.c ****   *            + Option Bytes Programming
  13:Drivers/STM32L1xx_HAL_Driver/Src/stm32l1xx_hal_flash_ex.c ****   *            + Interrupts management
  14:Drivers/STM32L1xx_HAL_Driver/Src/stm32l1xx_hal_flash_ex.c ****   *
  15:Drivers/STM32L1xx_HAL_Driver/Src/stm32l1xx_hal_flash_ex.c ****   @verbatim
  16:Drivers/STM32L1xx_HAL_Driver/Src/stm32l1xx_hal_flash_ex.c ****   ==============================================================================
  17:Drivers/STM32L1xx_HAL_Driver/Src/stm32l1xx_hal_flash_ex.c ****                ##### Flash peripheral Extended features  #####
  18:Drivers/STM32L1xx_HAL_Driver/Src/stm32l1xx_hal_flash_ex.c ****   ==============================================================================
  19:Drivers/STM32L1xx_HAL_Driver/Src/stm32l1xx_hal_flash_ex.c **** 
  20:Drivers/STM32L1xx_HAL_Driver/Src/stm32l1xx_hal_flash_ex.c ****   [..] Comparing to other products, the FLASH interface for STM32L1xx
  21:Drivers/STM32L1xx_HAL_Driver/Src/stm32l1xx_hal_flash_ex.c ****        devices contains the following additional features
  22:Drivers/STM32L1xx_HAL_Driver/Src/stm32l1xx_hal_flash_ex.c ****        (+) Erase functions
  23:Drivers/STM32L1xx_HAL_Driver/Src/stm32l1xx_hal_flash_ex.c ****        (+) DATA_EEPROM memory management
  24:Drivers/STM32L1xx_HAL_Driver/Src/stm32l1xx_hal_flash_ex.c ****        (+) BOOT option bit configuration
  25:Drivers/STM32L1xx_HAL_Driver/Src/stm32l1xx_hal_flash_ex.c ****        (+) PCROP protection for all sectors
  26:Drivers/STM32L1xx_HAL_Driver/Src/stm32l1xx_hal_flash_ex.c **** 
  27:Drivers/STM32L1xx_HAL_Driver/Src/stm32l1xx_hal_flash_ex.c ****                       ##### How to use this driver #####
  28:Drivers/STM32L1xx_HAL_Driver/Src/stm32l1xx_hal_flash_ex.c ****   ==============================================================================
  29:Drivers/STM32L1xx_HAL_Driver/Src/stm32l1xx_hal_flash_ex.c ****   [..] This driver provides functions to configure and program the FLASH memory
  30:Drivers/STM32L1xx_HAL_Driver/Src/stm32l1xx_hal_flash_ex.c ****        of all STM32L1xx. It includes:
  31:Drivers/STM32L1xx_HAL_Driver/Src/stm32l1xx_hal_flash_ex.c ****        (+) Full DATA_EEPROM erase and program management
  32:Drivers/STM32L1xx_HAL_Driver/Src/stm32l1xx_hal_flash_ex.c ****        (+) Boot activation
  33:Drivers/STM32L1xx_HAL_Driver/Src/stm32l1xx_hal_flash_ex.c ****        (+) PCROP protection configuration and control for all pages
  34:Drivers/STM32L1xx_HAL_Driver/Src/stm32l1xx_hal_flash_ex.c **** 
ARM GAS  /tmp/ccAAsIoz.s 			page 2


  35:Drivers/STM32L1xx_HAL_Driver/Src/stm32l1xx_hal_flash_ex.c ****   @endverbatim
  36:Drivers/STM32L1xx_HAL_Driver/Src/stm32l1xx_hal_flash_ex.c ****   ******************************************************************************
  37:Drivers/STM32L1xx_HAL_Driver/Src/stm32l1xx_hal_flash_ex.c ****   * @attention
  38:Drivers/STM32L1xx_HAL_Driver/Src/stm32l1xx_hal_flash_ex.c ****   *
  39:Drivers/STM32L1xx_HAL_Driver/Src/stm32l1xx_hal_flash_ex.c ****   * <h2><center>&copy; Copyright (c) 2017 STMicroelectronics.
  40:Drivers/STM32L1xx_HAL_Driver/Src/stm32l1xx_hal_flash_ex.c ****   * All rights reserved.</center></h2>
  41:Drivers/STM32L1xx_HAL_Driver/Src/stm32l1xx_hal_flash_ex.c ****   *
  42:Drivers/STM32L1xx_HAL_Driver/Src/stm32l1xx_hal_flash_ex.c ****   * This software component is licensed by ST under BSD 3-Clause license,
  43:Drivers/STM32L1xx_HAL_Driver/Src/stm32l1xx_hal_flash_ex.c ****   * the "License"; You may not use this file except in compliance with the
  44:Drivers/STM32L1xx_HAL_Driver/Src/stm32l1xx_hal_flash_ex.c ****   * License. You may obtain a copy of the License at:
  45:Drivers/STM32L1xx_HAL_Driver/Src/stm32l1xx_hal_flash_ex.c ****   *                        opensource.org/licenses/BSD-3-Clause
  46:Drivers/STM32L1xx_HAL_Driver/Src/stm32l1xx_hal_flash_ex.c ****   *
  47:Drivers/STM32L1xx_HAL_Driver/Src/stm32l1xx_hal_flash_ex.c ****   ******************************************************************************
  48:Drivers/STM32L1xx_HAL_Driver/Src/stm32l1xx_hal_flash_ex.c ****   */
  49:Drivers/STM32L1xx_HAL_Driver/Src/stm32l1xx_hal_flash_ex.c **** 
  50:Drivers/STM32L1xx_HAL_Driver/Src/stm32l1xx_hal_flash_ex.c **** /* Includes ------------------------------------------------------------------*/
  51:Drivers/STM32L1xx_HAL_Driver/Src/stm32l1xx_hal_flash_ex.c **** #include "stm32l1xx_hal.h"
  52:Drivers/STM32L1xx_HAL_Driver/Src/stm32l1xx_hal_flash_ex.c **** 
  53:Drivers/STM32L1xx_HAL_Driver/Src/stm32l1xx_hal_flash_ex.c **** /** @addtogroup STM32L1xx_HAL_Driver
  54:Drivers/STM32L1xx_HAL_Driver/Src/stm32l1xx_hal_flash_ex.c ****   * @{
  55:Drivers/STM32L1xx_HAL_Driver/Src/stm32l1xx_hal_flash_ex.c ****   */
  56:Drivers/STM32L1xx_HAL_Driver/Src/stm32l1xx_hal_flash_ex.c **** #ifdef HAL_FLASH_MODULE_ENABLED
  57:Drivers/STM32L1xx_HAL_Driver/Src/stm32l1xx_hal_flash_ex.c **** 
  58:Drivers/STM32L1xx_HAL_Driver/Src/stm32l1xx_hal_flash_ex.c **** /** @addtogroup FLASH
  59:Drivers/STM32L1xx_HAL_Driver/Src/stm32l1xx_hal_flash_ex.c ****   * @{
  60:Drivers/STM32L1xx_HAL_Driver/Src/stm32l1xx_hal_flash_ex.c ****   */
  61:Drivers/STM32L1xx_HAL_Driver/Src/stm32l1xx_hal_flash_ex.c **** /** @addtogroup FLASH_Private_Variables
  62:Drivers/STM32L1xx_HAL_Driver/Src/stm32l1xx_hal_flash_ex.c ****  * @{
  63:Drivers/STM32L1xx_HAL_Driver/Src/stm32l1xx_hal_flash_ex.c ****  */
  64:Drivers/STM32L1xx_HAL_Driver/Src/stm32l1xx_hal_flash_ex.c **** /* Variables used for Erase pages under interruption*/
  65:Drivers/STM32L1xx_HAL_Driver/Src/stm32l1xx_hal_flash_ex.c **** extern FLASH_ProcessTypeDef pFlash;
  66:Drivers/STM32L1xx_HAL_Driver/Src/stm32l1xx_hal_flash_ex.c **** /**
  67:Drivers/STM32L1xx_HAL_Driver/Src/stm32l1xx_hal_flash_ex.c ****   * @}
  68:Drivers/STM32L1xx_HAL_Driver/Src/stm32l1xx_hal_flash_ex.c ****   */
  69:Drivers/STM32L1xx_HAL_Driver/Src/stm32l1xx_hal_flash_ex.c **** 
  70:Drivers/STM32L1xx_HAL_Driver/Src/stm32l1xx_hal_flash_ex.c **** /**
  71:Drivers/STM32L1xx_HAL_Driver/Src/stm32l1xx_hal_flash_ex.c ****   * @}
  72:Drivers/STM32L1xx_HAL_Driver/Src/stm32l1xx_hal_flash_ex.c ****   */
  73:Drivers/STM32L1xx_HAL_Driver/Src/stm32l1xx_hal_flash_ex.c **** 
  74:Drivers/STM32L1xx_HAL_Driver/Src/stm32l1xx_hal_flash_ex.c **** /** @defgroup FLASHEx FLASHEx
  75:Drivers/STM32L1xx_HAL_Driver/Src/stm32l1xx_hal_flash_ex.c ****   * @brief FLASH HAL Extension module driver
  76:Drivers/STM32L1xx_HAL_Driver/Src/stm32l1xx_hal_flash_ex.c ****   * @{
  77:Drivers/STM32L1xx_HAL_Driver/Src/stm32l1xx_hal_flash_ex.c ****   */
  78:Drivers/STM32L1xx_HAL_Driver/Src/stm32l1xx_hal_flash_ex.c **** 
  79:Drivers/STM32L1xx_HAL_Driver/Src/stm32l1xx_hal_flash_ex.c **** /* Private typedef -----------------------------------------------------------*/
  80:Drivers/STM32L1xx_HAL_Driver/Src/stm32l1xx_hal_flash_ex.c **** /* Private define ------------------------------------------------------------*/
  81:Drivers/STM32L1xx_HAL_Driver/Src/stm32l1xx_hal_flash_ex.c **** /** @defgroup FLASHEx_Private_Constants FLASHEx Private Constants
  82:Drivers/STM32L1xx_HAL_Driver/Src/stm32l1xx_hal_flash_ex.c ****  * @{
  83:Drivers/STM32L1xx_HAL_Driver/Src/stm32l1xx_hal_flash_ex.c ****  */
  84:Drivers/STM32L1xx_HAL_Driver/Src/stm32l1xx_hal_flash_ex.c **** /**
  85:Drivers/STM32L1xx_HAL_Driver/Src/stm32l1xx_hal_flash_ex.c ****   * @}
  86:Drivers/STM32L1xx_HAL_Driver/Src/stm32l1xx_hal_flash_ex.c ****   */
  87:Drivers/STM32L1xx_HAL_Driver/Src/stm32l1xx_hal_flash_ex.c **** 
  88:Drivers/STM32L1xx_HAL_Driver/Src/stm32l1xx_hal_flash_ex.c **** /* Private macro -------------------------------------------------------------*/
  89:Drivers/STM32L1xx_HAL_Driver/Src/stm32l1xx_hal_flash_ex.c **** /** @defgroup FLASHEx_Private_Macros FLASHEx Private Macros
  90:Drivers/STM32L1xx_HAL_Driver/Src/stm32l1xx_hal_flash_ex.c ****   * @{
  91:Drivers/STM32L1xx_HAL_Driver/Src/stm32l1xx_hal_flash_ex.c ****   */
ARM GAS  /tmp/ccAAsIoz.s 			page 3


  92:Drivers/STM32L1xx_HAL_Driver/Src/stm32l1xx_hal_flash_ex.c **** /**
  93:Drivers/STM32L1xx_HAL_Driver/Src/stm32l1xx_hal_flash_ex.c ****   * @}
  94:Drivers/STM32L1xx_HAL_Driver/Src/stm32l1xx_hal_flash_ex.c ****   */
  95:Drivers/STM32L1xx_HAL_Driver/Src/stm32l1xx_hal_flash_ex.c **** 
  96:Drivers/STM32L1xx_HAL_Driver/Src/stm32l1xx_hal_flash_ex.c **** /* Private variables ---------------------------------------------------------*/
  97:Drivers/STM32L1xx_HAL_Driver/Src/stm32l1xx_hal_flash_ex.c **** /* Private function prototypes -----------------------------------------------*/
  98:Drivers/STM32L1xx_HAL_Driver/Src/stm32l1xx_hal_flash_ex.c **** /** @defgroup FLASHEx_Private_Functions FLASHEx Private Functions
  99:Drivers/STM32L1xx_HAL_Driver/Src/stm32l1xx_hal_flash_ex.c ****  * @{
 100:Drivers/STM32L1xx_HAL_Driver/Src/stm32l1xx_hal_flash_ex.c ****  */
 101:Drivers/STM32L1xx_HAL_Driver/Src/stm32l1xx_hal_flash_ex.c **** void                      FLASH_PageErase(uint32_t PageAddress);
 102:Drivers/STM32L1xx_HAL_Driver/Src/stm32l1xx_hal_flash_ex.c **** static HAL_StatusTypeDef  FLASH_OB_WRPConfig(FLASH_OBProgramInitTypeDef *pOBInit, FunctionalState N
 103:Drivers/STM32L1xx_HAL_Driver/Src/stm32l1xx_hal_flash_ex.c **** static void               FLASH_OB_WRPConfigWRP1OrPCROP1(uint32_t WRP1OrPCROP1, FunctionalState New
 104:Drivers/STM32L1xx_HAL_Driver/Src/stm32l1xx_hal_flash_ex.c **** #if defined(STM32L100xC) || defined(STM32L151xC) || defined(STM32L152xC) || defined(STM32L162xC)   
 105:Drivers/STM32L1xx_HAL_Driver/Src/stm32l1xx_hal_flash_ex.c ****  || defined(STM32L151xCA) || defined(STM32L151xD) || defined(STM32L151xDX) || defined(STM32L152xCA)
 106:Drivers/STM32L1xx_HAL_Driver/Src/stm32l1xx_hal_flash_ex.c ****  || defined(STM32L152xD) || defined(STM32L152xDX) || defined(STM32L162xCA) || defined(STM32L162xD) 
 107:Drivers/STM32L1xx_HAL_Driver/Src/stm32l1xx_hal_flash_ex.c ****  || defined(STM32L162xDX) || defined(STM32L151xE) || defined(STM32L152xE) || defined(STM32L162xE)
 108:Drivers/STM32L1xx_HAL_Driver/Src/stm32l1xx_hal_flash_ex.c **** static void               FLASH_OB_WRPConfigWRP2OrPCROP2(uint32_t WRP2OrPCROP2, FunctionalState New
 109:Drivers/STM32L1xx_HAL_Driver/Src/stm32l1xx_hal_flash_ex.c **** #endif /* STM32L100xC || STM32L151xC || STM32L152xC || (...) || STM32L151xE || STM32L152xE || STM32
 110:Drivers/STM32L1xx_HAL_Driver/Src/stm32l1xx_hal_flash_ex.c **** #if defined(STM32L151xD) || defined(STM32L151xDX) || defined(STM32L152xD) || defined(STM32L152xDX) 
 111:Drivers/STM32L1xx_HAL_Driver/Src/stm32l1xx_hal_flash_ex.c ****  || defined(STM32L162xD) || defined(STM32L162xDX) || defined(STM32L151xE) || defined(STM32L152xE)  
 112:Drivers/STM32L1xx_HAL_Driver/Src/stm32l1xx_hal_flash_ex.c ****  || defined(STM32L162xE)
 113:Drivers/STM32L1xx_HAL_Driver/Src/stm32l1xx_hal_flash_ex.c **** static void               FLASH_OB_WRPConfigWRP3(uint32_t WRP3, FunctionalState NewState);
 114:Drivers/STM32L1xx_HAL_Driver/Src/stm32l1xx_hal_flash_ex.c **** #endif /* STM32L151xD || STM32L152xD || STM32L162xD || STM32L151xE || STM32L152xE || STM32L162xE */
 115:Drivers/STM32L1xx_HAL_Driver/Src/stm32l1xx_hal_flash_ex.c **** #if defined(STM32L151xE) || defined(STM32L152xE) || defined(STM32L162xE) || defined(STM32L151xDX) \
 116:Drivers/STM32L1xx_HAL_Driver/Src/stm32l1xx_hal_flash_ex.c ****  || defined(STM32L152xDX) || defined(STM32L162xDX)
 117:Drivers/STM32L1xx_HAL_Driver/Src/stm32l1xx_hal_flash_ex.c **** static void               FLASH_OB_WRPConfigWRP4(uint32_t WRP4, FunctionalState NewState);
 118:Drivers/STM32L1xx_HAL_Driver/Src/stm32l1xx_hal_flash_ex.c **** #endif /* STM32L151xE || STM32L152xE || STM32L151xDX || ... */
 119:Drivers/STM32L1xx_HAL_Driver/Src/stm32l1xx_hal_flash_ex.c **** #if defined(FLASH_OBR_SPRMOD)
 120:Drivers/STM32L1xx_HAL_Driver/Src/stm32l1xx_hal_flash_ex.c **** static HAL_StatusTypeDef  FLASH_OB_PCROPConfig(FLASH_AdvOBProgramInitTypeDef *pAdvOBInit, Functiona
 121:Drivers/STM32L1xx_HAL_Driver/Src/stm32l1xx_hal_flash_ex.c **** #endif /* FLASH_OBR_SPRMOD */
 122:Drivers/STM32L1xx_HAL_Driver/Src/stm32l1xx_hal_flash_ex.c **** #if defined(FLASH_OBR_nRST_BFB2)
 123:Drivers/STM32L1xx_HAL_Driver/Src/stm32l1xx_hal_flash_ex.c **** static HAL_StatusTypeDef  FLASH_OB_BootConfig(uint8_t OB_BOOT);
 124:Drivers/STM32L1xx_HAL_Driver/Src/stm32l1xx_hal_flash_ex.c **** #endif /* FLASH_OBR_nRST_BFB2 */
 125:Drivers/STM32L1xx_HAL_Driver/Src/stm32l1xx_hal_flash_ex.c **** static HAL_StatusTypeDef  FLASH_OB_RDPConfig(uint8_t OB_RDP);
 126:Drivers/STM32L1xx_HAL_Driver/Src/stm32l1xx_hal_flash_ex.c **** static HAL_StatusTypeDef  FLASH_OB_UserConfig(uint8_t OB_IWDG, uint8_t OB_STOP, uint8_t OB_STDBY);
 127:Drivers/STM32L1xx_HAL_Driver/Src/stm32l1xx_hal_flash_ex.c **** static HAL_StatusTypeDef  FLASH_OB_BORConfig(uint8_t OB_BOR);
 128:Drivers/STM32L1xx_HAL_Driver/Src/stm32l1xx_hal_flash_ex.c **** static uint8_t            FLASH_OB_GetRDP(void);
 129:Drivers/STM32L1xx_HAL_Driver/Src/stm32l1xx_hal_flash_ex.c **** static uint8_t            FLASH_OB_GetUser(void);
 130:Drivers/STM32L1xx_HAL_Driver/Src/stm32l1xx_hal_flash_ex.c **** static uint8_t            FLASH_OB_GetBOR(void);
 131:Drivers/STM32L1xx_HAL_Driver/Src/stm32l1xx_hal_flash_ex.c **** static HAL_StatusTypeDef  FLASH_DATAEEPROM_FastProgramByte(uint32_t Address, uint8_t Data);
 132:Drivers/STM32L1xx_HAL_Driver/Src/stm32l1xx_hal_flash_ex.c **** static HAL_StatusTypeDef  FLASH_DATAEEPROM_FastProgramHalfWord(uint32_t Address, uint16_t Data);
 133:Drivers/STM32L1xx_HAL_Driver/Src/stm32l1xx_hal_flash_ex.c **** static HAL_StatusTypeDef  FLASH_DATAEEPROM_FastProgramWord(uint32_t Address, uint32_t Data);
 134:Drivers/STM32L1xx_HAL_Driver/Src/stm32l1xx_hal_flash_ex.c **** static HAL_StatusTypeDef  FLASH_DATAEEPROM_ProgramWord(uint32_t Address, uint32_t Data);
 135:Drivers/STM32L1xx_HAL_Driver/Src/stm32l1xx_hal_flash_ex.c **** static HAL_StatusTypeDef  FLASH_DATAEEPROM_ProgramHalfWord(uint32_t Address, uint16_t Data);
 136:Drivers/STM32L1xx_HAL_Driver/Src/stm32l1xx_hal_flash_ex.c **** static HAL_StatusTypeDef  FLASH_DATAEEPROM_ProgramByte(uint32_t Address, uint8_t Data);
 137:Drivers/STM32L1xx_HAL_Driver/Src/stm32l1xx_hal_flash_ex.c **** /**
 138:Drivers/STM32L1xx_HAL_Driver/Src/stm32l1xx_hal_flash_ex.c ****   * @}
 139:Drivers/STM32L1xx_HAL_Driver/Src/stm32l1xx_hal_flash_ex.c ****   */
 140:Drivers/STM32L1xx_HAL_Driver/Src/stm32l1xx_hal_flash_ex.c **** 
 141:Drivers/STM32L1xx_HAL_Driver/Src/stm32l1xx_hal_flash_ex.c **** /* Exported functions ---------------------------------------------------------*/
 142:Drivers/STM32L1xx_HAL_Driver/Src/stm32l1xx_hal_flash_ex.c **** /** @defgroup FLASHEx_Exported_Functions FLASHEx Exported Functions
 143:Drivers/STM32L1xx_HAL_Driver/Src/stm32l1xx_hal_flash_ex.c ****   * @{
 144:Drivers/STM32L1xx_HAL_Driver/Src/stm32l1xx_hal_flash_ex.c ****   */
 145:Drivers/STM32L1xx_HAL_Driver/Src/stm32l1xx_hal_flash_ex.c **** 
 146:Drivers/STM32L1xx_HAL_Driver/Src/stm32l1xx_hal_flash_ex.c **** /** @defgroup FLASHEx_Exported_Functions_Group1 FLASHEx Memory Erasing functions
 147:Drivers/STM32L1xx_HAL_Driver/Src/stm32l1xx_hal_flash_ex.c ****  *  @brief   FLASH Memory Erasing functions
 148:Drivers/STM32L1xx_HAL_Driver/Src/stm32l1xx_hal_flash_ex.c ****  *
ARM GAS  /tmp/ccAAsIoz.s 			page 4


 149:Drivers/STM32L1xx_HAL_Driver/Src/stm32l1xx_hal_flash_ex.c **** @verbatim
 150:Drivers/STM32L1xx_HAL_Driver/Src/stm32l1xx_hal_flash_ex.c ****   ==============================================================================
 151:Drivers/STM32L1xx_HAL_Driver/Src/stm32l1xx_hal_flash_ex.c ****                 ##### FLASH Erasing Programming functions #####
 152:Drivers/STM32L1xx_HAL_Driver/Src/stm32l1xx_hal_flash_ex.c ****   ==============================================================================
 153:Drivers/STM32L1xx_HAL_Driver/Src/stm32l1xx_hal_flash_ex.c **** 
 154:Drivers/STM32L1xx_HAL_Driver/Src/stm32l1xx_hal_flash_ex.c ****     [..] The FLASH Memory Erasing functions, includes the following functions:
 155:Drivers/STM32L1xx_HAL_Driver/Src/stm32l1xx_hal_flash_ex.c ****     (+) @ref HAL_FLASHEx_Erase: return only when erase has been done
 156:Drivers/STM32L1xx_HAL_Driver/Src/stm32l1xx_hal_flash_ex.c ****     (+) @ref HAL_FLASHEx_Erase_IT: end of erase is done when @ref HAL_FLASH_EndOfOperationCallback
 157:Drivers/STM32L1xx_HAL_Driver/Src/stm32l1xx_hal_flash_ex.c ****         is called with parameter 0xFFFFFFFF
 158:Drivers/STM32L1xx_HAL_Driver/Src/stm32l1xx_hal_flash_ex.c **** 
 159:Drivers/STM32L1xx_HAL_Driver/Src/stm32l1xx_hal_flash_ex.c ****     [..] Any operation of erase should follow these steps:
 160:Drivers/STM32L1xx_HAL_Driver/Src/stm32l1xx_hal_flash_ex.c ****     (#) Call the @ref HAL_FLASH_Unlock() function to enable the flash control register and
 161:Drivers/STM32L1xx_HAL_Driver/Src/stm32l1xx_hal_flash_ex.c ****         program memory access.
 162:Drivers/STM32L1xx_HAL_Driver/Src/stm32l1xx_hal_flash_ex.c ****     (#) Call the desired function to erase page.
 163:Drivers/STM32L1xx_HAL_Driver/Src/stm32l1xx_hal_flash_ex.c ****     (#) Call the @ref HAL_FLASH_Lock() to disable the flash program memory access
 164:Drivers/STM32L1xx_HAL_Driver/Src/stm32l1xx_hal_flash_ex.c ****        (recommended to protect the FLASH memory against possible unwanted operation).
 165:Drivers/STM32L1xx_HAL_Driver/Src/stm32l1xx_hal_flash_ex.c **** 
 166:Drivers/STM32L1xx_HAL_Driver/Src/stm32l1xx_hal_flash_ex.c **** @endverbatim
 167:Drivers/STM32L1xx_HAL_Driver/Src/stm32l1xx_hal_flash_ex.c ****   * @{
 168:Drivers/STM32L1xx_HAL_Driver/Src/stm32l1xx_hal_flash_ex.c ****   */
 169:Drivers/STM32L1xx_HAL_Driver/Src/stm32l1xx_hal_flash_ex.c **** 
 170:Drivers/STM32L1xx_HAL_Driver/Src/stm32l1xx_hal_flash_ex.c **** /**
 171:Drivers/STM32L1xx_HAL_Driver/Src/stm32l1xx_hal_flash_ex.c ****   * @brief  Erase the specified FLASH memory Pages
 172:Drivers/STM32L1xx_HAL_Driver/Src/stm32l1xx_hal_flash_ex.c ****   * @note   To correctly run this function, the @ref HAL_FLASH_Unlock() function
 173:Drivers/STM32L1xx_HAL_Driver/Src/stm32l1xx_hal_flash_ex.c ****   *         must be called before.
 174:Drivers/STM32L1xx_HAL_Driver/Src/stm32l1xx_hal_flash_ex.c ****   *         Call the @ref HAL_FLASH_Lock() to disable the flash memory access
 175:Drivers/STM32L1xx_HAL_Driver/Src/stm32l1xx_hal_flash_ex.c ****   *         (recommended to protect the FLASH memory against possible unwanted operation)
 176:Drivers/STM32L1xx_HAL_Driver/Src/stm32l1xx_hal_flash_ex.c ****   * @note   For STM32L151xDX/STM32L152xDX/STM32L162xDX, as memory is not continuous between
 177:Drivers/STM32L1xx_HAL_Driver/Src/stm32l1xx_hal_flash_ex.c ****   *         2 banks, user should perform pages erase by bank only.
 178:Drivers/STM32L1xx_HAL_Driver/Src/stm32l1xx_hal_flash_ex.c ****   * @param[in]  pEraseInit pointer to an FLASH_EraseInitTypeDef structure that
 179:Drivers/STM32L1xx_HAL_Driver/Src/stm32l1xx_hal_flash_ex.c ****   *         contains the configuration information for the erasing.
 180:Drivers/STM32L1xx_HAL_Driver/Src/stm32l1xx_hal_flash_ex.c ****   *
 181:Drivers/STM32L1xx_HAL_Driver/Src/stm32l1xx_hal_flash_ex.c ****   * @param[out]  PageError pointer to variable  that
 182:Drivers/STM32L1xx_HAL_Driver/Src/stm32l1xx_hal_flash_ex.c ****   *         contains the configuration information on faulty page in case of error
 183:Drivers/STM32L1xx_HAL_Driver/Src/stm32l1xx_hal_flash_ex.c ****   *         (0xFFFFFFFF means that all the pages have been correctly erased)
 184:Drivers/STM32L1xx_HAL_Driver/Src/stm32l1xx_hal_flash_ex.c ****   *
 185:Drivers/STM32L1xx_HAL_Driver/Src/stm32l1xx_hal_flash_ex.c ****   * @retval HAL_StatusTypeDef HAL Status
 186:Drivers/STM32L1xx_HAL_Driver/Src/stm32l1xx_hal_flash_ex.c ****   */
 187:Drivers/STM32L1xx_HAL_Driver/Src/stm32l1xx_hal_flash_ex.c **** HAL_StatusTypeDef HAL_FLASHEx_Erase(FLASH_EraseInitTypeDef *pEraseInit, uint32_t *PageError)
 188:Drivers/STM32L1xx_HAL_Driver/Src/stm32l1xx_hal_flash_ex.c **** {
 189:Drivers/STM32L1xx_HAL_Driver/Src/stm32l1xx_hal_flash_ex.c ****   HAL_StatusTypeDef status = HAL_ERROR;
 190:Drivers/STM32L1xx_HAL_Driver/Src/stm32l1xx_hal_flash_ex.c ****   uint32_t address = 0U;
 191:Drivers/STM32L1xx_HAL_Driver/Src/stm32l1xx_hal_flash_ex.c **** 
 192:Drivers/STM32L1xx_HAL_Driver/Src/stm32l1xx_hal_flash_ex.c ****   /* Process Locked */
 193:Drivers/STM32L1xx_HAL_Driver/Src/stm32l1xx_hal_flash_ex.c ****   __HAL_LOCK(&pFlash);
 194:Drivers/STM32L1xx_HAL_Driver/Src/stm32l1xx_hal_flash_ex.c **** 
 195:Drivers/STM32L1xx_HAL_Driver/Src/stm32l1xx_hal_flash_ex.c ****   /* Wait for last operation to be completed */
 196:Drivers/STM32L1xx_HAL_Driver/Src/stm32l1xx_hal_flash_ex.c ****   status = FLASH_WaitForLastOperation(FLASH_TIMEOUT_VALUE);
 197:Drivers/STM32L1xx_HAL_Driver/Src/stm32l1xx_hal_flash_ex.c **** 
 198:Drivers/STM32L1xx_HAL_Driver/Src/stm32l1xx_hal_flash_ex.c ****   if (status == HAL_OK)
 199:Drivers/STM32L1xx_HAL_Driver/Src/stm32l1xx_hal_flash_ex.c ****   {
 200:Drivers/STM32L1xx_HAL_Driver/Src/stm32l1xx_hal_flash_ex.c ****     /*Initialization of PageError variable*/
 201:Drivers/STM32L1xx_HAL_Driver/Src/stm32l1xx_hal_flash_ex.c ****     *PageError = 0xFFFFFFFFU;
 202:Drivers/STM32L1xx_HAL_Driver/Src/stm32l1xx_hal_flash_ex.c **** 
 203:Drivers/STM32L1xx_HAL_Driver/Src/stm32l1xx_hal_flash_ex.c ****     /* Check the parameters */
 204:Drivers/STM32L1xx_HAL_Driver/Src/stm32l1xx_hal_flash_ex.c ****     assert_param(IS_NBPAGES(pEraseInit->NbPages));
 205:Drivers/STM32L1xx_HAL_Driver/Src/stm32l1xx_hal_flash_ex.c ****     assert_param(IS_FLASH_TYPEERASE(pEraseInit->TypeErase));
ARM GAS  /tmp/ccAAsIoz.s 			page 5


 206:Drivers/STM32L1xx_HAL_Driver/Src/stm32l1xx_hal_flash_ex.c ****     assert_param(IS_FLASH_PROGRAM_ADDRESS(pEraseInit->PageAddress));
 207:Drivers/STM32L1xx_HAL_Driver/Src/stm32l1xx_hal_flash_ex.c ****     assert_param(IS_FLASH_PROGRAM_ADDRESS((pEraseInit->PageAddress & ~(FLASH_PAGE_SIZE - 1U)) + pEr
 208:Drivers/STM32L1xx_HAL_Driver/Src/stm32l1xx_hal_flash_ex.c **** 
 209:Drivers/STM32L1xx_HAL_Driver/Src/stm32l1xx_hal_flash_ex.c **** #if defined(STM32L151xDX) || defined(STM32L152xDX) || defined(STM32L162xDX)
 210:Drivers/STM32L1xx_HAL_Driver/Src/stm32l1xx_hal_flash_ex.c ****     /* Check on which bank belongs the 1st address to erase */
 211:Drivers/STM32L1xx_HAL_Driver/Src/stm32l1xx_hal_flash_ex.c ****     if (pEraseInit->PageAddress < FLASH_BANK2_BASE)
 212:Drivers/STM32L1xx_HAL_Driver/Src/stm32l1xx_hal_flash_ex.c ****     {
 213:Drivers/STM32L1xx_HAL_Driver/Src/stm32l1xx_hal_flash_ex.c ****       /* BANK1 */
 214:Drivers/STM32L1xx_HAL_Driver/Src/stm32l1xx_hal_flash_ex.c ****       /* Check that last page to erase still belongs to BANK1 */
 215:Drivers/STM32L1xx_HAL_Driver/Src/stm32l1xx_hal_flash_ex.c ****       if (((pEraseInit->PageAddress & ~(FLASH_PAGE_SIZE - 1U)) + pEraseInit->NbPages * FLASH_PAGE_S
 216:Drivers/STM32L1xx_HAL_Driver/Src/stm32l1xx_hal_flash_ex.c ****       {
 217:Drivers/STM32L1xx_HAL_Driver/Src/stm32l1xx_hal_flash_ex.c ****         /*  Last page does not belong to BANK1, erase procedure cannot be performed because memory 
 218:Drivers/STM32L1xx_HAL_Driver/Src/stm32l1xx_hal_flash_ex.c ****             continuous */
 219:Drivers/STM32L1xx_HAL_Driver/Src/stm32l1xx_hal_flash_ex.c ****         /* Process Unlocked */
 220:Drivers/STM32L1xx_HAL_Driver/Src/stm32l1xx_hal_flash_ex.c ****         __HAL_UNLOCK(&pFlash);
 221:Drivers/STM32L1xx_HAL_Driver/Src/stm32l1xx_hal_flash_ex.c ****         return HAL_ERROR;
 222:Drivers/STM32L1xx_HAL_Driver/Src/stm32l1xx_hal_flash_ex.c ****       }
 223:Drivers/STM32L1xx_HAL_Driver/Src/stm32l1xx_hal_flash_ex.c ****     }
 224:Drivers/STM32L1xx_HAL_Driver/Src/stm32l1xx_hal_flash_ex.c ****     else
 225:Drivers/STM32L1xx_HAL_Driver/Src/stm32l1xx_hal_flash_ex.c ****     {
 226:Drivers/STM32L1xx_HAL_Driver/Src/stm32l1xx_hal_flash_ex.c ****       /* BANK2 */
 227:Drivers/STM32L1xx_HAL_Driver/Src/stm32l1xx_hal_flash_ex.c ****       /* Check that last page to erase still belongs to BANK2 */
 228:Drivers/STM32L1xx_HAL_Driver/Src/stm32l1xx_hal_flash_ex.c ****       if (((pEraseInit->PageAddress & ~(FLASH_PAGE_SIZE - 1U)) + pEraseInit->NbPages * FLASH_PAGE_S
 229:Drivers/STM32L1xx_HAL_Driver/Src/stm32l1xx_hal_flash_ex.c ****       {
 230:Drivers/STM32L1xx_HAL_Driver/Src/stm32l1xx_hal_flash_ex.c ****         /*  Last page does not belong to BANK2, erase procedure cannot be performed because memory 
 231:Drivers/STM32L1xx_HAL_Driver/Src/stm32l1xx_hal_flash_ex.c ****             continuous */
 232:Drivers/STM32L1xx_HAL_Driver/Src/stm32l1xx_hal_flash_ex.c ****         /* Process Unlocked */
 233:Drivers/STM32L1xx_HAL_Driver/Src/stm32l1xx_hal_flash_ex.c ****         __HAL_UNLOCK(&pFlash);
 234:Drivers/STM32L1xx_HAL_Driver/Src/stm32l1xx_hal_flash_ex.c ****         return HAL_ERROR;
 235:Drivers/STM32L1xx_HAL_Driver/Src/stm32l1xx_hal_flash_ex.c ****       }
 236:Drivers/STM32L1xx_HAL_Driver/Src/stm32l1xx_hal_flash_ex.c ****     }
 237:Drivers/STM32L1xx_HAL_Driver/Src/stm32l1xx_hal_flash_ex.c **** #endif /* STM32L151xDX || STM32L152xDX || STM32L162xDX */
 238:Drivers/STM32L1xx_HAL_Driver/Src/stm32l1xx_hal_flash_ex.c **** 
 239:Drivers/STM32L1xx_HAL_Driver/Src/stm32l1xx_hal_flash_ex.c ****     /* Erase page by page to be done*/
 240:Drivers/STM32L1xx_HAL_Driver/Src/stm32l1xx_hal_flash_ex.c ****     for(address = pEraseInit->PageAddress;
 241:Drivers/STM32L1xx_HAL_Driver/Src/stm32l1xx_hal_flash_ex.c ****         address < ((pEraseInit->NbPages * FLASH_PAGE_SIZE) + pEraseInit->PageAddress);
 242:Drivers/STM32L1xx_HAL_Driver/Src/stm32l1xx_hal_flash_ex.c ****         address += FLASH_PAGE_SIZE)
 243:Drivers/STM32L1xx_HAL_Driver/Src/stm32l1xx_hal_flash_ex.c ****     {
 244:Drivers/STM32L1xx_HAL_Driver/Src/stm32l1xx_hal_flash_ex.c ****       FLASH_PageErase(address);
 245:Drivers/STM32L1xx_HAL_Driver/Src/stm32l1xx_hal_flash_ex.c **** 
 246:Drivers/STM32L1xx_HAL_Driver/Src/stm32l1xx_hal_flash_ex.c ****       /* Wait for last operation to be completed */
 247:Drivers/STM32L1xx_HAL_Driver/Src/stm32l1xx_hal_flash_ex.c ****       status = FLASH_WaitForLastOperation(FLASH_TIMEOUT_VALUE);
 248:Drivers/STM32L1xx_HAL_Driver/Src/stm32l1xx_hal_flash_ex.c **** 
 249:Drivers/STM32L1xx_HAL_Driver/Src/stm32l1xx_hal_flash_ex.c ****       /* If the erase operation is completed, disable the ERASE Bit */
 250:Drivers/STM32L1xx_HAL_Driver/Src/stm32l1xx_hal_flash_ex.c ****       CLEAR_BIT(FLASH->PECR, FLASH_PECR_PROG);
 251:Drivers/STM32L1xx_HAL_Driver/Src/stm32l1xx_hal_flash_ex.c ****       CLEAR_BIT(FLASH->PECR, FLASH_PECR_ERASE);
 252:Drivers/STM32L1xx_HAL_Driver/Src/stm32l1xx_hal_flash_ex.c **** 
 253:Drivers/STM32L1xx_HAL_Driver/Src/stm32l1xx_hal_flash_ex.c ****       if (status != HAL_OK)
 254:Drivers/STM32L1xx_HAL_Driver/Src/stm32l1xx_hal_flash_ex.c ****       {
 255:Drivers/STM32L1xx_HAL_Driver/Src/stm32l1xx_hal_flash_ex.c ****         /* In case of error, stop erase procedure and return the faulty address */
 256:Drivers/STM32L1xx_HAL_Driver/Src/stm32l1xx_hal_flash_ex.c ****         *PageError = address;
 257:Drivers/STM32L1xx_HAL_Driver/Src/stm32l1xx_hal_flash_ex.c ****         break;
 258:Drivers/STM32L1xx_HAL_Driver/Src/stm32l1xx_hal_flash_ex.c ****       }
 259:Drivers/STM32L1xx_HAL_Driver/Src/stm32l1xx_hal_flash_ex.c ****     }
 260:Drivers/STM32L1xx_HAL_Driver/Src/stm32l1xx_hal_flash_ex.c ****   }
 261:Drivers/STM32L1xx_HAL_Driver/Src/stm32l1xx_hal_flash_ex.c **** 
 262:Drivers/STM32L1xx_HAL_Driver/Src/stm32l1xx_hal_flash_ex.c ****   /* Process Unlocked */
ARM GAS  /tmp/ccAAsIoz.s 			page 6


 263:Drivers/STM32L1xx_HAL_Driver/Src/stm32l1xx_hal_flash_ex.c ****   __HAL_UNLOCK(&pFlash);
 264:Drivers/STM32L1xx_HAL_Driver/Src/stm32l1xx_hal_flash_ex.c **** 
 265:Drivers/STM32L1xx_HAL_Driver/Src/stm32l1xx_hal_flash_ex.c ****   return status;
 266:Drivers/STM32L1xx_HAL_Driver/Src/stm32l1xx_hal_flash_ex.c **** }
 267:Drivers/STM32L1xx_HAL_Driver/Src/stm32l1xx_hal_flash_ex.c **** 
 268:Drivers/STM32L1xx_HAL_Driver/Src/stm32l1xx_hal_flash_ex.c **** /**
 269:Drivers/STM32L1xx_HAL_Driver/Src/stm32l1xx_hal_flash_ex.c ****   * @brief  Perform a page erase of the specified FLASH memory pages  with interrupt enabled
 270:Drivers/STM32L1xx_HAL_Driver/Src/stm32l1xx_hal_flash_ex.c ****   * @note   To correctly run this function, the @ref HAL_FLASH_Unlock() function
 271:Drivers/STM32L1xx_HAL_Driver/Src/stm32l1xx_hal_flash_ex.c ****   *         must be called before.
 272:Drivers/STM32L1xx_HAL_Driver/Src/stm32l1xx_hal_flash_ex.c ****   *         Call the @ref HAL_FLASH_Lock() to disable the flash memory access
 273:Drivers/STM32L1xx_HAL_Driver/Src/stm32l1xx_hal_flash_ex.c ****   *         (recommended to protect the FLASH memory against possible unwanted operation)
 274:Drivers/STM32L1xx_HAL_Driver/Src/stm32l1xx_hal_flash_ex.c ****   *          End of erase is done when @ref HAL_FLASH_EndOfOperationCallback is called with paramet
 275:Drivers/STM32L1xx_HAL_Driver/Src/stm32l1xx_hal_flash_ex.c ****   *          0xFFFFFFFF
 276:Drivers/STM32L1xx_HAL_Driver/Src/stm32l1xx_hal_flash_ex.c ****   * @note   For STM32L151xDX/STM32L152xDX/STM32L162xDX, as memory is not continuous between
 277:Drivers/STM32L1xx_HAL_Driver/Src/stm32l1xx_hal_flash_ex.c ****   *         2 banks, user should perform pages erase by bank only.
 278:Drivers/STM32L1xx_HAL_Driver/Src/stm32l1xx_hal_flash_ex.c ****   * @param  pEraseInit pointer to an FLASH_EraseInitTypeDef structure that
 279:Drivers/STM32L1xx_HAL_Driver/Src/stm32l1xx_hal_flash_ex.c ****   *         contains the configuration information for the erasing.
 280:Drivers/STM32L1xx_HAL_Driver/Src/stm32l1xx_hal_flash_ex.c ****   *
 281:Drivers/STM32L1xx_HAL_Driver/Src/stm32l1xx_hal_flash_ex.c ****   * @retval HAL_StatusTypeDef HAL Status
 282:Drivers/STM32L1xx_HAL_Driver/Src/stm32l1xx_hal_flash_ex.c ****   */
 283:Drivers/STM32L1xx_HAL_Driver/Src/stm32l1xx_hal_flash_ex.c **** HAL_StatusTypeDef HAL_FLASHEx_Erase_IT(FLASH_EraseInitTypeDef *pEraseInit)
 284:Drivers/STM32L1xx_HAL_Driver/Src/stm32l1xx_hal_flash_ex.c **** {
 285:Drivers/STM32L1xx_HAL_Driver/Src/stm32l1xx_hal_flash_ex.c ****   HAL_StatusTypeDef status = HAL_ERROR;
 286:Drivers/STM32L1xx_HAL_Driver/Src/stm32l1xx_hal_flash_ex.c **** 
 287:Drivers/STM32L1xx_HAL_Driver/Src/stm32l1xx_hal_flash_ex.c ****   /* If procedure already ongoing, reject the next one */
 288:Drivers/STM32L1xx_HAL_Driver/Src/stm32l1xx_hal_flash_ex.c ****   if (pFlash.ProcedureOnGoing != FLASH_PROC_NONE)
 289:Drivers/STM32L1xx_HAL_Driver/Src/stm32l1xx_hal_flash_ex.c ****   {
 290:Drivers/STM32L1xx_HAL_Driver/Src/stm32l1xx_hal_flash_ex.c ****     return HAL_ERROR;
 291:Drivers/STM32L1xx_HAL_Driver/Src/stm32l1xx_hal_flash_ex.c ****   }
 292:Drivers/STM32L1xx_HAL_Driver/Src/stm32l1xx_hal_flash_ex.c **** 
 293:Drivers/STM32L1xx_HAL_Driver/Src/stm32l1xx_hal_flash_ex.c ****   /* Check the parameters */
 294:Drivers/STM32L1xx_HAL_Driver/Src/stm32l1xx_hal_flash_ex.c ****   assert_param(IS_NBPAGES(pEraseInit->NbPages));
 295:Drivers/STM32L1xx_HAL_Driver/Src/stm32l1xx_hal_flash_ex.c ****   assert_param(IS_FLASH_TYPEERASE(pEraseInit->TypeErase));
 296:Drivers/STM32L1xx_HAL_Driver/Src/stm32l1xx_hal_flash_ex.c ****   assert_param(IS_FLASH_PROGRAM_ADDRESS(pEraseInit->PageAddress));
 297:Drivers/STM32L1xx_HAL_Driver/Src/stm32l1xx_hal_flash_ex.c ****   assert_param(IS_FLASH_PROGRAM_ADDRESS((pEraseInit->PageAddress & ~(FLASH_PAGE_SIZE - 1U)) + pEras
 298:Drivers/STM32L1xx_HAL_Driver/Src/stm32l1xx_hal_flash_ex.c **** 
 299:Drivers/STM32L1xx_HAL_Driver/Src/stm32l1xx_hal_flash_ex.c ****   /* Process Locked */
 300:Drivers/STM32L1xx_HAL_Driver/Src/stm32l1xx_hal_flash_ex.c ****   __HAL_LOCK(&pFlash);
 301:Drivers/STM32L1xx_HAL_Driver/Src/stm32l1xx_hal_flash_ex.c **** 
 302:Drivers/STM32L1xx_HAL_Driver/Src/stm32l1xx_hal_flash_ex.c **** #if defined(STM32L151xDX) || defined(STM32L152xDX) || defined(STM32L162xDX)
 303:Drivers/STM32L1xx_HAL_Driver/Src/stm32l1xx_hal_flash_ex.c ****     /* Check on which bank belongs the 1st address to erase */
 304:Drivers/STM32L1xx_HAL_Driver/Src/stm32l1xx_hal_flash_ex.c ****     if (pEraseInit->PageAddress < FLASH_BANK2_BASE)
 305:Drivers/STM32L1xx_HAL_Driver/Src/stm32l1xx_hal_flash_ex.c ****     {
 306:Drivers/STM32L1xx_HAL_Driver/Src/stm32l1xx_hal_flash_ex.c ****       /* BANK1 */
 307:Drivers/STM32L1xx_HAL_Driver/Src/stm32l1xx_hal_flash_ex.c ****       /* Check that last page to erase still belongs to BANK1 */
 308:Drivers/STM32L1xx_HAL_Driver/Src/stm32l1xx_hal_flash_ex.c ****       if (((pEraseInit->PageAddress & ~(FLASH_PAGE_SIZE - 1U)) + pEraseInit->NbPages * FLASH_PAGE_S
 309:Drivers/STM32L1xx_HAL_Driver/Src/stm32l1xx_hal_flash_ex.c ****       {
 310:Drivers/STM32L1xx_HAL_Driver/Src/stm32l1xx_hal_flash_ex.c ****         /*  Last page does not belong to BANK1, erase procedure cannot be performed because memory 
 311:Drivers/STM32L1xx_HAL_Driver/Src/stm32l1xx_hal_flash_ex.c ****             continuous */
 312:Drivers/STM32L1xx_HAL_Driver/Src/stm32l1xx_hal_flash_ex.c ****         /* Process Unlocked */
 313:Drivers/STM32L1xx_HAL_Driver/Src/stm32l1xx_hal_flash_ex.c ****         __HAL_UNLOCK(&pFlash);
 314:Drivers/STM32L1xx_HAL_Driver/Src/stm32l1xx_hal_flash_ex.c ****         return HAL_ERROR;
 315:Drivers/STM32L1xx_HAL_Driver/Src/stm32l1xx_hal_flash_ex.c ****       }
 316:Drivers/STM32L1xx_HAL_Driver/Src/stm32l1xx_hal_flash_ex.c ****     }
 317:Drivers/STM32L1xx_HAL_Driver/Src/stm32l1xx_hal_flash_ex.c ****     else
 318:Drivers/STM32L1xx_HAL_Driver/Src/stm32l1xx_hal_flash_ex.c ****     {
 319:Drivers/STM32L1xx_HAL_Driver/Src/stm32l1xx_hal_flash_ex.c ****       /* BANK2 */
ARM GAS  /tmp/ccAAsIoz.s 			page 7


 320:Drivers/STM32L1xx_HAL_Driver/Src/stm32l1xx_hal_flash_ex.c ****       /* Check that last page to erase still belongs to BANK2 */
 321:Drivers/STM32L1xx_HAL_Driver/Src/stm32l1xx_hal_flash_ex.c ****       if (((pEraseInit->PageAddress & ~(FLASH_PAGE_SIZE - 1U)) + pEraseInit->NbPages * FLASH_PAGE_S
 322:Drivers/STM32L1xx_HAL_Driver/Src/stm32l1xx_hal_flash_ex.c ****       {
 323:Drivers/STM32L1xx_HAL_Driver/Src/stm32l1xx_hal_flash_ex.c ****         /*  Last page does not belong to BANK2, erase procedure cannot be performed because memory 
 324:Drivers/STM32L1xx_HAL_Driver/Src/stm32l1xx_hal_flash_ex.c ****             continuous */
 325:Drivers/STM32L1xx_HAL_Driver/Src/stm32l1xx_hal_flash_ex.c ****         /* Process Unlocked */
 326:Drivers/STM32L1xx_HAL_Driver/Src/stm32l1xx_hal_flash_ex.c ****         __HAL_UNLOCK(&pFlash);
 327:Drivers/STM32L1xx_HAL_Driver/Src/stm32l1xx_hal_flash_ex.c ****         return HAL_ERROR;
 328:Drivers/STM32L1xx_HAL_Driver/Src/stm32l1xx_hal_flash_ex.c ****       }
 329:Drivers/STM32L1xx_HAL_Driver/Src/stm32l1xx_hal_flash_ex.c ****     }
 330:Drivers/STM32L1xx_HAL_Driver/Src/stm32l1xx_hal_flash_ex.c **** #endif /* STM32L151xDX || STM32L152xDX || STM32L162xDX */
 331:Drivers/STM32L1xx_HAL_Driver/Src/stm32l1xx_hal_flash_ex.c **** 
 332:Drivers/STM32L1xx_HAL_Driver/Src/stm32l1xx_hal_flash_ex.c ****   /* Wait for last operation to be completed */
 333:Drivers/STM32L1xx_HAL_Driver/Src/stm32l1xx_hal_flash_ex.c ****   status = FLASH_WaitForLastOperation(FLASH_TIMEOUT_VALUE);
 334:Drivers/STM32L1xx_HAL_Driver/Src/stm32l1xx_hal_flash_ex.c **** 
 335:Drivers/STM32L1xx_HAL_Driver/Src/stm32l1xx_hal_flash_ex.c ****   if (status == HAL_OK)
 336:Drivers/STM32L1xx_HAL_Driver/Src/stm32l1xx_hal_flash_ex.c ****   {
 337:Drivers/STM32L1xx_HAL_Driver/Src/stm32l1xx_hal_flash_ex.c ****     /* Enable End of FLASH Operation and Error source interrupts */
 338:Drivers/STM32L1xx_HAL_Driver/Src/stm32l1xx_hal_flash_ex.c ****     __HAL_FLASH_ENABLE_IT(FLASH_IT_EOP | FLASH_IT_ERR);
 339:Drivers/STM32L1xx_HAL_Driver/Src/stm32l1xx_hal_flash_ex.c **** 
 340:Drivers/STM32L1xx_HAL_Driver/Src/stm32l1xx_hal_flash_ex.c ****     pFlash.ProcedureOnGoing = FLASH_PROC_PAGEERASE;
 341:Drivers/STM32L1xx_HAL_Driver/Src/stm32l1xx_hal_flash_ex.c ****     pFlash.NbPagesToErase = pEraseInit->NbPages;
 342:Drivers/STM32L1xx_HAL_Driver/Src/stm32l1xx_hal_flash_ex.c ****     pFlash.Page = pEraseInit->PageAddress;
 343:Drivers/STM32L1xx_HAL_Driver/Src/stm32l1xx_hal_flash_ex.c **** 
 344:Drivers/STM32L1xx_HAL_Driver/Src/stm32l1xx_hal_flash_ex.c ****     /*Erase 1st page and wait for IT*/
 345:Drivers/STM32L1xx_HAL_Driver/Src/stm32l1xx_hal_flash_ex.c ****     FLASH_PageErase(pEraseInit->PageAddress);
 346:Drivers/STM32L1xx_HAL_Driver/Src/stm32l1xx_hal_flash_ex.c ****   }
 347:Drivers/STM32L1xx_HAL_Driver/Src/stm32l1xx_hal_flash_ex.c ****   else
 348:Drivers/STM32L1xx_HAL_Driver/Src/stm32l1xx_hal_flash_ex.c ****   {
 349:Drivers/STM32L1xx_HAL_Driver/Src/stm32l1xx_hal_flash_ex.c ****     /* Process Unlocked */
 350:Drivers/STM32L1xx_HAL_Driver/Src/stm32l1xx_hal_flash_ex.c ****     __HAL_UNLOCK(&pFlash);
 351:Drivers/STM32L1xx_HAL_Driver/Src/stm32l1xx_hal_flash_ex.c ****   }
 352:Drivers/STM32L1xx_HAL_Driver/Src/stm32l1xx_hal_flash_ex.c **** 
 353:Drivers/STM32L1xx_HAL_Driver/Src/stm32l1xx_hal_flash_ex.c ****   return status;
 354:Drivers/STM32L1xx_HAL_Driver/Src/stm32l1xx_hal_flash_ex.c **** }
 355:Drivers/STM32L1xx_HAL_Driver/Src/stm32l1xx_hal_flash_ex.c **** 
 356:Drivers/STM32L1xx_HAL_Driver/Src/stm32l1xx_hal_flash_ex.c **** /**
 357:Drivers/STM32L1xx_HAL_Driver/Src/stm32l1xx_hal_flash_ex.c ****   * @}
 358:Drivers/STM32L1xx_HAL_Driver/Src/stm32l1xx_hal_flash_ex.c ****   */
 359:Drivers/STM32L1xx_HAL_Driver/Src/stm32l1xx_hal_flash_ex.c **** 
 360:Drivers/STM32L1xx_HAL_Driver/Src/stm32l1xx_hal_flash_ex.c **** /** @defgroup FLASHEx_Exported_Functions_Group2 Option Bytes Programming functions
 361:Drivers/STM32L1xx_HAL_Driver/Src/stm32l1xx_hal_flash_ex.c ****  *  @brief   Option Bytes Programming functions
 362:Drivers/STM32L1xx_HAL_Driver/Src/stm32l1xx_hal_flash_ex.c ****  *
 363:Drivers/STM32L1xx_HAL_Driver/Src/stm32l1xx_hal_flash_ex.c **** @verbatim
 364:Drivers/STM32L1xx_HAL_Driver/Src/stm32l1xx_hal_flash_ex.c ****   ==============================================================================
 365:Drivers/STM32L1xx_HAL_Driver/Src/stm32l1xx_hal_flash_ex.c ****                 ##### Option Bytes Programming functions #####
 366:Drivers/STM32L1xx_HAL_Driver/Src/stm32l1xx_hal_flash_ex.c ****   ==============================================================================
 367:Drivers/STM32L1xx_HAL_Driver/Src/stm32l1xx_hal_flash_ex.c **** 
 368:Drivers/STM32L1xx_HAL_Driver/Src/stm32l1xx_hal_flash_ex.c ****     [..] Any operation of erase or program should follow these steps:
 369:Drivers/STM32L1xx_HAL_Driver/Src/stm32l1xx_hal_flash_ex.c ****     (#) Call the @ref HAL_FLASH_OB_Unlock() function to enable the Flash option control
 370:Drivers/STM32L1xx_HAL_Driver/Src/stm32l1xx_hal_flash_ex.c ****         register access.
 371:Drivers/STM32L1xx_HAL_Driver/Src/stm32l1xx_hal_flash_ex.c ****     (#) Call following function to program the desired option bytes.
 372:Drivers/STM32L1xx_HAL_Driver/Src/stm32l1xx_hal_flash_ex.c ****         (++) @ref HAL_FLASHEx_OBProgram:
 373:Drivers/STM32L1xx_HAL_Driver/Src/stm32l1xx_hal_flash_ex.c ****          - To Enable/Disable the desired sector write protection.
 374:Drivers/STM32L1xx_HAL_Driver/Src/stm32l1xx_hal_flash_ex.c ****          - To set the desired read Protection Level.
 375:Drivers/STM32L1xx_HAL_Driver/Src/stm32l1xx_hal_flash_ex.c ****          - To configure the user option Bytes: IWDG, STOP and the Standby.
 376:Drivers/STM32L1xx_HAL_Driver/Src/stm32l1xx_hal_flash_ex.c ****          - To Set the BOR level.
ARM GAS  /tmp/ccAAsIoz.s 			page 8


 377:Drivers/STM32L1xx_HAL_Driver/Src/stm32l1xx_hal_flash_ex.c ****     (#) Once all needed option bytes to be programmed are correctly written, call the
 378:Drivers/STM32L1xx_HAL_Driver/Src/stm32l1xx_hal_flash_ex.c ****         @ref HAL_FLASH_OB_Launch(void) function to launch the Option Bytes programming process.
 379:Drivers/STM32L1xx_HAL_Driver/Src/stm32l1xx_hal_flash_ex.c ****     (#) Call the @ref HAL_FLASH_OB_Lock() to disable the Flash option control register access (reco
 380:Drivers/STM32L1xx_HAL_Driver/Src/stm32l1xx_hal_flash_ex.c ****         to protect the option Bytes against possible unwanted operations).
 381:Drivers/STM32L1xx_HAL_Driver/Src/stm32l1xx_hal_flash_ex.c **** 
 382:Drivers/STM32L1xx_HAL_Driver/Src/stm32l1xx_hal_flash_ex.c ****     [..] Proprietary code Read Out Protection (PcROP):
 383:Drivers/STM32L1xx_HAL_Driver/Src/stm32l1xx_hal_flash_ex.c ****     (#) The PcROP sector is selected by using the same option bytes as the Write
 384:Drivers/STM32L1xx_HAL_Driver/Src/stm32l1xx_hal_flash_ex.c ****         protection (nWRPi bits). As a result, these 2 options are exclusive each other.
 385:Drivers/STM32L1xx_HAL_Driver/Src/stm32l1xx_hal_flash_ex.c ****     (#) In order to activate the PcROP (change the function of the nWRPi option bits),
 386:Drivers/STM32L1xx_HAL_Driver/Src/stm32l1xx_hal_flash_ex.c ****         the SPRMOD option bit must be activated.
 387:Drivers/STM32L1xx_HAL_Driver/Src/stm32l1xx_hal_flash_ex.c ****     (#) The active value of nWRPi bits is inverted when PCROP mode is active, this
 388:Drivers/STM32L1xx_HAL_Driver/Src/stm32l1xx_hal_flash_ex.c ****         means: if SPRMOD = 1 and nWRPi = 1 (default value), then the user sector "i"
 389:Drivers/STM32L1xx_HAL_Driver/Src/stm32l1xx_hal_flash_ex.c ****         is read/write protected.
 390:Drivers/STM32L1xx_HAL_Driver/Src/stm32l1xx_hal_flash_ex.c ****     (#) To activate PCROP mode for Flash sector(s), you need to call the following function:
 391:Drivers/STM32L1xx_HAL_Driver/Src/stm32l1xx_hal_flash_ex.c ****         (++) @ref HAL_FLASHEx_AdvOBProgram in selecting sectors to be read/write protected
 392:Drivers/STM32L1xx_HAL_Driver/Src/stm32l1xx_hal_flash_ex.c ****         (++) @ref HAL_FLASHEx_OB_SelectPCROP to enable the read/write protection
 393:Drivers/STM32L1xx_HAL_Driver/Src/stm32l1xx_hal_flash_ex.c ****     (#) PcROP is available only in STM32L151xBA, STM32L152xBA, STM32L151xC, STM32L152xC & STM32L162
 394:Drivers/STM32L1xx_HAL_Driver/Src/stm32l1xx_hal_flash_ex.c **** 
 395:Drivers/STM32L1xx_HAL_Driver/Src/stm32l1xx_hal_flash_ex.c **** @endverbatim
 396:Drivers/STM32L1xx_HAL_Driver/Src/stm32l1xx_hal_flash_ex.c ****   * @{
 397:Drivers/STM32L1xx_HAL_Driver/Src/stm32l1xx_hal_flash_ex.c ****   */
 398:Drivers/STM32L1xx_HAL_Driver/Src/stm32l1xx_hal_flash_ex.c **** 
 399:Drivers/STM32L1xx_HAL_Driver/Src/stm32l1xx_hal_flash_ex.c **** /**
 400:Drivers/STM32L1xx_HAL_Driver/Src/stm32l1xx_hal_flash_ex.c ****   * @brief  Program option bytes
 401:Drivers/STM32L1xx_HAL_Driver/Src/stm32l1xx_hal_flash_ex.c ****   * @param  pOBInit pointer to an FLASH_OBInitStruct structure that
 402:Drivers/STM32L1xx_HAL_Driver/Src/stm32l1xx_hal_flash_ex.c ****   *         contains the configuration information for the programming.
 403:Drivers/STM32L1xx_HAL_Driver/Src/stm32l1xx_hal_flash_ex.c ****   *
 404:Drivers/STM32L1xx_HAL_Driver/Src/stm32l1xx_hal_flash_ex.c ****   * @retval HAL_StatusTypeDef HAL Status
 405:Drivers/STM32L1xx_HAL_Driver/Src/stm32l1xx_hal_flash_ex.c ****   */
 406:Drivers/STM32L1xx_HAL_Driver/Src/stm32l1xx_hal_flash_ex.c **** HAL_StatusTypeDef HAL_FLASHEx_OBProgram(FLASH_OBProgramInitTypeDef *pOBInit)
 407:Drivers/STM32L1xx_HAL_Driver/Src/stm32l1xx_hal_flash_ex.c **** {
 408:Drivers/STM32L1xx_HAL_Driver/Src/stm32l1xx_hal_flash_ex.c ****   HAL_StatusTypeDef status = HAL_ERROR;
 409:Drivers/STM32L1xx_HAL_Driver/Src/stm32l1xx_hal_flash_ex.c **** 
 410:Drivers/STM32L1xx_HAL_Driver/Src/stm32l1xx_hal_flash_ex.c ****   /* Process Locked */
 411:Drivers/STM32L1xx_HAL_Driver/Src/stm32l1xx_hal_flash_ex.c ****   __HAL_LOCK(&pFlash);
 412:Drivers/STM32L1xx_HAL_Driver/Src/stm32l1xx_hal_flash_ex.c **** 
 413:Drivers/STM32L1xx_HAL_Driver/Src/stm32l1xx_hal_flash_ex.c ****   /* Check the parameters */
 414:Drivers/STM32L1xx_HAL_Driver/Src/stm32l1xx_hal_flash_ex.c ****   assert_param(IS_OPTIONBYTE(pOBInit->OptionType));
 415:Drivers/STM32L1xx_HAL_Driver/Src/stm32l1xx_hal_flash_ex.c **** 
 416:Drivers/STM32L1xx_HAL_Driver/Src/stm32l1xx_hal_flash_ex.c ****   /*Write protection configuration*/
 417:Drivers/STM32L1xx_HAL_Driver/Src/stm32l1xx_hal_flash_ex.c ****   if((pOBInit->OptionType & OPTIONBYTE_WRP) == OPTIONBYTE_WRP)
 418:Drivers/STM32L1xx_HAL_Driver/Src/stm32l1xx_hal_flash_ex.c ****   {
 419:Drivers/STM32L1xx_HAL_Driver/Src/stm32l1xx_hal_flash_ex.c ****     assert_param(IS_WRPSTATE(pOBInit->WRPState));
 420:Drivers/STM32L1xx_HAL_Driver/Src/stm32l1xx_hal_flash_ex.c ****     if (pOBInit->WRPState == OB_WRPSTATE_ENABLE)
 421:Drivers/STM32L1xx_HAL_Driver/Src/stm32l1xx_hal_flash_ex.c ****     {
 422:Drivers/STM32L1xx_HAL_Driver/Src/stm32l1xx_hal_flash_ex.c ****       /* Enable of Write protection on the selected Sector*/
 423:Drivers/STM32L1xx_HAL_Driver/Src/stm32l1xx_hal_flash_ex.c ****       status = FLASH_OB_WRPConfig(pOBInit, ENABLE);
 424:Drivers/STM32L1xx_HAL_Driver/Src/stm32l1xx_hal_flash_ex.c ****     }
 425:Drivers/STM32L1xx_HAL_Driver/Src/stm32l1xx_hal_flash_ex.c ****     else
 426:Drivers/STM32L1xx_HAL_Driver/Src/stm32l1xx_hal_flash_ex.c ****     {
 427:Drivers/STM32L1xx_HAL_Driver/Src/stm32l1xx_hal_flash_ex.c ****       /* Disable of Write protection on the selected Sector*/
 428:Drivers/STM32L1xx_HAL_Driver/Src/stm32l1xx_hal_flash_ex.c ****       status = FLASH_OB_WRPConfig(pOBInit, DISABLE);
 429:Drivers/STM32L1xx_HAL_Driver/Src/stm32l1xx_hal_flash_ex.c ****     }
 430:Drivers/STM32L1xx_HAL_Driver/Src/stm32l1xx_hal_flash_ex.c ****     if (status != HAL_OK)
 431:Drivers/STM32L1xx_HAL_Driver/Src/stm32l1xx_hal_flash_ex.c ****     {
 432:Drivers/STM32L1xx_HAL_Driver/Src/stm32l1xx_hal_flash_ex.c ****       /* Process Unlocked */
 433:Drivers/STM32L1xx_HAL_Driver/Src/stm32l1xx_hal_flash_ex.c ****       __HAL_UNLOCK(&pFlash);
ARM GAS  /tmp/ccAAsIoz.s 			page 9


 434:Drivers/STM32L1xx_HAL_Driver/Src/stm32l1xx_hal_flash_ex.c ****       return status;
 435:Drivers/STM32L1xx_HAL_Driver/Src/stm32l1xx_hal_flash_ex.c ****     }
 436:Drivers/STM32L1xx_HAL_Driver/Src/stm32l1xx_hal_flash_ex.c ****   }
 437:Drivers/STM32L1xx_HAL_Driver/Src/stm32l1xx_hal_flash_ex.c **** 
 438:Drivers/STM32L1xx_HAL_Driver/Src/stm32l1xx_hal_flash_ex.c ****   /* Read protection configuration*/
 439:Drivers/STM32L1xx_HAL_Driver/Src/stm32l1xx_hal_flash_ex.c ****   if((pOBInit->OptionType & OPTIONBYTE_RDP) == OPTIONBYTE_RDP)
 440:Drivers/STM32L1xx_HAL_Driver/Src/stm32l1xx_hal_flash_ex.c ****   {
 441:Drivers/STM32L1xx_HAL_Driver/Src/stm32l1xx_hal_flash_ex.c ****     status = FLASH_OB_RDPConfig(pOBInit->RDPLevel);
 442:Drivers/STM32L1xx_HAL_Driver/Src/stm32l1xx_hal_flash_ex.c ****     if (status != HAL_OK)
 443:Drivers/STM32L1xx_HAL_Driver/Src/stm32l1xx_hal_flash_ex.c ****     {
 444:Drivers/STM32L1xx_HAL_Driver/Src/stm32l1xx_hal_flash_ex.c ****       /* Process Unlocked */
 445:Drivers/STM32L1xx_HAL_Driver/Src/stm32l1xx_hal_flash_ex.c ****       __HAL_UNLOCK(&pFlash);
 446:Drivers/STM32L1xx_HAL_Driver/Src/stm32l1xx_hal_flash_ex.c ****       return status;
 447:Drivers/STM32L1xx_HAL_Driver/Src/stm32l1xx_hal_flash_ex.c ****     }
 448:Drivers/STM32L1xx_HAL_Driver/Src/stm32l1xx_hal_flash_ex.c ****   }
 449:Drivers/STM32L1xx_HAL_Driver/Src/stm32l1xx_hal_flash_ex.c **** 
 450:Drivers/STM32L1xx_HAL_Driver/Src/stm32l1xx_hal_flash_ex.c ****   /* USER  configuration*/
 451:Drivers/STM32L1xx_HAL_Driver/Src/stm32l1xx_hal_flash_ex.c ****   if((pOBInit->OptionType & OPTIONBYTE_USER) == OPTIONBYTE_USER)
 452:Drivers/STM32L1xx_HAL_Driver/Src/stm32l1xx_hal_flash_ex.c ****   {
 453:Drivers/STM32L1xx_HAL_Driver/Src/stm32l1xx_hal_flash_ex.c ****     status = FLASH_OB_UserConfig(pOBInit->USERConfig & OB_IWDG_SW,
 454:Drivers/STM32L1xx_HAL_Driver/Src/stm32l1xx_hal_flash_ex.c ****                                  pOBInit->USERConfig & OB_STOP_NORST,
 455:Drivers/STM32L1xx_HAL_Driver/Src/stm32l1xx_hal_flash_ex.c ****                                  pOBInit->USERConfig & OB_STDBY_NORST);
 456:Drivers/STM32L1xx_HAL_Driver/Src/stm32l1xx_hal_flash_ex.c ****     if (status != HAL_OK)
 457:Drivers/STM32L1xx_HAL_Driver/Src/stm32l1xx_hal_flash_ex.c ****     {
 458:Drivers/STM32L1xx_HAL_Driver/Src/stm32l1xx_hal_flash_ex.c ****       /* Process Unlocked */
 459:Drivers/STM32L1xx_HAL_Driver/Src/stm32l1xx_hal_flash_ex.c ****       __HAL_UNLOCK(&pFlash);
 460:Drivers/STM32L1xx_HAL_Driver/Src/stm32l1xx_hal_flash_ex.c ****       return status;
 461:Drivers/STM32L1xx_HAL_Driver/Src/stm32l1xx_hal_flash_ex.c ****     }
 462:Drivers/STM32L1xx_HAL_Driver/Src/stm32l1xx_hal_flash_ex.c ****   }
 463:Drivers/STM32L1xx_HAL_Driver/Src/stm32l1xx_hal_flash_ex.c **** 
 464:Drivers/STM32L1xx_HAL_Driver/Src/stm32l1xx_hal_flash_ex.c ****   /* BOR Level  configuration*/
 465:Drivers/STM32L1xx_HAL_Driver/Src/stm32l1xx_hal_flash_ex.c ****   if((pOBInit->OptionType & OPTIONBYTE_BOR) == OPTIONBYTE_BOR)
 466:Drivers/STM32L1xx_HAL_Driver/Src/stm32l1xx_hal_flash_ex.c ****   {
 467:Drivers/STM32L1xx_HAL_Driver/Src/stm32l1xx_hal_flash_ex.c ****     status = FLASH_OB_BORConfig(pOBInit->BORLevel);
 468:Drivers/STM32L1xx_HAL_Driver/Src/stm32l1xx_hal_flash_ex.c ****     if (status != HAL_OK)
 469:Drivers/STM32L1xx_HAL_Driver/Src/stm32l1xx_hal_flash_ex.c ****     {
 470:Drivers/STM32L1xx_HAL_Driver/Src/stm32l1xx_hal_flash_ex.c ****       /* Process Unlocked */
 471:Drivers/STM32L1xx_HAL_Driver/Src/stm32l1xx_hal_flash_ex.c ****       __HAL_UNLOCK(&pFlash);
 472:Drivers/STM32L1xx_HAL_Driver/Src/stm32l1xx_hal_flash_ex.c ****       return status;
 473:Drivers/STM32L1xx_HAL_Driver/Src/stm32l1xx_hal_flash_ex.c ****     }
 474:Drivers/STM32L1xx_HAL_Driver/Src/stm32l1xx_hal_flash_ex.c ****   }
 475:Drivers/STM32L1xx_HAL_Driver/Src/stm32l1xx_hal_flash_ex.c ****   /* Process Unlocked */
 476:Drivers/STM32L1xx_HAL_Driver/Src/stm32l1xx_hal_flash_ex.c ****   __HAL_UNLOCK(&pFlash);
 477:Drivers/STM32L1xx_HAL_Driver/Src/stm32l1xx_hal_flash_ex.c **** 
 478:Drivers/STM32L1xx_HAL_Driver/Src/stm32l1xx_hal_flash_ex.c ****   return status;
 479:Drivers/STM32L1xx_HAL_Driver/Src/stm32l1xx_hal_flash_ex.c **** }
 480:Drivers/STM32L1xx_HAL_Driver/Src/stm32l1xx_hal_flash_ex.c **** 
 481:Drivers/STM32L1xx_HAL_Driver/Src/stm32l1xx_hal_flash_ex.c **** /**
 482:Drivers/STM32L1xx_HAL_Driver/Src/stm32l1xx_hal_flash_ex.c ****   * @brief   Get the Option byte configuration
 483:Drivers/STM32L1xx_HAL_Driver/Src/stm32l1xx_hal_flash_ex.c ****   * @param  pOBInit pointer to an FLASH_OBInitStruct structure that
 484:Drivers/STM32L1xx_HAL_Driver/Src/stm32l1xx_hal_flash_ex.c ****   *         contains the configuration information for the programming.
 485:Drivers/STM32L1xx_HAL_Driver/Src/stm32l1xx_hal_flash_ex.c ****   *
 486:Drivers/STM32L1xx_HAL_Driver/Src/stm32l1xx_hal_flash_ex.c ****   * @retval None
 487:Drivers/STM32L1xx_HAL_Driver/Src/stm32l1xx_hal_flash_ex.c ****   */
 488:Drivers/STM32L1xx_HAL_Driver/Src/stm32l1xx_hal_flash_ex.c **** void HAL_FLASHEx_OBGetConfig(FLASH_OBProgramInitTypeDef *pOBInit)
 489:Drivers/STM32L1xx_HAL_Driver/Src/stm32l1xx_hal_flash_ex.c **** {
 490:Drivers/STM32L1xx_HAL_Driver/Src/stm32l1xx_hal_flash_ex.c ****   pOBInit->OptionType = OPTIONBYTE_WRP | OPTIONBYTE_RDP | OPTIONBYTE_USER | OPTIONBYTE_BOR;
ARM GAS  /tmp/ccAAsIoz.s 			page 10


 491:Drivers/STM32L1xx_HAL_Driver/Src/stm32l1xx_hal_flash_ex.c **** 
 492:Drivers/STM32L1xx_HAL_Driver/Src/stm32l1xx_hal_flash_ex.c ****   /*Get WRP1*/
 493:Drivers/STM32L1xx_HAL_Driver/Src/stm32l1xx_hal_flash_ex.c ****   pOBInit->WRPSector0To31 = (uint32_t)(FLASH->WRPR1);
 494:Drivers/STM32L1xx_HAL_Driver/Src/stm32l1xx_hal_flash_ex.c **** 
 495:Drivers/STM32L1xx_HAL_Driver/Src/stm32l1xx_hal_flash_ex.c **** #if defined(STM32L100xC) || defined(STM32L151xC) || defined(STM32L152xC) || defined(STM32L162xC)   
 496:Drivers/STM32L1xx_HAL_Driver/Src/stm32l1xx_hal_flash_ex.c ****  || defined(STM32L151xCA) || defined(STM32L151xD) || defined(STM32L151xDX) || defined(STM32L152xCA)
 497:Drivers/STM32L1xx_HAL_Driver/Src/stm32l1xx_hal_flash_ex.c ****  || defined(STM32L152xD) || defined(STM32L152xDX) || defined(STM32L162xCA) || defined(STM32L162xD) 
 498:Drivers/STM32L1xx_HAL_Driver/Src/stm32l1xx_hal_flash_ex.c ****  || defined(STM32L162xDX) || defined(STM32L151xE) || defined(STM32L152xE) || defined(STM32L162xE)
 499:Drivers/STM32L1xx_HAL_Driver/Src/stm32l1xx_hal_flash_ex.c **** 
 500:Drivers/STM32L1xx_HAL_Driver/Src/stm32l1xx_hal_flash_ex.c ****   /*Get WRP2*/
 501:Drivers/STM32L1xx_HAL_Driver/Src/stm32l1xx_hal_flash_ex.c ****   pOBInit->WRPSector32To63 = (uint32_t)(FLASH->WRPR2);
 502:Drivers/STM32L1xx_HAL_Driver/Src/stm32l1xx_hal_flash_ex.c **** 
 503:Drivers/STM32L1xx_HAL_Driver/Src/stm32l1xx_hal_flash_ex.c **** #endif /* STM32L100xC || STM32L151xC || STM32L152xC || (...) || STM32L151xE || STM32L152xE || STM32
 504:Drivers/STM32L1xx_HAL_Driver/Src/stm32l1xx_hal_flash_ex.c **** 
 505:Drivers/STM32L1xx_HAL_Driver/Src/stm32l1xx_hal_flash_ex.c **** #if defined(STM32L151xD) || defined(STM32L151xDX) || defined(STM32L152xD) || defined(STM32L152xDX) 
 506:Drivers/STM32L1xx_HAL_Driver/Src/stm32l1xx_hal_flash_ex.c ****  || defined(STM32L162xD) || defined(STM32L162xDX) || defined(STM32L151xE) || defined(STM32L152xE)  
 507:Drivers/STM32L1xx_HAL_Driver/Src/stm32l1xx_hal_flash_ex.c ****  || defined(STM32L162xE)
 508:Drivers/STM32L1xx_HAL_Driver/Src/stm32l1xx_hal_flash_ex.c **** 
 509:Drivers/STM32L1xx_HAL_Driver/Src/stm32l1xx_hal_flash_ex.c ****   /*Get WRP3*/
 510:Drivers/STM32L1xx_HAL_Driver/Src/stm32l1xx_hal_flash_ex.c ****   pOBInit->WRPSector64To95 = (uint32_t)(FLASH->WRPR3);
 511:Drivers/STM32L1xx_HAL_Driver/Src/stm32l1xx_hal_flash_ex.c **** 
 512:Drivers/STM32L1xx_HAL_Driver/Src/stm32l1xx_hal_flash_ex.c **** #endif /* STM32L151xD || STM32L152xD || STM32L162xD || STM32L151xE || STM32L152xE || STM32L162xE */
 513:Drivers/STM32L1xx_HAL_Driver/Src/stm32l1xx_hal_flash_ex.c **** 
 514:Drivers/STM32L1xx_HAL_Driver/Src/stm32l1xx_hal_flash_ex.c **** #if defined(STM32L151xE) || defined(STM32L152xE) || defined(STM32L162xE) || defined(STM32L151xDX) \
 515:Drivers/STM32L1xx_HAL_Driver/Src/stm32l1xx_hal_flash_ex.c ****  || defined(STM32L152xDX) || defined(STM32L162xDX)
 516:Drivers/STM32L1xx_HAL_Driver/Src/stm32l1xx_hal_flash_ex.c **** 
 517:Drivers/STM32L1xx_HAL_Driver/Src/stm32l1xx_hal_flash_ex.c ****   /*Get WRP4*/
 518:Drivers/STM32L1xx_HAL_Driver/Src/stm32l1xx_hal_flash_ex.c ****   pOBInit->WRPSector96To127 = (uint32_t)(FLASH->WRPR4);
 519:Drivers/STM32L1xx_HAL_Driver/Src/stm32l1xx_hal_flash_ex.c **** 
 520:Drivers/STM32L1xx_HAL_Driver/Src/stm32l1xx_hal_flash_ex.c **** #endif /* STM32L151xE || STM32L152xE || STM32L162xE || STM32L151xDX || ... */
 521:Drivers/STM32L1xx_HAL_Driver/Src/stm32l1xx_hal_flash_ex.c **** 
 522:Drivers/STM32L1xx_HAL_Driver/Src/stm32l1xx_hal_flash_ex.c ****   /*Get RDP Level*/
 523:Drivers/STM32L1xx_HAL_Driver/Src/stm32l1xx_hal_flash_ex.c ****   pOBInit->RDPLevel   = FLASH_OB_GetRDP();
 524:Drivers/STM32L1xx_HAL_Driver/Src/stm32l1xx_hal_flash_ex.c **** 
 525:Drivers/STM32L1xx_HAL_Driver/Src/stm32l1xx_hal_flash_ex.c ****   /*Get USER*/
 526:Drivers/STM32L1xx_HAL_Driver/Src/stm32l1xx_hal_flash_ex.c ****   pOBInit->USERConfig = FLASH_OB_GetUser();
 527:Drivers/STM32L1xx_HAL_Driver/Src/stm32l1xx_hal_flash_ex.c **** 
 528:Drivers/STM32L1xx_HAL_Driver/Src/stm32l1xx_hal_flash_ex.c ****   /*Get BOR Level*/
 529:Drivers/STM32L1xx_HAL_Driver/Src/stm32l1xx_hal_flash_ex.c ****   pOBInit->BORLevel   = FLASH_OB_GetBOR();
 530:Drivers/STM32L1xx_HAL_Driver/Src/stm32l1xx_hal_flash_ex.c **** }
 531:Drivers/STM32L1xx_HAL_Driver/Src/stm32l1xx_hal_flash_ex.c **** 
 532:Drivers/STM32L1xx_HAL_Driver/Src/stm32l1xx_hal_flash_ex.c **** #if defined(FLASH_OBR_SPRMOD) || defined(FLASH_OBR_nRST_BFB2)
 533:Drivers/STM32L1xx_HAL_Driver/Src/stm32l1xx_hal_flash_ex.c **** 
 534:Drivers/STM32L1xx_HAL_Driver/Src/stm32l1xx_hal_flash_ex.c **** /**
 535:Drivers/STM32L1xx_HAL_Driver/Src/stm32l1xx_hal_flash_ex.c ****   * @brief  Program option bytes
 536:Drivers/STM32L1xx_HAL_Driver/Src/stm32l1xx_hal_flash_ex.c ****   * @note   This function can be used only for Cat2 & Cat3 devices for PCROP and Cat4 & Cat5 for BF
 537:Drivers/STM32L1xx_HAL_Driver/Src/stm32l1xx_hal_flash_ex.c ****   * @param  pAdvOBInit pointer to an FLASH_AdvOBProgramInitTypeDef structure that
 538:Drivers/STM32L1xx_HAL_Driver/Src/stm32l1xx_hal_flash_ex.c ****   *         contains the configuration information for the programming.
 539:Drivers/STM32L1xx_HAL_Driver/Src/stm32l1xx_hal_flash_ex.c ****   *
 540:Drivers/STM32L1xx_HAL_Driver/Src/stm32l1xx_hal_flash_ex.c ****   * @retval HAL_StatusTypeDef HAL Status
 541:Drivers/STM32L1xx_HAL_Driver/Src/stm32l1xx_hal_flash_ex.c ****   */
 542:Drivers/STM32L1xx_HAL_Driver/Src/stm32l1xx_hal_flash_ex.c **** HAL_StatusTypeDef HAL_FLASHEx_AdvOBProgram (FLASH_AdvOBProgramInitTypeDef *pAdvOBInit)
 543:Drivers/STM32L1xx_HAL_Driver/Src/stm32l1xx_hal_flash_ex.c **** {
 544:Drivers/STM32L1xx_HAL_Driver/Src/stm32l1xx_hal_flash_ex.c ****   HAL_StatusTypeDef status = HAL_ERROR;
 545:Drivers/STM32L1xx_HAL_Driver/Src/stm32l1xx_hal_flash_ex.c **** 
 546:Drivers/STM32L1xx_HAL_Driver/Src/stm32l1xx_hal_flash_ex.c ****   /* Check the parameters */
 547:Drivers/STM32L1xx_HAL_Driver/Src/stm32l1xx_hal_flash_ex.c ****   assert_param(IS_OBEX(pAdvOBInit->OptionType));
ARM GAS  /tmp/ccAAsIoz.s 			page 11


 548:Drivers/STM32L1xx_HAL_Driver/Src/stm32l1xx_hal_flash_ex.c **** 
 549:Drivers/STM32L1xx_HAL_Driver/Src/stm32l1xx_hal_flash_ex.c **** #if defined(FLASH_OBR_SPRMOD)
 550:Drivers/STM32L1xx_HAL_Driver/Src/stm32l1xx_hal_flash_ex.c **** 
 551:Drivers/STM32L1xx_HAL_Driver/Src/stm32l1xx_hal_flash_ex.c ****   /* Program PCROP option byte*/
 552:Drivers/STM32L1xx_HAL_Driver/Src/stm32l1xx_hal_flash_ex.c ****   if ((pAdvOBInit->OptionType & OPTIONBYTE_PCROP) == OPTIONBYTE_PCROP)
 553:Drivers/STM32L1xx_HAL_Driver/Src/stm32l1xx_hal_flash_ex.c ****   {
 554:Drivers/STM32L1xx_HAL_Driver/Src/stm32l1xx_hal_flash_ex.c ****     /* Check the parameters */
 555:Drivers/STM32L1xx_HAL_Driver/Src/stm32l1xx_hal_flash_ex.c ****     assert_param(IS_PCROPSTATE(pAdvOBInit->PCROPState));
 556:Drivers/STM32L1xx_HAL_Driver/Src/stm32l1xx_hal_flash_ex.c ****     if (pAdvOBInit->PCROPState == OB_PCROP_STATE_ENABLE)
 557:Drivers/STM32L1xx_HAL_Driver/Src/stm32l1xx_hal_flash_ex.c ****     {
 558:Drivers/STM32L1xx_HAL_Driver/Src/stm32l1xx_hal_flash_ex.c ****       /*Enable of Write protection on the selected Sector*/
 559:Drivers/STM32L1xx_HAL_Driver/Src/stm32l1xx_hal_flash_ex.c ****       status = FLASH_OB_PCROPConfig(pAdvOBInit, ENABLE);
 560:Drivers/STM32L1xx_HAL_Driver/Src/stm32l1xx_hal_flash_ex.c ****       if (status != HAL_OK)
 561:Drivers/STM32L1xx_HAL_Driver/Src/stm32l1xx_hal_flash_ex.c ****       {
 562:Drivers/STM32L1xx_HAL_Driver/Src/stm32l1xx_hal_flash_ex.c ****         return status;
 563:Drivers/STM32L1xx_HAL_Driver/Src/stm32l1xx_hal_flash_ex.c ****       }
 564:Drivers/STM32L1xx_HAL_Driver/Src/stm32l1xx_hal_flash_ex.c ****     }
 565:Drivers/STM32L1xx_HAL_Driver/Src/stm32l1xx_hal_flash_ex.c ****     else
 566:Drivers/STM32L1xx_HAL_Driver/Src/stm32l1xx_hal_flash_ex.c ****     {
 567:Drivers/STM32L1xx_HAL_Driver/Src/stm32l1xx_hal_flash_ex.c ****       /* Disable of Write protection on the selected Sector*/
 568:Drivers/STM32L1xx_HAL_Driver/Src/stm32l1xx_hal_flash_ex.c ****       status = FLASH_OB_PCROPConfig(pAdvOBInit, DISABLE);
 569:Drivers/STM32L1xx_HAL_Driver/Src/stm32l1xx_hal_flash_ex.c ****       if (status != HAL_OK)
 570:Drivers/STM32L1xx_HAL_Driver/Src/stm32l1xx_hal_flash_ex.c ****       {
 571:Drivers/STM32L1xx_HAL_Driver/Src/stm32l1xx_hal_flash_ex.c ****         return status;
 572:Drivers/STM32L1xx_HAL_Driver/Src/stm32l1xx_hal_flash_ex.c ****       }
 573:Drivers/STM32L1xx_HAL_Driver/Src/stm32l1xx_hal_flash_ex.c ****     }
 574:Drivers/STM32L1xx_HAL_Driver/Src/stm32l1xx_hal_flash_ex.c ****   }
 575:Drivers/STM32L1xx_HAL_Driver/Src/stm32l1xx_hal_flash_ex.c **** 
 576:Drivers/STM32L1xx_HAL_Driver/Src/stm32l1xx_hal_flash_ex.c **** #endif /* FLASH_OBR_SPRMOD */
 577:Drivers/STM32L1xx_HAL_Driver/Src/stm32l1xx_hal_flash_ex.c **** 
 578:Drivers/STM32L1xx_HAL_Driver/Src/stm32l1xx_hal_flash_ex.c **** #if defined(FLASH_OBR_nRST_BFB2)
 579:Drivers/STM32L1xx_HAL_Driver/Src/stm32l1xx_hal_flash_ex.c **** 
 580:Drivers/STM32L1xx_HAL_Driver/Src/stm32l1xx_hal_flash_ex.c ****   /* Program BOOT config option byte */
 581:Drivers/STM32L1xx_HAL_Driver/Src/stm32l1xx_hal_flash_ex.c ****   if ((pAdvOBInit->OptionType & OPTIONBYTE_BOOTCONFIG) == OPTIONBYTE_BOOTCONFIG)
 582:Drivers/STM32L1xx_HAL_Driver/Src/stm32l1xx_hal_flash_ex.c ****   {
 583:Drivers/STM32L1xx_HAL_Driver/Src/stm32l1xx_hal_flash_ex.c ****     status = FLASH_OB_BootConfig(pAdvOBInit->BootConfig);
 584:Drivers/STM32L1xx_HAL_Driver/Src/stm32l1xx_hal_flash_ex.c ****   }
 585:Drivers/STM32L1xx_HAL_Driver/Src/stm32l1xx_hal_flash_ex.c **** 
 586:Drivers/STM32L1xx_HAL_Driver/Src/stm32l1xx_hal_flash_ex.c **** #endif /* FLASH_OBR_nRST_BFB2 */
 587:Drivers/STM32L1xx_HAL_Driver/Src/stm32l1xx_hal_flash_ex.c **** 
 588:Drivers/STM32L1xx_HAL_Driver/Src/stm32l1xx_hal_flash_ex.c ****   return status;
 589:Drivers/STM32L1xx_HAL_Driver/Src/stm32l1xx_hal_flash_ex.c **** }
 590:Drivers/STM32L1xx_HAL_Driver/Src/stm32l1xx_hal_flash_ex.c **** 
 591:Drivers/STM32L1xx_HAL_Driver/Src/stm32l1xx_hal_flash_ex.c **** /**
 592:Drivers/STM32L1xx_HAL_Driver/Src/stm32l1xx_hal_flash_ex.c ****   * @brief  Get the OBEX byte configuration
 593:Drivers/STM32L1xx_HAL_Driver/Src/stm32l1xx_hal_flash_ex.c ****   * @note   This function can be used only for Cat2  & Cat3 devices for PCROP and Cat4 & Cat5 for B
 594:Drivers/STM32L1xx_HAL_Driver/Src/stm32l1xx_hal_flash_ex.c ****   * @param  pAdvOBInit pointer to an FLASH_AdvOBProgramInitTypeDef structure that
 595:Drivers/STM32L1xx_HAL_Driver/Src/stm32l1xx_hal_flash_ex.c ****   *         contains the configuration information for the programming.
 596:Drivers/STM32L1xx_HAL_Driver/Src/stm32l1xx_hal_flash_ex.c ****   *
 597:Drivers/STM32L1xx_HAL_Driver/Src/stm32l1xx_hal_flash_ex.c ****   * @retval None
 598:Drivers/STM32L1xx_HAL_Driver/Src/stm32l1xx_hal_flash_ex.c ****   */
 599:Drivers/STM32L1xx_HAL_Driver/Src/stm32l1xx_hal_flash_ex.c **** void HAL_FLASHEx_AdvOBGetConfig(FLASH_AdvOBProgramInitTypeDef *pAdvOBInit)
 600:Drivers/STM32L1xx_HAL_Driver/Src/stm32l1xx_hal_flash_ex.c **** {
 601:Drivers/STM32L1xx_HAL_Driver/Src/stm32l1xx_hal_flash_ex.c ****   pAdvOBInit->OptionType = 0U;
 602:Drivers/STM32L1xx_HAL_Driver/Src/stm32l1xx_hal_flash_ex.c **** 
 603:Drivers/STM32L1xx_HAL_Driver/Src/stm32l1xx_hal_flash_ex.c **** #if defined(FLASH_OBR_SPRMOD)
 604:Drivers/STM32L1xx_HAL_Driver/Src/stm32l1xx_hal_flash_ex.c **** 
ARM GAS  /tmp/ccAAsIoz.s 			page 12


 605:Drivers/STM32L1xx_HAL_Driver/Src/stm32l1xx_hal_flash_ex.c ****   pAdvOBInit->OptionType |= OPTIONBYTE_PCROP;
 606:Drivers/STM32L1xx_HAL_Driver/Src/stm32l1xx_hal_flash_ex.c **** 
 607:Drivers/STM32L1xx_HAL_Driver/Src/stm32l1xx_hal_flash_ex.c ****   /*Get PCROP state */
 608:Drivers/STM32L1xx_HAL_Driver/Src/stm32l1xx_hal_flash_ex.c ****   pAdvOBInit->PCROPState = (FLASH->OBR & FLASH_OBR_SPRMOD) >> POSITION_VAL(FLASH_OBR_SPRMOD);
 609:Drivers/STM32L1xx_HAL_Driver/Src/stm32l1xx_hal_flash_ex.c **** 
 610:Drivers/STM32L1xx_HAL_Driver/Src/stm32l1xx_hal_flash_ex.c ****   /*Get PCROP protected sector from 0 to 31 */
 611:Drivers/STM32L1xx_HAL_Driver/Src/stm32l1xx_hal_flash_ex.c ****   pAdvOBInit->PCROPSector0To31 = FLASH->WRPR1;
 612:Drivers/STM32L1xx_HAL_Driver/Src/stm32l1xx_hal_flash_ex.c **** 
 613:Drivers/STM32L1xx_HAL_Driver/Src/stm32l1xx_hal_flash_ex.c **** #if defined(STM32L100xC) || defined(STM32L151xC) || defined(STM32L152xC) || defined(STM32L162xC)
 614:Drivers/STM32L1xx_HAL_Driver/Src/stm32l1xx_hal_flash_ex.c **** 
 615:Drivers/STM32L1xx_HAL_Driver/Src/stm32l1xx_hal_flash_ex.c ****   /*Get PCROP protected sector from 32 to 63 */
 616:Drivers/STM32L1xx_HAL_Driver/Src/stm32l1xx_hal_flash_ex.c ****   pAdvOBInit->PCROPSector32To63 = FLASH->WRPR2;
 617:Drivers/STM32L1xx_HAL_Driver/Src/stm32l1xx_hal_flash_ex.c **** 
 618:Drivers/STM32L1xx_HAL_Driver/Src/stm32l1xx_hal_flash_ex.c **** #endif /* STM32L100xC || STM32L151xC || STM32L152xC || STM32L162xC */
 619:Drivers/STM32L1xx_HAL_Driver/Src/stm32l1xx_hal_flash_ex.c **** #endif /* FLASH_OBR_SPRMOD */
 620:Drivers/STM32L1xx_HAL_Driver/Src/stm32l1xx_hal_flash_ex.c **** 
 621:Drivers/STM32L1xx_HAL_Driver/Src/stm32l1xx_hal_flash_ex.c **** #if defined(FLASH_OBR_nRST_BFB2)
 622:Drivers/STM32L1xx_HAL_Driver/Src/stm32l1xx_hal_flash_ex.c **** 
 623:Drivers/STM32L1xx_HAL_Driver/Src/stm32l1xx_hal_flash_ex.c ****   pAdvOBInit->OptionType |= OPTIONBYTE_BOOTCONFIG;
 624:Drivers/STM32L1xx_HAL_Driver/Src/stm32l1xx_hal_flash_ex.c **** 
 625:Drivers/STM32L1xx_HAL_Driver/Src/stm32l1xx_hal_flash_ex.c ****   /* Get Boot config OB */
 626:Drivers/STM32L1xx_HAL_Driver/Src/stm32l1xx_hal_flash_ex.c ****   pAdvOBInit->BootConfig = (FLASH->OBR & FLASH_OBR_nRST_BFB2) >> 16U;
 627:Drivers/STM32L1xx_HAL_Driver/Src/stm32l1xx_hal_flash_ex.c **** 
 628:Drivers/STM32L1xx_HAL_Driver/Src/stm32l1xx_hal_flash_ex.c **** #endif /* FLASH_OBR_nRST_BFB2 */
 629:Drivers/STM32L1xx_HAL_Driver/Src/stm32l1xx_hal_flash_ex.c **** }
 630:Drivers/STM32L1xx_HAL_Driver/Src/stm32l1xx_hal_flash_ex.c **** 
 631:Drivers/STM32L1xx_HAL_Driver/Src/stm32l1xx_hal_flash_ex.c **** #endif /* FLASH_OBR_SPRMOD || FLASH_OBR_nRST_BFB2 */
 632:Drivers/STM32L1xx_HAL_Driver/Src/stm32l1xx_hal_flash_ex.c **** 
 633:Drivers/STM32L1xx_HAL_Driver/Src/stm32l1xx_hal_flash_ex.c **** #if defined(FLASH_OBR_SPRMOD)
 634:Drivers/STM32L1xx_HAL_Driver/Src/stm32l1xx_hal_flash_ex.c **** 
 635:Drivers/STM32L1xx_HAL_Driver/Src/stm32l1xx_hal_flash_ex.c **** /**
 636:Drivers/STM32L1xx_HAL_Driver/Src/stm32l1xx_hal_flash_ex.c ****   * @brief  Select the Protection Mode (SPRMOD).
 637:Drivers/STM32L1xx_HAL_Driver/Src/stm32l1xx_hal_flash_ex.c ****   * @note   This function can be used only for STM32L151xBA, STM32L152xBA, STM32L151xC, STM32L152xC
 638:Drivers/STM32L1xx_HAL_Driver/Src/stm32l1xx_hal_flash_ex.c ****   * @note   Once SPRMOD bit is active, unprotection of a protected sector is not possible
 639:Drivers/STM32L1xx_HAL_Driver/Src/stm32l1xx_hal_flash_ex.c ****   * @note   Read a protected sector will set RDERR Flag and write a protected sector will set WRPER
 640:Drivers/STM32L1xx_HAL_Driver/Src/stm32l1xx_hal_flash_ex.c ****   * @retval HAL status
 641:Drivers/STM32L1xx_HAL_Driver/Src/stm32l1xx_hal_flash_ex.c ****   */
 642:Drivers/STM32L1xx_HAL_Driver/Src/stm32l1xx_hal_flash_ex.c **** HAL_StatusTypeDef HAL_FLASHEx_OB_SelectPCROP(void)
 643:Drivers/STM32L1xx_HAL_Driver/Src/stm32l1xx_hal_flash_ex.c **** {
 644:Drivers/STM32L1xx_HAL_Driver/Src/stm32l1xx_hal_flash_ex.c ****   HAL_StatusTypeDef status = HAL_OK;
 645:Drivers/STM32L1xx_HAL_Driver/Src/stm32l1xx_hal_flash_ex.c ****   uint16_t tmp1 = 0U;
 646:Drivers/STM32L1xx_HAL_Driver/Src/stm32l1xx_hal_flash_ex.c ****   uint32_t tmp2 = 0U;
 647:Drivers/STM32L1xx_HAL_Driver/Src/stm32l1xx_hal_flash_ex.c ****   uint8_t optiontmp = 0U;
 648:Drivers/STM32L1xx_HAL_Driver/Src/stm32l1xx_hal_flash_ex.c ****   uint16_t optiontmp2 = 0U;
 649:Drivers/STM32L1xx_HAL_Driver/Src/stm32l1xx_hal_flash_ex.c **** 
 650:Drivers/STM32L1xx_HAL_Driver/Src/stm32l1xx_hal_flash_ex.c ****   status = FLASH_WaitForLastOperation(FLASH_TIMEOUT_VALUE);
 651:Drivers/STM32L1xx_HAL_Driver/Src/stm32l1xx_hal_flash_ex.c **** 
 652:Drivers/STM32L1xx_HAL_Driver/Src/stm32l1xx_hal_flash_ex.c ****   /* Mask RDP Byte */
 653:Drivers/STM32L1xx_HAL_Driver/Src/stm32l1xx_hal_flash_ex.c ****   optiontmp =  (uint8_t)(*(__IO uint8_t *)(OB_BASE));
 654:Drivers/STM32L1xx_HAL_Driver/Src/stm32l1xx_hal_flash_ex.c **** 
 655:Drivers/STM32L1xx_HAL_Driver/Src/stm32l1xx_hal_flash_ex.c ****   /* Update Option Byte */
 656:Drivers/STM32L1xx_HAL_Driver/Src/stm32l1xx_hal_flash_ex.c ****   optiontmp2 = (uint16_t)(OB_PCROP_SELECTED | optiontmp);
 657:Drivers/STM32L1xx_HAL_Driver/Src/stm32l1xx_hal_flash_ex.c **** 
 658:Drivers/STM32L1xx_HAL_Driver/Src/stm32l1xx_hal_flash_ex.c ****   /* calculate the option byte to write */
 659:Drivers/STM32L1xx_HAL_Driver/Src/stm32l1xx_hal_flash_ex.c ****   tmp1 = (uint16_t)(~(optiontmp2 ));
 660:Drivers/STM32L1xx_HAL_Driver/Src/stm32l1xx_hal_flash_ex.c ****   tmp2 = (uint32_t)(((uint32_t)((uint32_t)(tmp1) << 16U)) | ((uint32_t)optiontmp2));
 661:Drivers/STM32L1xx_HAL_Driver/Src/stm32l1xx_hal_flash_ex.c **** 
ARM GAS  /tmp/ccAAsIoz.s 			page 13


 662:Drivers/STM32L1xx_HAL_Driver/Src/stm32l1xx_hal_flash_ex.c ****   if(status == HAL_OK)
 663:Drivers/STM32L1xx_HAL_Driver/Src/stm32l1xx_hal_flash_ex.c ****   {
 664:Drivers/STM32L1xx_HAL_Driver/Src/stm32l1xx_hal_flash_ex.c ****     /* Clean the error context */
 665:Drivers/STM32L1xx_HAL_Driver/Src/stm32l1xx_hal_flash_ex.c ****     pFlash.ErrorCode = HAL_FLASH_ERROR_NONE;
 666:Drivers/STM32L1xx_HAL_Driver/Src/stm32l1xx_hal_flash_ex.c **** 
 667:Drivers/STM32L1xx_HAL_Driver/Src/stm32l1xx_hal_flash_ex.c ****     /* program PCRop */
 668:Drivers/STM32L1xx_HAL_Driver/Src/stm32l1xx_hal_flash_ex.c ****     OB->RDP = tmp2;
 669:Drivers/STM32L1xx_HAL_Driver/Src/stm32l1xx_hal_flash_ex.c **** 
 670:Drivers/STM32L1xx_HAL_Driver/Src/stm32l1xx_hal_flash_ex.c ****     /* Wait for last operation to be completed */
 671:Drivers/STM32L1xx_HAL_Driver/Src/stm32l1xx_hal_flash_ex.c ****     status = FLASH_WaitForLastOperation(FLASH_TIMEOUT_VALUE);
 672:Drivers/STM32L1xx_HAL_Driver/Src/stm32l1xx_hal_flash_ex.c ****   }
 673:Drivers/STM32L1xx_HAL_Driver/Src/stm32l1xx_hal_flash_ex.c **** 
 674:Drivers/STM32L1xx_HAL_Driver/Src/stm32l1xx_hal_flash_ex.c ****   /* Return the Read protection operation Status */
 675:Drivers/STM32L1xx_HAL_Driver/Src/stm32l1xx_hal_flash_ex.c ****   return status;
 676:Drivers/STM32L1xx_HAL_Driver/Src/stm32l1xx_hal_flash_ex.c **** }
 677:Drivers/STM32L1xx_HAL_Driver/Src/stm32l1xx_hal_flash_ex.c **** 
 678:Drivers/STM32L1xx_HAL_Driver/Src/stm32l1xx_hal_flash_ex.c **** /**
 679:Drivers/STM32L1xx_HAL_Driver/Src/stm32l1xx_hal_flash_ex.c ****   * @brief  Deselect the Protection Mode (SPRMOD).
 680:Drivers/STM32L1xx_HAL_Driver/Src/stm32l1xx_hal_flash_ex.c ****   * @note   This function can be used only for STM32L151xBA, STM32L152xBA, STM32L151xC, STM32L152xC
 681:Drivers/STM32L1xx_HAL_Driver/Src/stm32l1xx_hal_flash_ex.c ****   * @note   Once SPRMOD bit is active, unprotection of a protected sector is not possible
 682:Drivers/STM32L1xx_HAL_Driver/Src/stm32l1xx_hal_flash_ex.c ****   * @note   Read a protected sector will set RDERR Flag and write a protected sector will set WRPER
 683:Drivers/STM32L1xx_HAL_Driver/Src/stm32l1xx_hal_flash_ex.c ****   * @retval HAL status
 684:Drivers/STM32L1xx_HAL_Driver/Src/stm32l1xx_hal_flash_ex.c ****   */
 685:Drivers/STM32L1xx_HAL_Driver/Src/stm32l1xx_hal_flash_ex.c **** HAL_StatusTypeDef HAL_FLASHEx_OB_DeSelectPCROP(void)
 686:Drivers/STM32L1xx_HAL_Driver/Src/stm32l1xx_hal_flash_ex.c **** {
 687:Drivers/STM32L1xx_HAL_Driver/Src/stm32l1xx_hal_flash_ex.c ****   HAL_StatusTypeDef status = HAL_OK;
 688:Drivers/STM32L1xx_HAL_Driver/Src/stm32l1xx_hal_flash_ex.c ****   uint16_t tmp1 = 0U;
 689:Drivers/STM32L1xx_HAL_Driver/Src/stm32l1xx_hal_flash_ex.c ****   uint32_t tmp2 = 0U;
 690:Drivers/STM32L1xx_HAL_Driver/Src/stm32l1xx_hal_flash_ex.c ****   uint8_t optiontmp = 0U;
 691:Drivers/STM32L1xx_HAL_Driver/Src/stm32l1xx_hal_flash_ex.c ****   uint16_t optiontmp2 = 0U;
 692:Drivers/STM32L1xx_HAL_Driver/Src/stm32l1xx_hal_flash_ex.c **** 
 693:Drivers/STM32L1xx_HAL_Driver/Src/stm32l1xx_hal_flash_ex.c ****   status = FLASH_WaitForLastOperation(FLASH_TIMEOUT_VALUE);
 694:Drivers/STM32L1xx_HAL_Driver/Src/stm32l1xx_hal_flash_ex.c **** 
 695:Drivers/STM32L1xx_HAL_Driver/Src/stm32l1xx_hal_flash_ex.c ****   /* Mask RDP Byte */
 696:Drivers/STM32L1xx_HAL_Driver/Src/stm32l1xx_hal_flash_ex.c ****   optiontmp =  (uint8_t)(*(__IO uint8_t *)(OB_BASE));
 697:Drivers/STM32L1xx_HAL_Driver/Src/stm32l1xx_hal_flash_ex.c **** 
 698:Drivers/STM32L1xx_HAL_Driver/Src/stm32l1xx_hal_flash_ex.c ****   /* Update Option Byte */
 699:Drivers/STM32L1xx_HAL_Driver/Src/stm32l1xx_hal_flash_ex.c ****   optiontmp2 = (uint16_t)(OB_PCROP_DESELECTED | optiontmp);
 700:Drivers/STM32L1xx_HAL_Driver/Src/stm32l1xx_hal_flash_ex.c **** 
 701:Drivers/STM32L1xx_HAL_Driver/Src/stm32l1xx_hal_flash_ex.c ****   /* calculate the option byte to write */
 702:Drivers/STM32L1xx_HAL_Driver/Src/stm32l1xx_hal_flash_ex.c ****   tmp1 = (uint16_t)(~(optiontmp2 ));
 703:Drivers/STM32L1xx_HAL_Driver/Src/stm32l1xx_hal_flash_ex.c ****   tmp2 = (uint32_t)(((uint32_t)((uint32_t)(tmp1) << 16U)) | ((uint32_t)optiontmp2));
 704:Drivers/STM32L1xx_HAL_Driver/Src/stm32l1xx_hal_flash_ex.c **** 
 705:Drivers/STM32L1xx_HAL_Driver/Src/stm32l1xx_hal_flash_ex.c ****   if(status == HAL_OK)
 706:Drivers/STM32L1xx_HAL_Driver/Src/stm32l1xx_hal_flash_ex.c ****   {
 707:Drivers/STM32L1xx_HAL_Driver/Src/stm32l1xx_hal_flash_ex.c ****     /* Clean the error context */
 708:Drivers/STM32L1xx_HAL_Driver/Src/stm32l1xx_hal_flash_ex.c ****     pFlash.ErrorCode = HAL_FLASH_ERROR_NONE;
 709:Drivers/STM32L1xx_HAL_Driver/Src/stm32l1xx_hal_flash_ex.c **** 
 710:Drivers/STM32L1xx_HAL_Driver/Src/stm32l1xx_hal_flash_ex.c ****     /* program PCRop */
 711:Drivers/STM32L1xx_HAL_Driver/Src/stm32l1xx_hal_flash_ex.c ****     OB->RDP = tmp2;
 712:Drivers/STM32L1xx_HAL_Driver/Src/stm32l1xx_hal_flash_ex.c **** 
 713:Drivers/STM32L1xx_HAL_Driver/Src/stm32l1xx_hal_flash_ex.c ****     /* Wait for last operation to be completed */
 714:Drivers/STM32L1xx_HAL_Driver/Src/stm32l1xx_hal_flash_ex.c ****     status = FLASH_WaitForLastOperation(FLASH_TIMEOUT_VALUE);
 715:Drivers/STM32L1xx_HAL_Driver/Src/stm32l1xx_hal_flash_ex.c ****   }
 716:Drivers/STM32L1xx_HAL_Driver/Src/stm32l1xx_hal_flash_ex.c **** 
 717:Drivers/STM32L1xx_HAL_Driver/Src/stm32l1xx_hal_flash_ex.c ****   /* Return the Read protection operation Status */
 718:Drivers/STM32L1xx_HAL_Driver/Src/stm32l1xx_hal_flash_ex.c ****   return status;
ARM GAS  /tmp/ccAAsIoz.s 			page 14


 719:Drivers/STM32L1xx_HAL_Driver/Src/stm32l1xx_hal_flash_ex.c **** }
 720:Drivers/STM32L1xx_HAL_Driver/Src/stm32l1xx_hal_flash_ex.c **** 
 721:Drivers/STM32L1xx_HAL_Driver/Src/stm32l1xx_hal_flash_ex.c **** #endif /* FLASH_OBR_SPRMOD */
 722:Drivers/STM32L1xx_HAL_Driver/Src/stm32l1xx_hal_flash_ex.c **** 
 723:Drivers/STM32L1xx_HAL_Driver/Src/stm32l1xx_hal_flash_ex.c **** /**
 724:Drivers/STM32L1xx_HAL_Driver/Src/stm32l1xx_hal_flash_ex.c ****   * @}
 725:Drivers/STM32L1xx_HAL_Driver/Src/stm32l1xx_hal_flash_ex.c ****   */
 726:Drivers/STM32L1xx_HAL_Driver/Src/stm32l1xx_hal_flash_ex.c **** 
 727:Drivers/STM32L1xx_HAL_Driver/Src/stm32l1xx_hal_flash_ex.c **** /** @defgroup FLASHEx_Exported_Functions_Group3 DATA EEPROM Programming functions
 728:Drivers/STM32L1xx_HAL_Driver/Src/stm32l1xx_hal_flash_ex.c ****  *  @brief   DATA EEPROM Programming functions
 729:Drivers/STM32L1xx_HAL_Driver/Src/stm32l1xx_hal_flash_ex.c ****  *
 730:Drivers/STM32L1xx_HAL_Driver/Src/stm32l1xx_hal_flash_ex.c **** @verbatim
 731:Drivers/STM32L1xx_HAL_Driver/Src/stm32l1xx_hal_flash_ex.c ****  ===============================================================================
 732:Drivers/STM32L1xx_HAL_Driver/Src/stm32l1xx_hal_flash_ex.c ****                      ##### DATA EEPROM Programming functions #####
 733:Drivers/STM32L1xx_HAL_Driver/Src/stm32l1xx_hal_flash_ex.c ****  ===============================================================================
 734:Drivers/STM32L1xx_HAL_Driver/Src/stm32l1xx_hal_flash_ex.c **** 
 735:Drivers/STM32L1xx_HAL_Driver/Src/stm32l1xx_hal_flash_ex.c ****     [..] Any operation of erase or program should follow these steps:
 736:Drivers/STM32L1xx_HAL_Driver/Src/stm32l1xx_hal_flash_ex.c ****     (#) Call the @ref HAL_FLASHEx_DATAEEPROM_Unlock() function to enable the data EEPROM access
 737:Drivers/STM32L1xx_HAL_Driver/Src/stm32l1xx_hal_flash_ex.c ****         and Flash program erase control register access.
 738:Drivers/STM32L1xx_HAL_Driver/Src/stm32l1xx_hal_flash_ex.c ****     (#) Call the desired function to erase or program data.
 739:Drivers/STM32L1xx_HAL_Driver/Src/stm32l1xx_hal_flash_ex.c ****     (#) Call the @ref HAL_FLASHEx_DATAEEPROM_Lock() to disable the data EEPROM access
 740:Drivers/STM32L1xx_HAL_Driver/Src/stm32l1xx_hal_flash_ex.c ****         and Flash program erase control register access(recommended
 741:Drivers/STM32L1xx_HAL_Driver/Src/stm32l1xx_hal_flash_ex.c ****         to protect the DATA_EEPROM against possible unwanted operation).
 742:Drivers/STM32L1xx_HAL_Driver/Src/stm32l1xx_hal_flash_ex.c **** 
 743:Drivers/STM32L1xx_HAL_Driver/Src/stm32l1xx_hal_flash_ex.c **** @endverbatim
 744:Drivers/STM32L1xx_HAL_Driver/Src/stm32l1xx_hal_flash_ex.c ****   * @{
 745:Drivers/STM32L1xx_HAL_Driver/Src/stm32l1xx_hal_flash_ex.c ****   */
 746:Drivers/STM32L1xx_HAL_Driver/Src/stm32l1xx_hal_flash_ex.c **** 
 747:Drivers/STM32L1xx_HAL_Driver/Src/stm32l1xx_hal_flash_ex.c **** /**
 748:Drivers/STM32L1xx_HAL_Driver/Src/stm32l1xx_hal_flash_ex.c ****   * @brief  Unlocks the data memory and FLASH_PECR register access.
 749:Drivers/STM32L1xx_HAL_Driver/Src/stm32l1xx_hal_flash_ex.c ****   * @retval HAL_StatusTypeDef HAL Status
 750:Drivers/STM32L1xx_HAL_Driver/Src/stm32l1xx_hal_flash_ex.c ****   */
 751:Drivers/STM32L1xx_HAL_Driver/Src/stm32l1xx_hal_flash_ex.c **** HAL_StatusTypeDef HAL_FLASHEx_DATAEEPROM_Unlock(void)
 752:Drivers/STM32L1xx_HAL_Driver/Src/stm32l1xx_hal_flash_ex.c **** {
 753:Drivers/STM32L1xx_HAL_Driver/Src/stm32l1xx_hal_flash_ex.c ****   if((FLASH->PECR & FLASH_PECR_PELOCK) != RESET)
 754:Drivers/STM32L1xx_HAL_Driver/Src/stm32l1xx_hal_flash_ex.c ****   {
 755:Drivers/STM32L1xx_HAL_Driver/Src/stm32l1xx_hal_flash_ex.c ****     /* Unlocking the Data memory and FLASH_PECR register access*/
 756:Drivers/STM32L1xx_HAL_Driver/Src/stm32l1xx_hal_flash_ex.c ****     FLASH->PEKEYR = FLASH_PEKEY1;
 757:Drivers/STM32L1xx_HAL_Driver/Src/stm32l1xx_hal_flash_ex.c ****     FLASH->PEKEYR = FLASH_PEKEY2;
 758:Drivers/STM32L1xx_HAL_Driver/Src/stm32l1xx_hal_flash_ex.c ****   }
 759:Drivers/STM32L1xx_HAL_Driver/Src/stm32l1xx_hal_flash_ex.c ****   else
 760:Drivers/STM32L1xx_HAL_Driver/Src/stm32l1xx_hal_flash_ex.c ****   {
 761:Drivers/STM32L1xx_HAL_Driver/Src/stm32l1xx_hal_flash_ex.c ****     return HAL_ERROR;
 762:Drivers/STM32L1xx_HAL_Driver/Src/stm32l1xx_hal_flash_ex.c ****   }
 763:Drivers/STM32L1xx_HAL_Driver/Src/stm32l1xx_hal_flash_ex.c ****   return HAL_OK;
 764:Drivers/STM32L1xx_HAL_Driver/Src/stm32l1xx_hal_flash_ex.c **** }
 765:Drivers/STM32L1xx_HAL_Driver/Src/stm32l1xx_hal_flash_ex.c **** 
 766:Drivers/STM32L1xx_HAL_Driver/Src/stm32l1xx_hal_flash_ex.c **** /**
 767:Drivers/STM32L1xx_HAL_Driver/Src/stm32l1xx_hal_flash_ex.c ****   * @brief  Locks the Data memory and FLASH_PECR register access.
 768:Drivers/STM32L1xx_HAL_Driver/Src/stm32l1xx_hal_flash_ex.c ****   * @retval HAL_StatusTypeDef HAL Status
 769:Drivers/STM32L1xx_HAL_Driver/Src/stm32l1xx_hal_flash_ex.c ****   */
 770:Drivers/STM32L1xx_HAL_Driver/Src/stm32l1xx_hal_flash_ex.c **** HAL_StatusTypeDef HAL_FLASHEx_DATAEEPROM_Lock(void)
 771:Drivers/STM32L1xx_HAL_Driver/Src/stm32l1xx_hal_flash_ex.c **** {
 772:Drivers/STM32L1xx_HAL_Driver/Src/stm32l1xx_hal_flash_ex.c ****   /* Set the PELOCK Bit to lock the data memory and FLASH_PECR register access */
 773:Drivers/STM32L1xx_HAL_Driver/Src/stm32l1xx_hal_flash_ex.c ****   SET_BIT(FLASH->PECR, FLASH_PECR_PELOCK);
 774:Drivers/STM32L1xx_HAL_Driver/Src/stm32l1xx_hal_flash_ex.c **** 
 775:Drivers/STM32L1xx_HAL_Driver/Src/stm32l1xx_hal_flash_ex.c ****   return HAL_OK;
ARM GAS  /tmp/ccAAsIoz.s 			page 15


 776:Drivers/STM32L1xx_HAL_Driver/Src/stm32l1xx_hal_flash_ex.c **** }
 777:Drivers/STM32L1xx_HAL_Driver/Src/stm32l1xx_hal_flash_ex.c **** 
 778:Drivers/STM32L1xx_HAL_Driver/Src/stm32l1xx_hal_flash_ex.c **** /**
 779:Drivers/STM32L1xx_HAL_Driver/Src/stm32l1xx_hal_flash_ex.c ****   * @brief  Erase a word in data memory.
 780:Drivers/STM32L1xx_HAL_Driver/Src/stm32l1xx_hal_flash_ex.c ****   * @param  Address specifies the address to be erased.
 781:Drivers/STM32L1xx_HAL_Driver/Src/stm32l1xx_hal_flash_ex.c ****   * @param  TypeErase  Indicate the way to erase at a specified address.
 782:Drivers/STM32L1xx_HAL_Driver/Src/stm32l1xx_hal_flash_ex.c ****   *         This parameter can be a value of @ref FLASH_Type_Program
 783:Drivers/STM32L1xx_HAL_Driver/Src/stm32l1xx_hal_flash_ex.c ****   * @note   To correctly run this function, the @ref HAL_FLASHEx_DATAEEPROM_Unlock() function
 784:Drivers/STM32L1xx_HAL_Driver/Src/stm32l1xx_hal_flash_ex.c ****   *         must be called before.
 785:Drivers/STM32L1xx_HAL_Driver/Src/stm32l1xx_hal_flash_ex.c ****   *         Call the @ref HAL_FLASHEx_DATAEEPROM_Lock() to the data EEPROM access
 786:Drivers/STM32L1xx_HAL_Driver/Src/stm32l1xx_hal_flash_ex.c ****   *         and Flash program erase control register access(recommended to protect
 787:Drivers/STM32L1xx_HAL_Driver/Src/stm32l1xx_hal_flash_ex.c ****   *         the DATA_EEPROM against possible unwanted operation).
 788:Drivers/STM32L1xx_HAL_Driver/Src/stm32l1xx_hal_flash_ex.c ****   * @retval HAL_StatusTypeDef HAL Status
 789:Drivers/STM32L1xx_HAL_Driver/Src/stm32l1xx_hal_flash_ex.c ****   */
 790:Drivers/STM32L1xx_HAL_Driver/Src/stm32l1xx_hal_flash_ex.c **** HAL_StatusTypeDef HAL_FLASHEx_DATAEEPROM_Erase(uint32_t TypeErase, uint32_t Address)
 791:Drivers/STM32L1xx_HAL_Driver/Src/stm32l1xx_hal_flash_ex.c **** {
 792:Drivers/STM32L1xx_HAL_Driver/Src/stm32l1xx_hal_flash_ex.c ****   HAL_StatusTypeDef status = HAL_OK;
 793:Drivers/STM32L1xx_HAL_Driver/Src/stm32l1xx_hal_flash_ex.c **** 
 794:Drivers/STM32L1xx_HAL_Driver/Src/stm32l1xx_hal_flash_ex.c ****   /* Check the parameters */
 795:Drivers/STM32L1xx_HAL_Driver/Src/stm32l1xx_hal_flash_ex.c ****   assert_param(IS_TYPEERASEDATA(TypeErase));
 796:Drivers/STM32L1xx_HAL_Driver/Src/stm32l1xx_hal_flash_ex.c ****   assert_param(IS_FLASH_DATA_ADDRESS(Address));
 797:Drivers/STM32L1xx_HAL_Driver/Src/stm32l1xx_hal_flash_ex.c **** 
 798:Drivers/STM32L1xx_HAL_Driver/Src/stm32l1xx_hal_flash_ex.c ****   /* Wait for last operation to be completed */
 799:Drivers/STM32L1xx_HAL_Driver/Src/stm32l1xx_hal_flash_ex.c ****   status = FLASH_WaitForLastOperation(FLASH_TIMEOUT_VALUE);
 800:Drivers/STM32L1xx_HAL_Driver/Src/stm32l1xx_hal_flash_ex.c **** 
 801:Drivers/STM32L1xx_HAL_Driver/Src/stm32l1xx_hal_flash_ex.c ****   if(status == HAL_OK)
 802:Drivers/STM32L1xx_HAL_Driver/Src/stm32l1xx_hal_flash_ex.c ****   {
 803:Drivers/STM32L1xx_HAL_Driver/Src/stm32l1xx_hal_flash_ex.c ****     /* Clean the error context */
 804:Drivers/STM32L1xx_HAL_Driver/Src/stm32l1xx_hal_flash_ex.c ****     pFlash.ErrorCode = HAL_FLASH_ERROR_NONE;
 805:Drivers/STM32L1xx_HAL_Driver/Src/stm32l1xx_hal_flash_ex.c **** 
 806:Drivers/STM32L1xx_HAL_Driver/Src/stm32l1xx_hal_flash_ex.c ****     if(TypeErase == FLASH_TYPEERASEDATA_WORD)
 807:Drivers/STM32L1xx_HAL_Driver/Src/stm32l1xx_hal_flash_ex.c ****     {
 808:Drivers/STM32L1xx_HAL_Driver/Src/stm32l1xx_hal_flash_ex.c ****       /* Write 00000000h to valid address in the data memory */
 809:Drivers/STM32L1xx_HAL_Driver/Src/stm32l1xx_hal_flash_ex.c ****       *(__IO uint32_t *) Address = 0x00000000U;
 810:Drivers/STM32L1xx_HAL_Driver/Src/stm32l1xx_hal_flash_ex.c ****     }
 811:Drivers/STM32L1xx_HAL_Driver/Src/stm32l1xx_hal_flash_ex.c **** 
 812:Drivers/STM32L1xx_HAL_Driver/Src/stm32l1xx_hal_flash_ex.c ****     if(TypeErase == FLASH_TYPEERASEDATA_HALFWORD)
 813:Drivers/STM32L1xx_HAL_Driver/Src/stm32l1xx_hal_flash_ex.c ****     {
 814:Drivers/STM32L1xx_HAL_Driver/Src/stm32l1xx_hal_flash_ex.c ****       /* Write 0000h to valid address in the data memory */
 815:Drivers/STM32L1xx_HAL_Driver/Src/stm32l1xx_hal_flash_ex.c ****       *(__IO uint16_t *) Address = (uint16_t)0x0000;
 816:Drivers/STM32L1xx_HAL_Driver/Src/stm32l1xx_hal_flash_ex.c ****     }
 817:Drivers/STM32L1xx_HAL_Driver/Src/stm32l1xx_hal_flash_ex.c **** 
 818:Drivers/STM32L1xx_HAL_Driver/Src/stm32l1xx_hal_flash_ex.c ****     if(TypeErase == FLASH_TYPEERASEDATA_BYTE)
 819:Drivers/STM32L1xx_HAL_Driver/Src/stm32l1xx_hal_flash_ex.c ****     {
 820:Drivers/STM32L1xx_HAL_Driver/Src/stm32l1xx_hal_flash_ex.c ****       /* Write 00h to valid address in the data memory */
 821:Drivers/STM32L1xx_HAL_Driver/Src/stm32l1xx_hal_flash_ex.c ****       *(__IO uint8_t *) Address = (uint8_t)0x00;
 822:Drivers/STM32L1xx_HAL_Driver/Src/stm32l1xx_hal_flash_ex.c ****     }
 823:Drivers/STM32L1xx_HAL_Driver/Src/stm32l1xx_hal_flash_ex.c **** 
 824:Drivers/STM32L1xx_HAL_Driver/Src/stm32l1xx_hal_flash_ex.c ****     status = FLASH_WaitForLastOperation(FLASH_TIMEOUT_VALUE);
 825:Drivers/STM32L1xx_HAL_Driver/Src/stm32l1xx_hal_flash_ex.c ****   }
 826:Drivers/STM32L1xx_HAL_Driver/Src/stm32l1xx_hal_flash_ex.c **** 
 827:Drivers/STM32L1xx_HAL_Driver/Src/stm32l1xx_hal_flash_ex.c ****   /* Return the erase status */
 828:Drivers/STM32L1xx_HAL_Driver/Src/stm32l1xx_hal_flash_ex.c ****   return status;
 829:Drivers/STM32L1xx_HAL_Driver/Src/stm32l1xx_hal_flash_ex.c **** }
 830:Drivers/STM32L1xx_HAL_Driver/Src/stm32l1xx_hal_flash_ex.c **** 
 831:Drivers/STM32L1xx_HAL_Driver/Src/stm32l1xx_hal_flash_ex.c **** /**
 832:Drivers/STM32L1xx_HAL_Driver/Src/stm32l1xx_hal_flash_ex.c ****   * @brief  Program word at a specified address
ARM GAS  /tmp/ccAAsIoz.s 			page 16


 833:Drivers/STM32L1xx_HAL_Driver/Src/stm32l1xx_hal_flash_ex.c ****   * @note   To correctly run this function, the @ref HAL_FLASHEx_DATAEEPROM_Unlock() function
 834:Drivers/STM32L1xx_HAL_Driver/Src/stm32l1xx_hal_flash_ex.c ****   *         must be called before.
 835:Drivers/STM32L1xx_HAL_Driver/Src/stm32l1xx_hal_flash_ex.c ****   *         Call the @ref HAL_FLASHEx_DATAEEPROM_Unlock() to he data EEPROM access
 836:Drivers/STM32L1xx_HAL_Driver/Src/stm32l1xx_hal_flash_ex.c ****   *         and Flash program erase control register access(recommended to protect
 837:Drivers/STM32L1xx_HAL_Driver/Src/stm32l1xx_hal_flash_ex.c ****   *         the DATA_EEPROM against possible unwanted operation).
 838:Drivers/STM32L1xx_HAL_Driver/Src/stm32l1xx_hal_flash_ex.c ****   * @note   The function @ref HAL_FLASHEx_DATAEEPROM_EnableFixedTimeProgram() can be called before
 839:Drivers/STM32L1xx_HAL_Driver/Src/stm32l1xx_hal_flash_ex.c ****   *         this function to configure the Fixed Time Programming.
 840:Drivers/STM32L1xx_HAL_Driver/Src/stm32l1xx_hal_flash_ex.c ****   * @param  TypeProgram  Indicate the way to program at a specified address.
 841:Drivers/STM32L1xx_HAL_Driver/Src/stm32l1xx_hal_flash_ex.c ****   *         This parameter can be a value of @ref FLASHEx_Type_Program_Data
 842:Drivers/STM32L1xx_HAL_Driver/Src/stm32l1xx_hal_flash_ex.c ****   * @param  Address  specifie the address to be programmed.
 843:Drivers/STM32L1xx_HAL_Driver/Src/stm32l1xx_hal_flash_ex.c ****   * @param  Data     specifie the data to be programmed
 844:Drivers/STM32L1xx_HAL_Driver/Src/stm32l1xx_hal_flash_ex.c ****   *
 845:Drivers/STM32L1xx_HAL_Driver/Src/stm32l1xx_hal_flash_ex.c ****   * @retval HAL_StatusTypeDef HAL Status
 846:Drivers/STM32L1xx_HAL_Driver/Src/stm32l1xx_hal_flash_ex.c ****   */
 847:Drivers/STM32L1xx_HAL_Driver/Src/stm32l1xx_hal_flash_ex.c **** 
 848:Drivers/STM32L1xx_HAL_Driver/Src/stm32l1xx_hal_flash_ex.c **** HAL_StatusTypeDef   HAL_FLASHEx_DATAEEPROM_Program(uint32_t TypeProgram, uint32_t Address, uint32_t
 849:Drivers/STM32L1xx_HAL_Driver/Src/stm32l1xx_hal_flash_ex.c **** {
 850:Drivers/STM32L1xx_HAL_Driver/Src/stm32l1xx_hal_flash_ex.c ****   HAL_StatusTypeDef status = HAL_ERROR;
 851:Drivers/STM32L1xx_HAL_Driver/Src/stm32l1xx_hal_flash_ex.c **** 
 852:Drivers/STM32L1xx_HAL_Driver/Src/stm32l1xx_hal_flash_ex.c ****   /* Process Locked */
 853:Drivers/STM32L1xx_HAL_Driver/Src/stm32l1xx_hal_flash_ex.c ****   __HAL_LOCK(&pFlash);
 854:Drivers/STM32L1xx_HAL_Driver/Src/stm32l1xx_hal_flash_ex.c **** 
 855:Drivers/STM32L1xx_HAL_Driver/Src/stm32l1xx_hal_flash_ex.c ****   /* Check the parameters */
 856:Drivers/STM32L1xx_HAL_Driver/Src/stm32l1xx_hal_flash_ex.c ****   assert_param(IS_TYPEPROGRAMDATA(TypeProgram));
 857:Drivers/STM32L1xx_HAL_Driver/Src/stm32l1xx_hal_flash_ex.c **** 
 858:Drivers/STM32L1xx_HAL_Driver/Src/stm32l1xx_hal_flash_ex.c ****   /* Wait for last operation to be completed */
 859:Drivers/STM32L1xx_HAL_Driver/Src/stm32l1xx_hal_flash_ex.c ****   status = FLASH_WaitForLastOperation(FLASH_TIMEOUT_VALUE);
 860:Drivers/STM32L1xx_HAL_Driver/Src/stm32l1xx_hal_flash_ex.c **** 
 861:Drivers/STM32L1xx_HAL_Driver/Src/stm32l1xx_hal_flash_ex.c ****   if(status == HAL_OK)
 862:Drivers/STM32L1xx_HAL_Driver/Src/stm32l1xx_hal_flash_ex.c ****   {
 863:Drivers/STM32L1xx_HAL_Driver/Src/stm32l1xx_hal_flash_ex.c ****     /* Clean the error context */
 864:Drivers/STM32L1xx_HAL_Driver/Src/stm32l1xx_hal_flash_ex.c ****     pFlash.ErrorCode = HAL_FLASH_ERROR_NONE;
 865:Drivers/STM32L1xx_HAL_Driver/Src/stm32l1xx_hal_flash_ex.c **** 
 866:Drivers/STM32L1xx_HAL_Driver/Src/stm32l1xx_hal_flash_ex.c ****     if(TypeProgram == FLASH_TYPEPROGRAMDATA_WORD)
 867:Drivers/STM32L1xx_HAL_Driver/Src/stm32l1xx_hal_flash_ex.c ****     {
 868:Drivers/STM32L1xx_HAL_Driver/Src/stm32l1xx_hal_flash_ex.c ****       /* Program word (32-bit) at a specified address.*/
 869:Drivers/STM32L1xx_HAL_Driver/Src/stm32l1xx_hal_flash_ex.c ****       status = FLASH_DATAEEPROM_ProgramWord(Address, (uint32_t) Data);
 870:Drivers/STM32L1xx_HAL_Driver/Src/stm32l1xx_hal_flash_ex.c ****     }
 871:Drivers/STM32L1xx_HAL_Driver/Src/stm32l1xx_hal_flash_ex.c ****     else if(TypeProgram == FLASH_TYPEPROGRAMDATA_HALFWORD)
 872:Drivers/STM32L1xx_HAL_Driver/Src/stm32l1xx_hal_flash_ex.c ****     {
 873:Drivers/STM32L1xx_HAL_Driver/Src/stm32l1xx_hal_flash_ex.c ****       /* Program halfword (16-bit) at a specified address.*/
 874:Drivers/STM32L1xx_HAL_Driver/Src/stm32l1xx_hal_flash_ex.c ****       status = FLASH_DATAEEPROM_ProgramHalfWord(Address, (uint16_t) Data);
 875:Drivers/STM32L1xx_HAL_Driver/Src/stm32l1xx_hal_flash_ex.c ****     }
 876:Drivers/STM32L1xx_HAL_Driver/Src/stm32l1xx_hal_flash_ex.c ****     else if(TypeProgram == FLASH_TYPEPROGRAMDATA_BYTE)
 877:Drivers/STM32L1xx_HAL_Driver/Src/stm32l1xx_hal_flash_ex.c ****     {
 878:Drivers/STM32L1xx_HAL_Driver/Src/stm32l1xx_hal_flash_ex.c ****       /* Program byte (8-bit) at a specified address.*/
 879:Drivers/STM32L1xx_HAL_Driver/Src/stm32l1xx_hal_flash_ex.c ****       status = FLASH_DATAEEPROM_ProgramByte(Address, (uint8_t) Data);
 880:Drivers/STM32L1xx_HAL_Driver/Src/stm32l1xx_hal_flash_ex.c ****     }
 881:Drivers/STM32L1xx_HAL_Driver/Src/stm32l1xx_hal_flash_ex.c ****     else if(TypeProgram == FLASH_TYPEPROGRAMDATA_FASTBYTE)
 882:Drivers/STM32L1xx_HAL_Driver/Src/stm32l1xx_hal_flash_ex.c ****     {
 883:Drivers/STM32L1xx_HAL_Driver/Src/stm32l1xx_hal_flash_ex.c ****       /*Program word (8-bit) at a specified address.*/
 884:Drivers/STM32L1xx_HAL_Driver/Src/stm32l1xx_hal_flash_ex.c ****       status = FLASH_DATAEEPROM_FastProgramByte(Address, (uint8_t) Data);
 885:Drivers/STM32L1xx_HAL_Driver/Src/stm32l1xx_hal_flash_ex.c ****     }
 886:Drivers/STM32L1xx_HAL_Driver/Src/stm32l1xx_hal_flash_ex.c ****     else if(TypeProgram == FLASH_TYPEPROGRAMDATA_FASTHALFWORD)
 887:Drivers/STM32L1xx_HAL_Driver/Src/stm32l1xx_hal_flash_ex.c ****     {
 888:Drivers/STM32L1xx_HAL_Driver/Src/stm32l1xx_hal_flash_ex.c ****       /* Program halfword (16-bit) at a specified address.*/
 889:Drivers/STM32L1xx_HAL_Driver/Src/stm32l1xx_hal_flash_ex.c ****       status = FLASH_DATAEEPROM_FastProgramHalfWord(Address, (uint16_t) Data);
ARM GAS  /tmp/ccAAsIoz.s 			page 17


 890:Drivers/STM32L1xx_HAL_Driver/Src/stm32l1xx_hal_flash_ex.c ****     }
 891:Drivers/STM32L1xx_HAL_Driver/Src/stm32l1xx_hal_flash_ex.c ****     else if(TypeProgram == FLASH_TYPEPROGRAMDATA_FASTWORD)
 892:Drivers/STM32L1xx_HAL_Driver/Src/stm32l1xx_hal_flash_ex.c ****     {
 893:Drivers/STM32L1xx_HAL_Driver/Src/stm32l1xx_hal_flash_ex.c ****       /* Program word (32-bit) at a specified address.*/
 894:Drivers/STM32L1xx_HAL_Driver/Src/stm32l1xx_hal_flash_ex.c ****       status = FLASH_DATAEEPROM_FastProgramWord(Address, (uint32_t) Data);
 895:Drivers/STM32L1xx_HAL_Driver/Src/stm32l1xx_hal_flash_ex.c ****     }
 896:Drivers/STM32L1xx_HAL_Driver/Src/stm32l1xx_hal_flash_ex.c ****     else
 897:Drivers/STM32L1xx_HAL_Driver/Src/stm32l1xx_hal_flash_ex.c ****     {
 898:Drivers/STM32L1xx_HAL_Driver/Src/stm32l1xx_hal_flash_ex.c ****       status = HAL_ERROR;
 899:Drivers/STM32L1xx_HAL_Driver/Src/stm32l1xx_hal_flash_ex.c ****     }
 900:Drivers/STM32L1xx_HAL_Driver/Src/stm32l1xx_hal_flash_ex.c **** 
 901:Drivers/STM32L1xx_HAL_Driver/Src/stm32l1xx_hal_flash_ex.c ****   }
 902:Drivers/STM32L1xx_HAL_Driver/Src/stm32l1xx_hal_flash_ex.c **** 
 903:Drivers/STM32L1xx_HAL_Driver/Src/stm32l1xx_hal_flash_ex.c ****   /* Process Unlocked */
 904:Drivers/STM32L1xx_HAL_Driver/Src/stm32l1xx_hal_flash_ex.c ****   __HAL_UNLOCK(&pFlash);
 905:Drivers/STM32L1xx_HAL_Driver/Src/stm32l1xx_hal_flash_ex.c **** 
 906:Drivers/STM32L1xx_HAL_Driver/Src/stm32l1xx_hal_flash_ex.c ****   return status;
 907:Drivers/STM32L1xx_HAL_Driver/Src/stm32l1xx_hal_flash_ex.c **** }
 908:Drivers/STM32L1xx_HAL_Driver/Src/stm32l1xx_hal_flash_ex.c **** 
 909:Drivers/STM32L1xx_HAL_Driver/Src/stm32l1xx_hal_flash_ex.c **** /**
 910:Drivers/STM32L1xx_HAL_Driver/Src/stm32l1xx_hal_flash_ex.c ****   * @brief  Enable DATA EEPROM fixed Time programming (2*Tprog).
 911:Drivers/STM32L1xx_HAL_Driver/Src/stm32l1xx_hal_flash_ex.c ****   * @retval None
 912:Drivers/STM32L1xx_HAL_Driver/Src/stm32l1xx_hal_flash_ex.c ****   */
 913:Drivers/STM32L1xx_HAL_Driver/Src/stm32l1xx_hal_flash_ex.c **** void HAL_FLASHEx_DATAEEPROM_EnableFixedTimeProgram(void)
 914:Drivers/STM32L1xx_HAL_Driver/Src/stm32l1xx_hal_flash_ex.c **** {
 915:Drivers/STM32L1xx_HAL_Driver/Src/stm32l1xx_hal_flash_ex.c ****   SET_BIT(FLASH->PECR, FLASH_PECR_FTDW);
 916:Drivers/STM32L1xx_HAL_Driver/Src/stm32l1xx_hal_flash_ex.c **** }
 917:Drivers/STM32L1xx_HAL_Driver/Src/stm32l1xx_hal_flash_ex.c **** 
 918:Drivers/STM32L1xx_HAL_Driver/Src/stm32l1xx_hal_flash_ex.c **** /**
 919:Drivers/STM32L1xx_HAL_Driver/Src/stm32l1xx_hal_flash_ex.c ****   * @brief  Disables DATA EEPROM fixed Time programming (2*Tprog).
 920:Drivers/STM32L1xx_HAL_Driver/Src/stm32l1xx_hal_flash_ex.c ****   * @retval None
 921:Drivers/STM32L1xx_HAL_Driver/Src/stm32l1xx_hal_flash_ex.c ****   */
 922:Drivers/STM32L1xx_HAL_Driver/Src/stm32l1xx_hal_flash_ex.c **** void HAL_FLASHEx_DATAEEPROM_DisableFixedTimeProgram(void)
 923:Drivers/STM32L1xx_HAL_Driver/Src/stm32l1xx_hal_flash_ex.c **** {
 924:Drivers/STM32L1xx_HAL_Driver/Src/stm32l1xx_hal_flash_ex.c ****   CLEAR_BIT(FLASH->PECR, FLASH_PECR_FTDW);
 925:Drivers/STM32L1xx_HAL_Driver/Src/stm32l1xx_hal_flash_ex.c **** }
 926:Drivers/STM32L1xx_HAL_Driver/Src/stm32l1xx_hal_flash_ex.c **** 
 927:Drivers/STM32L1xx_HAL_Driver/Src/stm32l1xx_hal_flash_ex.c **** /**
 928:Drivers/STM32L1xx_HAL_Driver/Src/stm32l1xx_hal_flash_ex.c ****   * @}
 929:Drivers/STM32L1xx_HAL_Driver/Src/stm32l1xx_hal_flash_ex.c ****   */
 930:Drivers/STM32L1xx_HAL_Driver/Src/stm32l1xx_hal_flash_ex.c **** 
 931:Drivers/STM32L1xx_HAL_Driver/Src/stm32l1xx_hal_flash_ex.c **** /**
 932:Drivers/STM32L1xx_HAL_Driver/Src/stm32l1xx_hal_flash_ex.c ****   * @}
 933:Drivers/STM32L1xx_HAL_Driver/Src/stm32l1xx_hal_flash_ex.c ****   */
 934:Drivers/STM32L1xx_HAL_Driver/Src/stm32l1xx_hal_flash_ex.c **** 
 935:Drivers/STM32L1xx_HAL_Driver/Src/stm32l1xx_hal_flash_ex.c **** /** @addtogroup FLASHEx_Private_Functions
 936:Drivers/STM32L1xx_HAL_Driver/Src/stm32l1xx_hal_flash_ex.c ****  * @{
 937:Drivers/STM32L1xx_HAL_Driver/Src/stm32l1xx_hal_flash_ex.c ****  */
 938:Drivers/STM32L1xx_HAL_Driver/Src/stm32l1xx_hal_flash_ex.c **** 
 939:Drivers/STM32L1xx_HAL_Driver/Src/stm32l1xx_hal_flash_ex.c **** /*
 940:Drivers/STM32L1xx_HAL_Driver/Src/stm32l1xx_hal_flash_ex.c **** ==============================================================================
 941:Drivers/STM32L1xx_HAL_Driver/Src/stm32l1xx_hal_flash_ex.c ****               OPTIONS BYTES
 942:Drivers/STM32L1xx_HAL_Driver/Src/stm32l1xx_hal_flash_ex.c **** ==============================================================================
 943:Drivers/STM32L1xx_HAL_Driver/Src/stm32l1xx_hal_flash_ex.c **** */
 944:Drivers/STM32L1xx_HAL_Driver/Src/stm32l1xx_hal_flash_ex.c **** /**
 945:Drivers/STM32L1xx_HAL_Driver/Src/stm32l1xx_hal_flash_ex.c ****   * @brief  Enables or disables the read out protection.
 946:Drivers/STM32L1xx_HAL_Driver/Src/stm32l1xx_hal_flash_ex.c ****   * @note   To correctly run this function, the @ref HAL_FLASH_OB_Unlock() function
ARM GAS  /tmp/ccAAsIoz.s 			page 18


 947:Drivers/STM32L1xx_HAL_Driver/Src/stm32l1xx_hal_flash_ex.c ****   *         must be called before.
 948:Drivers/STM32L1xx_HAL_Driver/Src/stm32l1xx_hal_flash_ex.c ****   * @param  OB_RDP specifies the read protection level.
 949:Drivers/STM32L1xx_HAL_Driver/Src/stm32l1xx_hal_flash_ex.c ****   *   This parameter can be:
 950:Drivers/STM32L1xx_HAL_Driver/Src/stm32l1xx_hal_flash_ex.c ****   *     @arg @ref OB_RDP_LEVEL_0 No protection
 951:Drivers/STM32L1xx_HAL_Driver/Src/stm32l1xx_hal_flash_ex.c ****   *     @arg @ref OB_RDP_LEVEL_1 Read protection of the memory
 952:Drivers/STM32L1xx_HAL_Driver/Src/stm32l1xx_hal_flash_ex.c ****   *     @arg @ref OB_RDP_LEVEL_2 Chip protection
 953:Drivers/STM32L1xx_HAL_Driver/Src/stm32l1xx_hal_flash_ex.c ****   *
 954:Drivers/STM32L1xx_HAL_Driver/Src/stm32l1xx_hal_flash_ex.c ****   *  !!!Warning!!! When enabling OB_RDP_LEVEL_2 it's no more possible to go back to level 1 or 0
 955:Drivers/STM32L1xx_HAL_Driver/Src/stm32l1xx_hal_flash_ex.c ****   *
 956:Drivers/STM32L1xx_HAL_Driver/Src/stm32l1xx_hal_flash_ex.c ****   * @retval HAL status
 957:Drivers/STM32L1xx_HAL_Driver/Src/stm32l1xx_hal_flash_ex.c ****   */
 958:Drivers/STM32L1xx_HAL_Driver/Src/stm32l1xx_hal_flash_ex.c **** static HAL_StatusTypeDef FLASH_OB_RDPConfig(uint8_t OB_RDP)
 959:Drivers/STM32L1xx_HAL_Driver/Src/stm32l1xx_hal_flash_ex.c **** {
 960:Drivers/STM32L1xx_HAL_Driver/Src/stm32l1xx_hal_flash_ex.c ****   HAL_StatusTypeDef status = HAL_OK;
 961:Drivers/STM32L1xx_HAL_Driver/Src/stm32l1xx_hal_flash_ex.c ****   uint32_t tmp1 = 0U, tmp2 = 0U, tmp3 = 0U;
 962:Drivers/STM32L1xx_HAL_Driver/Src/stm32l1xx_hal_flash_ex.c **** 
 963:Drivers/STM32L1xx_HAL_Driver/Src/stm32l1xx_hal_flash_ex.c ****   /* Check the parameters */
 964:Drivers/STM32L1xx_HAL_Driver/Src/stm32l1xx_hal_flash_ex.c ****   assert_param(IS_OB_RDP(OB_RDP));
 965:Drivers/STM32L1xx_HAL_Driver/Src/stm32l1xx_hal_flash_ex.c **** 
 966:Drivers/STM32L1xx_HAL_Driver/Src/stm32l1xx_hal_flash_ex.c ****   tmp1 = (uint32_t)(OB->RDP & FLASH_OBR_RDPRT);
 967:Drivers/STM32L1xx_HAL_Driver/Src/stm32l1xx_hal_flash_ex.c **** 
 968:Drivers/STM32L1xx_HAL_Driver/Src/stm32l1xx_hal_flash_ex.c ****   /* According to errata sheet, DocID022054 Rev 5, par2.1.5
 969:Drivers/STM32L1xx_HAL_Driver/Src/stm32l1xx_hal_flash_ex.c ****   Before setting Level0 in the RDP register, check that the current level is not equal to Level0.
 970:Drivers/STM32L1xx_HAL_Driver/Src/stm32l1xx_hal_flash_ex.c ****   If the current level is not equal to Level0, Level0 can be activated.
 971:Drivers/STM32L1xx_HAL_Driver/Src/stm32l1xx_hal_flash_ex.c ****   If the current level is Level0 then the RDP register must not be written again with Level0. */
 972:Drivers/STM32L1xx_HAL_Driver/Src/stm32l1xx_hal_flash_ex.c **** 
 973:Drivers/STM32L1xx_HAL_Driver/Src/stm32l1xx_hal_flash_ex.c ****   if ((tmp1 == OB_RDP_LEVEL_0) && (OB_RDP == OB_RDP_LEVEL_0))
 974:Drivers/STM32L1xx_HAL_Driver/Src/stm32l1xx_hal_flash_ex.c ****   {
 975:Drivers/STM32L1xx_HAL_Driver/Src/stm32l1xx_hal_flash_ex.c ****     /*current level is Level0 then the RDP register must not be written again with Level0. */
 976:Drivers/STM32L1xx_HAL_Driver/Src/stm32l1xx_hal_flash_ex.c ****     status = HAL_ERROR;
 977:Drivers/STM32L1xx_HAL_Driver/Src/stm32l1xx_hal_flash_ex.c ****   }
 978:Drivers/STM32L1xx_HAL_Driver/Src/stm32l1xx_hal_flash_ex.c ****   else
 979:Drivers/STM32L1xx_HAL_Driver/Src/stm32l1xx_hal_flash_ex.c ****   {
 980:Drivers/STM32L1xx_HAL_Driver/Src/stm32l1xx_hal_flash_ex.c **** #if defined(FLASH_OBR_SPRMOD)
 981:Drivers/STM32L1xx_HAL_Driver/Src/stm32l1xx_hal_flash_ex.c ****     /* Mask SPRMOD bit */
 982:Drivers/STM32L1xx_HAL_Driver/Src/stm32l1xx_hal_flash_ex.c ****     tmp3 = (uint32_t)(OB->RDP & FLASH_OBR_SPRMOD);
 983:Drivers/STM32L1xx_HAL_Driver/Src/stm32l1xx_hal_flash_ex.c **** #endif
 984:Drivers/STM32L1xx_HAL_Driver/Src/stm32l1xx_hal_flash_ex.c **** 
 985:Drivers/STM32L1xx_HAL_Driver/Src/stm32l1xx_hal_flash_ex.c ****     /* calculate the option byte to write */
 986:Drivers/STM32L1xx_HAL_Driver/Src/stm32l1xx_hal_flash_ex.c ****     tmp1 = (~((uint32_t)(OB_RDP | tmp3)));
 987:Drivers/STM32L1xx_HAL_Driver/Src/stm32l1xx_hal_flash_ex.c ****     tmp2 = (uint32_t)(((uint32_t)((uint32_t)(tmp1) << 16U)) | ((uint32_t)(OB_RDP | tmp3)));
 988:Drivers/STM32L1xx_HAL_Driver/Src/stm32l1xx_hal_flash_ex.c **** 
 989:Drivers/STM32L1xx_HAL_Driver/Src/stm32l1xx_hal_flash_ex.c ****     /* Wait for last operation to be completed */
 990:Drivers/STM32L1xx_HAL_Driver/Src/stm32l1xx_hal_flash_ex.c ****     status = FLASH_WaitForLastOperation(FLASH_TIMEOUT_VALUE);
 991:Drivers/STM32L1xx_HAL_Driver/Src/stm32l1xx_hal_flash_ex.c **** 
 992:Drivers/STM32L1xx_HAL_Driver/Src/stm32l1xx_hal_flash_ex.c ****     if(status == HAL_OK)
 993:Drivers/STM32L1xx_HAL_Driver/Src/stm32l1xx_hal_flash_ex.c ****     {
 994:Drivers/STM32L1xx_HAL_Driver/Src/stm32l1xx_hal_flash_ex.c ****       /* Clean the error context */
 995:Drivers/STM32L1xx_HAL_Driver/Src/stm32l1xx_hal_flash_ex.c ****       pFlash.ErrorCode = HAL_FLASH_ERROR_NONE;
 996:Drivers/STM32L1xx_HAL_Driver/Src/stm32l1xx_hal_flash_ex.c **** 
 997:Drivers/STM32L1xx_HAL_Driver/Src/stm32l1xx_hal_flash_ex.c ****       /* program read protection level */
 998:Drivers/STM32L1xx_HAL_Driver/Src/stm32l1xx_hal_flash_ex.c ****       OB->RDP = tmp2;
 999:Drivers/STM32L1xx_HAL_Driver/Src/stm32l1xx_hal_flash_ex.c **** 
1000:Drivers/STM32L1xx_HAL_Driver/Src/stm32l1xx_hal_flash_ex.c ****       /* Wait for last operation to be completed */
1001:Drivers/STM32L1xx_HAL_Driver/Src/stm32l1xx_hal_flash_ex.c ****       status = FLASH_WaitForLastOperation(FLASH_TIMEOUT_VALUE);
1002:Drivers/STM32L1xx_HAL_Driver/Src/stm32l1xx_hal_flash_ex.c ****     }
1003:Drivers/STM32L1xx_HAL_Driver/Src/stm32l1xx_hal_flash_ex.c ****   }
ARM GAS  /tmp/ccAAsIoz.s 			page 19


1004:Drivers/STM32L1xx_HAL_Driver/Src/stm32l1xx_hal_flash_ex.c **** 
1005:Drivers/STM32L1xx_HAL_Driver/Src/stm32l1xx_hal_flash_ex.c ****   /* Return the Read protection operation Status */
1006:Drivers/STM32L1xx_HAL_Driver/Src/stm32l1xx_hal_flash_ex.c ****   return status;
1007:Drivers/STM32L1xx_HAL_Driver/Src/stm32l1xx_hal_flash_ex.c **** }
1008:Drivers/STM32L1xx_HAL_Driver/Src/stm32l1xx_hal_flash_ex.c **** 
1009:Drivers/STM32L1xx_HAL_Driver/Src/stm32l1xx_hal_flash_ex.c **** /**
1010:Drivers/STM32L1xx_HAL_Driver/Src/stm32l1xx_hal_flash_ex.c ****   * @brief  Programs the FLASH brownout reset threshold level Option Byte.
1011:Drivers/STM32L1xx_HAL_Driver/Src/stm32l1xx_hal_flash_ex.c ****   * @param  OB_BOR Selects the brownout reset threshold level.
1012:Drivers/STM32L1xx_HAL_Driver/Src/stm32l1xx_hal_flash_ex.c ****   *   This parameter can be one of the following values:
1013:Drivers/STM32L1xx_HAL_Driver/Src/stm32l1xx_hal_flash_ex.c ****   *     @arg @ref OB_BOR_OFF BOR is disabled at power down, the reset is asserted when the VDD
1014:Drivers/STM32L1xx_HAL_Driver/Src/stm32l1xx_hal_flash_ex.c ****   *                      power supply reaches the PDR(Power Down Reset) threshold (1.5V)
1015:Drivers/STM32L1xx_HAL_Driver/Src/stm32l1xx_hal_flash_ex.c ****   *     @arg @ref OB_BOR_LEVEL1 BOR Reset threshold levels for 1.7V - 1.8V VDD power supply
1016:Drivers/STM32L1xx_HAL_Driver/Src/stm32l1xx_hal_flash_ex.c ****   *     @arg @ref OB_BOR_LEVEL2 BOR Reset threshold levels for 1.9V - 2.0V VDD power supply
1017:Drivers/STM32L1xx_HAL_Driver/Src/stm32l1xx_hal_flash_ex.c ****   *     @arg @ref OB_BOR_LEVEL3 BOR Reset threshold levels for 2.3V - 2.4V VDD power supply
1018:Drivers/STM32L1xx_HAL_Driver/Src/stm32l1xx_hal_flash_ex.c ****   *     @arg @ref OB_BOR_LEVEL4 BOR Reset threshold levels for 2.55V - 2.65V VDD power supply
1019:Drivers/STM32L1xx_HAL_Driver/Src/stm32l1xx_hal_flash_ex.c ****   *     @arg @ref OB_BOR_LEVEL5 BOR Reset threshold levels for 2.8V - 2.9V VDD power supply
1020:Drivers/STM32L1xx_HAL_Driver/Src/stm32l1xx_hal_flash_ex.c ****   * @retval HAL status
1021:Drivers/STM32L1xx_HAL_Driver/Src/stm32l1xx_hal_flash_ex.c ****   */
1022:Drivers/STM32L1xx_HAL_Driver/Src/stm32l1xx_hal_flash_ex.c **** static HAL_StatusTypeDef FLASH_OB_BORConfig(uint8_t OB_BOR)
1023:Drivers/STM32L1xx_HAL_Driver/Src/stm32l1xx_hal_flash_ex.c **** {
1024:Drivers/STM32L1xx_HAL_Driver/Src/stm32l1xx_hal_flash_ex.c ****   HAL_StatusTypeDef status = HAL_OK;
1025:Drivers/STM32L1xx_HAL_Driver/Src/stm32l1xx_hal_flash_ex.c ****   uint32_t tmp = 0U, tmp1 = 0U;
1026:Drivers/STM32L1xx_HAL_Driver/Src/stm32l1xx_hal_flash_ex.c **** 
1027:Drivers/STM32L1xx_HAL_Driver/Src/stm32l1xx_hal_flash_ex.c ****   /* Check the parameters */
1028:Drivers/STM32L1xx_HAL_Driver/Src/stm32l1xx_hal_flash_ex.c ****   assert_param(IS_OB_BOR_LEVEL(OB_BOR));
1029:Drivers/STM32L1xx_HAL_Driver/Src/stm32l1xx_hal_flash_ex.c **** 
1030:Drivers/STM32L1xx_HAL_Driver/Src/stm32l1xx_hal_flash_ex.c ****   /* Get the User Option byte register */
1031:Drivers/STM32L1xx_HAL_Driver/Src/stm32l1xx_hal_flash_ex.c ****   tmp1 = OB->USER & ((~FLASH_OBR_BOR_LEV) >> 16U);
1032:Drivers/STM32L1xx_HAL_Driver/Src/stm32l1xx_hal_flash_ex.c **** 
1033:Drivers/STM32L1xx_HAL_Driver/Src/stm32l1xx_hal_flash_ex.c ****   /* Calculate the option byte to write - [0xFFU | nUSER | 0x00U | USER]*/
1034:Drivers/STM32L1xx_HAL_Driver/Src/stm32l1xx_hal_flash_ex.c ****   tmp = (uint32_t)~((OB_BOR | tmp1)) << 16U;
1035:Drivers/STM32L1xx_HAL_Driver/Src/stm32l1xx_hal_flash_ex.c ****   tmp |= (OB_BOR | tmp1);
1036:Drivers/STM32L1xx_HAL_Driver/Src/stm32l1xx_hal_flash_ex.c **** 
1037:Drivers/STM32L1xx_HAL_Driver/Src/stm32l1xx_hal_flash_ex.c ****   /* Wait for last operation to be completed */
1038:Drivers/STM32L1xx_HAL_Driver/Src/stm32l1xx_hal_flash_ex.c ****   status = FLASH_WaitForLastOperation(FLASH_TIMEOUT_VALUE);
1039:Drivers/STM32L1xx_HAL_Driver/Src/stm32l1xx_hal_flash_ex.c **** 
1040:Drivers/STM32L1xx_HAL_Driver/Src/stm32l1xx_hal_flash_ex.c ****   if(status == HAL_OK)
1041:Drivers/STM32L1xx_HAL_Driver/Src/stm32l1xx_hal_flash_ex.c ****   {
1042:Drivers/STM32L1xx_HAL_Driver/Src/stm32l1xx_hal_flash_ex.c ****     /* Clean the error context */
1043:Drivers/STM32L1xx_HAL_Driver/Src/stm32l1xx_hal_flash_ex.c ****     pFlash.ErrorCode = HAL_FLASH_ERROR_NONE;
1044:Drivers/STM32L1xx_HAL_Driver/Src/stm32l1xx_hal_flash_ex.c **** 
1045:Drivers/STM32L1xx_HAL_Driver/Src/stm32l1xx_hal_flash_ex.c ****     /* Write the BOR Option Byte */
1046:Drivers/STM32L1xx_HAL_Driver/Src/stm32l1xx_hal_flash_ex.c ****     OB->USER = tmp;
1047:Drivers/STM32L1xx_HAL_Driver/Src/stm32l1xx_hal_flash_ex.c **** 
1048:Drivers/STM32L1xx_HAL_Driver/Src/stm32l1xx_hal_flash_ex.c ****     /* Wait for last operation to be completed */
1049:Drivers/STM32L1xx_HAL_Driver/Src/stm32l1xx_hal_flash_ex.c ****     status = FLASH_WaitForLastOperation(FLASH_TIMEOUT_VALUE);
1050:Drivers/STM32L1xx_HAL_Driver/Src/stm32l1xx_hal_flash_ex.c ****   }
1051:Drivers/STM32L1xx_HAL_Driver/Src/stm32l1xx_hal_flash_ex.c **** 
1052:Drivers/STM32L1xx_HAL_Driver/Src/stm32l1xx_hal_flash_ex.c ****   /* Return the Option Byte BOR Programming Status */
1053:Drivers/STM32L1xx_HAL_Driver/Src/stm32l1xx_hal_flash_ex.c ****   return status;
1054:Drivers/STM32L1xx_HAL_Driver/Src/stm32l1xx_hal_flash_ex.c **** }
1055:Drivers/STM32L1xx_HAL_Driver/Src/stm32l1xx_hal_flash_ex.c **** 
1056:Drivers/STM32L1xx_HAL_Driver/Src/stm32l1xx_hal_flash_ex.c **** /**
1057:Drivers/STM32L1xx_HAL_Driver/Src/stm32l1xx_hal_flash_ex.c ****   * @brief  Returns the FLASH User Option Bytes values.
1058:Drivers/STM32L1xx_HAL_Driver/Src/stm32l1xx_hal_flash_ex.c ****   * @retval The FLASH User Option Bytes.
1059:Drivers/STM32L1xx_HAL_Driver/Src/stm32l1xx_hal_flash_ex.c ****   */
1060:Drivers/STM32L1xx_HAL_Driver/Src/stm32l1xx_hal_flash_ex.c **** static uint8_t FLASH_OB_GetUser(void)
ARM GAS  /tmp/ccAAsIoz.s 			page 20


1061:Drivers/STM32L1xx_HAL_Driver/Src/stm32l1xx_hal_flash_ex.c **** {
  25              		.loc 1 1061 0
  26              		.cfi_startproc
  27              		@ args = 0, pretend = 0, frame = 0
  28              		@ frame_needed = 0, uses_anonymous_args = 0
  29              		@ link register save eliminated.
1062:Drivers/STM32L1xx_HAL_Driver/Src/stm32l1xx_hal_flash_ex.c ****   /* Return the User Option Byte */
1063:Drivers/STM32L1xx_HAL_Driver/Src/stm32l1xx_hal_flash_ex.c ****   return (uint8_t)((FLASH->OBR & (FLASH_OBR_IWDG_SW | FLASH_OBR_nRST_STOP | FLASH_OBR_nRST_STDBY)) 
  30              		.loc 1 1063 0
  31 0000 024B     		ldr	r3, .L2
  32 0002 D869     		ldr	r0, [r3, #28]
  33 0004 000C     		lsrs	r0, r0, #16
1064:Drivers/STM32L1xx_HAL_Driver/Src/stm32l1xx_hal_flash_ex.c **** }
  34              		.loc 1 1064 0
  35 0006 00F07000 		and	r0, r0, #112
  36 000a 7047     		bx	lr
  37              	.L3:
  38              		.align	2
  39              	.L2:
  40 000c 003C0240 		.word	1073888256
  41              		.cfi_endproc
  42              	.LFE86:
  44              		.section	.text.FLASH_OB_GetRDP,"ax",%progbits
  45              		.align	1
  46              		.syntax unified
  47              		.thumb
  48              		.thumb_func
  49              		.fpu softvfp
  51              	FLASH_OB_GetRDP:
  52              	.LFB87:
1065:Drivers/STM32L1xx_HAL_Driver/Src/stm32l1xx_hal_flash_ex.c **** 
1066:Drivers/STM32L1xx_HAL_Driver/Src/stm32l1xx_hal_flash_ex.c **** /**
1067:Drivers/STM32L1xx_HAL_Driver/Src/stm32l1xx_hal_flash_ex.c ****   * @brief  Returns the FLASH Read Protection level.
1068:Drivers/STM32L1xx_HAL_Driver/Src/stm32l1xx_hal_flash_ex.c ****   * @retval FLASH RDP level
1069:Drivers/STM32L1xx_HAL_Driver/Src/stm32l1xx_hal_flash_ex.c ****   *         This parameter can be one of the following values:
1070:Drivers/STM32L1xx_HAL_Driver/Src/stm32l1xx_hal_flash_ex.c ****   *            @arg @ref OB_RDP_LEVEL_0 No protection
1071:Drivers/STM32L1xx_HAL_Driver/Src/stm32l1xx_hal_flash_ex.c ****   *            @arg @ref OB_RDP_LEVEL_1 Read protection of the memory
1072:Drivers/STM32L1xx_HAL_Driver/Src/stm32l1xx_hal_flash_ex.c ****   *            @arg @ref OB_RDP_LEVEL_2 Full chip protection
1073:Drivers/STM32L1xx_HAL_Driver/Src/stm32l1xx_hal_flash_ex.c ****   */
1074:Drivers/STM32L1xx_HAL_Driver/Src/stm32l1xx_hal_flash_ex.c **** static uint8_t FLASH_OB_GetRDP(void)
1075:Drivers/STM32L1xx_HAL_Driver/Src/stm32l1xx_hal_flash_ex.c **** {
  53              		.loc 1 1075 0
  54              		.cfi_startproc
  55              		@ args = 0, pretend = 0, frame = 0
  56              		@ frame_needed = 0, uses_anonymous_args = 0
  57              		@ link register save eliminated.
1076:Drivers/STM32L1xx_HAL_Driver/Src/stm32l1xx_hal_flash_ex.c ****   uint8_t rdp_level = (uint8_t)(FLASH->OBR & FLASH_OBR_RDPRT);
  58              		.loc 1 1076 0
  59 0000 044B     		ldr	r3, .L7
  60 0002 D869     		ldr	r0, [r3, #28]
  61 0004 C0B2     		uxtb	r0, r0
  62              	.LVL0:
1077:Drivers/STM32L1xx_HAL_Driver/Src/stm32l1xx_hal_flash_ex.c **** 
1078:Drivers/STM32L1xx_HAL_Driver/Src/stm32l1xx_hal_flash_ex.c ****   if ((rdp_level != OB_RDP_LEVEL_0) && (rdp_level != OB_RDP_LEVEL_2))
  63              		.loc 1 1078 0
  64 0006 AA28     		cmp	r0, #170
  65 0008 02D0     		beq	.L5
ARM GAS  /tmp/ccAAsIoz.s 			page 21


  66              		.loc 1 1078 0 is_stmt 0 discriminator 1
  67 000a CC28     		cmp	r0, #204
  68 000c 00D0     		beq	.L5
1079:Drivers/STM32L1xx_HAL_Driver/Src/stm32l1xx_hal_flash_ex.c ****   {
1080:Drivers/STM32L1xx_HAL_Driver/Src/stm32l1xx_hal_flash_ex.c ****     return (OB_RDP_LEVEL_1);
  69              		.loc 1 1080 0 is_stmt 1
  70 000e BB20     		movs	r0, #187
  71              	.LVL1:
  72              	.L5:
1081:Drivers/STM32L1xx_HAL_Driver/Src/stm32l1xx_hal_flash_ex.c ****   }
1082:Drivers/STM32L1xx_HAL_Driver/Src/stm32l1xx_hal_flash_ex.c ****   else
1083:Drivers/STM32L1xx_HAL_Driver/Src/stm32l1xx_hal_flash_ex.c ****   {
1084:Drivers/STM32L1xx_HAL_Driver/Src/stm32l1xx_hal_flash_ex.c ****     return (rdp_level);
1085:Drivers/STM32L1xx_HAL_Driver/Src/stm32l1xx_hal_flash_ex.c ****   }
1086:Drivers/STM32L1xx_HAL_Driver/Src/stm32l1xx_hal_flash_ex.c **** }
  73              		.loc 1 1086 0
  74 0010 7047     		bx	lr
  75              	.L8:
  76 0012 00BF     		.align	2
  77              	.L7:
  78 0014 003C0240 		.word	1073888256
  79              		.cfi_endproc
  80              	.LFE87:
  82              		.section	.text.FLASH_OB_GetBOR,"ax",%progbits
  83              		.align	1
  84              		.syntax unified
  85              		.thumb
  86              		.thumb_func
  87              		.fpu softvfp
  89              	FLASH_OB_GetBOR:
  90              	.LFB88:
1087:Drivers/STM32L1xx_HAL_Driver/Src/stm32l1xx_hal_flash_ex.c **** 
1088:Drivers/STM32L1xx_HAL_Driver/Src/stm32l1xx_hal_flash_ex.c **** /**
1089:Drivers/STM32L1xx_HAL_Driver/Src/stm32l1xx_hal_flash_ex.c ****   * @brief  Returns the FLASH BOR level.
1090:Drivers/STM32L1xx_HAL_Driver/Src/stm32l1xx_hal_flash_ex.c ****   * @retval The BOR level Option Bytes.
1091:Drivers/STM32L1xx_HAL_Driver/Src/stm32l1xx_hal_flash_ex.c ****   */
1092:Drivers/STM32L1xx_HAL_Driver/Src/stm32l1xx_hal_flash_ex.c **** static uint8_t FLASH_OB_GetBOR(void)
1093:Drivers/STM32L1xx_HAL_Driver/Src/stm32l1xx_hal_flash_ex.c **** {
  91              		.loc 1 1093 0
  92              		.cfi_startproc
  93              		@ args = 0, pretend = 0, frame = 0
  94              		@ frame_needed = 0, uses_anonymous_args = 0
  95              		@ link register save eliminated.
1094:Drivers/STM32L1xx_HAL_Driver/Src/stm32l1xx_hal_flash_ex.c ****   /* Return the BOR level */
1095:Drivers/STM32L1xx_HAL_Driver/Src/stm32l1xx_hal_flash_ex.c ****   return (uint8_t)((FLASH->OBR & (uint32_t)FLASH_OBR_BOR_LEV) >> 16U);
  96              		.loc 1 1095 0
  97 0000 024B     		ldr	r3, .L10
  98 0002 D869     		ldr	r0, [r3, #28]
1096:Drivers/STM32L1xx_HAL_Driver/Src/stm32l1xx_hal_flash_ex.c **** }
  99              		.loc 1 1096 0
 100 0004 C0F30340 		ubfx	r0, r0, #16, #4
 101 0008 7047     		bx	lr
 102              	.L11:
 103 000a 00BF     		.align	2
 104              	.L10:
 105 000c 003C0240 		.word	1073888256
 106              		.cfi_endproc
ARM GAS  /tmp/ccAAsIoz.s 			page 22


 107              	.LFE88:
 109              		.section	.text.FLASH_OB_WRPConfigWRP1OrPCROP1,"ax",%progbits
 110              		.align	1
 111              		.syntax unified
 112              		.thumb
 113              		.thumb_func
 114              		.fpu softvfp
 116              	FLASH_OB_WRPConfigWRP1OrPCROP1:
 117              	.LFB90:
1097:Drivers/STM32L1xx_HAL_Driver/Src/stm32l1xx_hal_flash_ex.c **** 
1098:Drivers/STM32L1xx_HAL_Driver/Src/stm32l1xx_hal_flash_ex.c **** /**
1099:Drivers/STM32L1xx_HAL_Driver/Src/stm32l1xx_hal_flash_ex.c ****   * @brief  Write protects the desired pages of the first 64KB of the Flash.
1100:Drivers/STM32L1xx_HAL_Driver/Src/stm32l1xx_hal_flash_ex.c ****   * @param  pOBInit pointer to an FLASH_OBInitStruct structure that
1101:Drivers/STM32L1xx_HAL_Driver/Src/stm32l1xx_hal_flash_ex.c ****   *         contains WRP parameters.
1102:Drivers/STM32L1xx_HAL_Driver/Src/stm32l1xx_hal_flash_ex.c ****   * @param  NewState new state of the specified FLASH Pages Wtite protection.
1103:Drivers/STM32L1xx_HAL_Driver/Src/stm32l1xx_hal_flash_ex.c ****   *   This parameter can be: ENABLE or DISABLE.
1104:Drivers/STM32L1xx_HAL_Driver/Src/stm32l1xx_hal_flash_ex.c ****   * @retval HAL_StatusTypeDef
1105:Drivers/STM32L1xx_HAL_Driver/Src/stm32l1xx_hal_flash_ex.c ****   */
1106:Drivers/STM32L1xx_HAL_Driver/Src/stm32l1xx_hal_flash_ex.c **** static HAL_StatusTypeDef FLASH_OB_WRPConfig(FLASH_OBProgramInitTypeDef *pOBInit, FunctionalState Ne
1107:Drivers/STM32L1xx_HAL_Driver/Src/stm32l1xx_hal_flash_ex.c **** {
1108:Drivers/STM32L1xx_HAL_Driver/Src/stm32l1xx_hal_flash_ex.c ****   HAL_StatusTypeDef status = HAL_OK;
1109:Drivers/STM32L1xx_HAL_Driver/Src/stm32l1xx_hal_flash_ex.c **** 
1110:Drivers/STM32L1xx_HAL_Driver/Src/stm32l1xx_hal_flash_ex.c ****   /* Wait for last operation to be completed */
1111:Drivers/STM32L1xx_HAL_Driver/Src/stm32l1xx_hal_flash_ex.c ****   status = FLASH_WaitForLastOperation(FLASH_TIMEOUT_VALUE);
1112:Drivers/STM32L1xx_HAL_Driver/Src/stm32l1xx_hal_flash_ex.c **** 
1113:Drivers/STM32L1xx_HAL_Driver/Src/stm32l1xx_hal_flash_ex.c ****   if(status == HAL_OK)
1114:Drivers/STM32L1xx_HAL_Driver/Src/stm32l1xx_hal_flash_ex.c ****   {
1115:Drivers/STM32L1xx_HAL_Driver/Src/stm32l1xx_hal_flash_ex.c ****     /* Clean the error context */
1116:Drivers/STM32L1xx_HAL_Driver/Src/stm32l1xx_hal_flash_ex.c ****     pFlash.ErrorCode = HAL_FLASH_ERROR_NONE;
1117:Drivers/STM32L1xx_HAL_Driver/Src/stm32l1xx_hal_flash_ex.c **** 
1118:Drivers/STM32L1xx_HAL_Driver/Src/stm32l1xx_hal_flash_ex.c ****     /* WRP for sector between 0 to 31 */
1119:Drivers/STM32L1xx_HAL_Driver/Src/stm32l1xx_hal_flash_ex.c ****     if (pOBInit->WRPSector0To31 != 0U)
1120:Drivers/STM32L1xx_HAL_Driver/Src/stm32l1xx_hal_flash_ex.c ****     {
1121:Drivers/STM32L1xx_HAL_Driver/Src/stm32l1xx_hal_flash_ex.c ****       FLASH_OB_WRPConfigWRP1OrPCROP1(pOBInit->WRPSector0To31, NewState);
1122:Drivers/STM32L1xx_HAL_Driver/Src/stm32l1xx_hal_flash_ex.c ****     }
1123:Drivers/STM32L1xx_HAL_Driver/Src/stm32l1xx_hal_flash_ex.c **** 
1124:Drivers/STM32L1xx_HAL_Driver/Src/stm32l1xx_hal_flash_ex.c **** #if defined(STM32L100xC) || defined(STM32L151xC) || defined(STM32L152xC) || defined(STM32L162xC)   
1125:Drivers/STM32L1xx_HAL_Driver/Src/stm32l1xx_hal_flash_ex.c ****  || defined(STM32L151xCA) || defined(STM32L151xD) || defined(STM32L151xDX) || defined(STM32L152xCA)
1126:Drivers/STM32L1xx_HAL_Driver/Src/stm32l1xx_hal_flash_ex.c ****  || defined(STM32L152xD) || defined(STM32L152xDX) || defined(STM32L162xCA) || defined(STM32L162xD) 
1127:Drivers/STM32L1xx_HAL_Driver/Src/stm32l1xx_hal_flash_ex.c ****  || defined(STM32L162xDX) || defined(STM32L151xE) || defined(STM32L152xE) || defined(STM32L162xE)
1128:Drivers/STM32L1xx_HAL_Driver/Src/stm32l1xx_hal_flash_ex.c **** 
1129:Drivers/STM32L1xx_HAL_Driver/Src/stm32l1xx_hal_flash_ex.c ****     /* Pages for Cat3, Cat4 & Cat5 devices*/
1130:Drivers/STM32L1xx_HAL_Driver/Src/stm32l1xx_hal_flash_ex.c ****     /* WRP for sector between 32 to 63 */
1131:Drivers/STM32L1xx_HAL_Driver/Src/stm32l1xx_hal_flash_ex.c ****     if (pOBInit->WRPSector32To63 != 0U)
1132:Drivers/STM32L1xx_HAL_Driver/Src/stm32l1xx_hal_flash_ex.c ****     {
1133:Drivers/STM32L1xx_HAL_Driver/Src/stm32l1xx_hal_flash_ex.c ****       FLASH_OB_WRPConfigWRP2OrPCROP2(pOBInit->WRPSector32To63, NewState);
1134:Drivers/STM32L1xx_HAL_Driver/Src/stm32l1xx_hal_flash_ex.c ****     }
1135:Drivers/STM32L1xx_HAL_Driver/Src/stm32l1xx_hal_flash_ex.c **** 
1136:Drivers/STM32L1xx_HAL_Driver/Src/stm32l1xx_hal_flash_ex.c **** #endif /* STM32L100xC || STM32L151xC || STM32L152xC || (...) || STM32L151xE || STM32L152xE || STM32
1137:Drivers/STM32L1xx_HAL_Driver/Src/stm32l1xx_hal_flash_ex.c **** 
1138:Drivers/STM32L1xx_HAL_Driver/Src/stm32l1xx_hal_flash_ex.c **** #if defined(STM32L151xD) || defined(STM32L151xDX) || defined(STM32L152xD) || defined(STM32L152xDX) 
1139:Drivers/STM32L1xx_HAL_Driver/Src/stm32l1xx_hal_flash_ex.c ****  || defined(STM32L162xD) || defined(STM32L162xDX) || defined(STM32L151xE) || defined(STM32L152xE)  
1140:Drivers/STM32L1xx_HAL_Driver/Src/stm32l1xx_hal_flash_ex.c ****  || defined(STM32L162xE)
1141:Drivers/STM32L1xx_HAL_Driver/Src/stm32l1xx_hal_flash_ex.c **** 
1142:Drivers/STM32L1xx_HAL_Driver/Src/stm32l1xx_hal_flash_ex.c ****     /* Pages for devices with FLASH >= 256KB*/
1143:Drivers/STM32L1xx_HAL_Driver/Src/stm32l1xx_hal_flash_ex.c ****     /* WRP for sector between 64 to 95 */
1144:Drivers/STM32L1xx_HAL_Driver/Src/stm32l1xx_hal_flash_ex.c ****     if (pOBInit->WRPSector64To95 != 0U)
ARM GAS  /tmp/ccAAsIoz.s 			page 23


1145:Drivers/STM32L1xx_HAL_Driver/Src/stm32l1xx_hal_flash_ex.c ****     {
1146:Drivers/STM32L1xx_HAL_Driver/Src/stm32l1xx_hal_flash_ex.c ****       FLASH_OB_WRPConfigWRP3(pOBInit->WRPSector64To95, NewState);
1147:Drivers/STM32L1xx_HAL_Driver/Src/stm32l1xx_hal_flash_ex.c ****     }
1148:Drivers/STM32L1xx_HAL_Driver/Src/stm32l1xx_hal_flash_ex.c **** 
1149:Drivers/STM32L1xx_HAL_Driver/Src/stm32l1xx_hal_flash_ex.c **** #endif /* STM32L151xD || STM32L152xD || STM32L162xD || STM32L151xE || STM32L152xE || STM32L162xE */
1150:Drivers/STM32L1xx_HAL_Driver/Src/stm32l1xx_hal_flash_ex.c **** 
1151:Drivers/STM32L1xx_HAL_Driver/Src/stm32l1xx_hal_flash_ex.c **** #if defined(STM32L151xE) || defined(STM32L152xE) || defined(STM32L162xE) || defined(STM32L151xDX) \
1152:Drivers/STM32L1xx_HAL_Driver/Src/stm32l1xx_hal_flash_ex.c ****  || defined(STM32L152xDX) || defined(STM32L162xDX)
1153:Drivers/STM32L1xx_HAL_Driver/Src/stm32l1xx_hal_flash_ex.c **** 
1154:Drivers/STM32L1xx_HAL_Driver/Src/stm32l1xx_hal_flash_ex.c ****     /* Pages for Cat5 devices*/
1155:Drivers/STM32L1xx_HAL_Driver/Src/stm32l1xx_hal_flash_ex.c ****     /* WRP for sector between 96 to 127 */
1156:Drivers/STM32L1xx_HAL_Driver/Src/stm32l1xx_hal_flash_ex.c ****     if (pOBInit->WRPSector96To127 != 0U)
1157:Drivers/STM32L1xx_HAL_Driver/Src/stm32l1xx_hal_flash_ex.c ****     {
1158:Drivers/STM32L1xx_HAL_Driver/Src/stm32l1xx_hal_flash_ex.c ****       FLASH_OB_WRPConfigWRP4(pOBInit->WRPSector96To127, NewState);
1159:Drivers/STM32L1xx_HAL_Driver/Src/stm32l1xx_hal_flash_ex.c ****     }
1160:Drivers/STM32L1xx_HAL_Driver/Src/stm32l1xx_hal_flash_ex.c **** 
1161:Drivers/STM32L1xx_HAL_Driver/Src/stm32l1xx_hal_flash_ex.c **** #endif /* STM32L151xE || STM32L152xE || STM32L162xE || STM32L151xDX || ... */
1162:Drivers/STM32L1xx_HAL_Driver/Src/stm32l1xx_hal_flash_ex.c **** 
1163:Drivers/STM32L1xx_HAL_Driver/Src/stm32l1xx_hal_flash_ex.c ****     /* Wait for last operation to be completed */
1164:Drivers/STM32L1xx_HAL_Driver/Src/stm32l1xx_hal_flash_ex.c ****     status = FLASH_WaitForLastOperation(FLASH_TIMEOUT_VALUE);
1165:Drivers/STM32L1xx_HAL_Driver/Src/stm32l1xx_hal_flash_ex.c ****   }
1166:Drivers/STM32L1xx_HAL_Driver/Src/stm32l1xx_hal_flash_ex.c **** 
1167:Drivers/STM32L1xx_HAL_Driver/Src/stm32l1xx_hal_flash_ex.c ****   /* Return the write protection operation Status */
1168:Drivers/STM32L1xx_HAL_Driver/Src/stm32l1xx_hal_flash_ex.c ****   return status;
1169:Drivers/STM32L1xx_HAL_Driver/Src/stm32l1xx_hal_flash_ex.c **** }
1170:Drivers/STM32L1xx_HAL_Driver/Src/stm32l1xx_hal_flash_ex.c **** 
1171:Drivers/STM32L1xx_HAL_Driver/Src/stm32l1xx_hal_flash_ex.c **** #if defined(STM32L151xBA) || defined(STM32L152xBA) || defined(STM32L151xC) || defined(STM32L152xC) 
1172:Drivers/STM32L1xx_HAL_Driver/Src/stm32l1xx_hal_flash_ex.c ****  || defined(STM32L162xC)
1173:Drivers/STM32L1xx_HAL_Driver/Src/stm32l1xx_hal_flash_ex.c **** /**
1174:Drivers/STM32L1xx_HAL_Driver/Src/stm32l1xx_hal_flash_ex.c ****   * @brief  Enables the read/write protection (PCROP) of the desired
1175:Drivers/STM32L1xx_HAL_Driver/Src/stm32l1xx_hal_flash_ex.c ****   *         sectors.
1176:Drivers/STM32L1xx_HAL_Driver/Src/stm32l1xx_hal_flash_ex.c ****   * @note   This function can be used only for Cat2 & Cat3 devices
1177:Drivers/STM32L1xx_HAL_Driver/Src/stm32l1xx_hal_flash_ex.c ****   * @param  pAdvOBInit pointer to an FLASH_AdvOBProgramInitTypeDef structure that
1178:Drivers/STM32L1xx_HAL_Driver/Src/stm32l1xx_hal_flash_ex.c ****   *         contains PCROP parameters.
1179:Drivers/STM32L1xx_HAL_Driver/Src/stm32l1xx_hal_flash_ex.c ****   * @param  NewState new state of the specified FLASH Pages read/Write protection.
1180:Drivers/STM32L1xx_HAL_Driver/Src/stm32l1xx_hal_flash_ex.c ****   *   This parameter can be: ENABLE or DISABLE.
1181:Drivers/STM32L1xx_HAL_Driver/Src/stm32l1xx_hal_flash_ex.c ****   * @retval HAL status
1182:Drivers/STM32L1xx_HAL_Driver/Src/stm32l1xx_hal_flash_ex.c ****   */
1183:Drivers/STM32L1xx_HAL_Driver/Src/stm32l1xx_hal_flash_ex.c **** static HAL_StatusTypeDef FLASH_OB_PCROPConfig(FLASH_AdvOBProgramInitTypeDef *pAdvOBInit, Functional
1184:Drivers/STM32L1xx_HAL_Driver/Src/stm32l1xx_hal_flash_ex.c **** {
1185:Drivers/STM32L1xx_HAL_Driver/Src/stm32l1xx_hal_flash_ex.c ****   HAL_StatusTypeDef status = HAL_OK;
1186:Drivers/STM32L1xx_HAL_Driver/Src/stm32l1xx_hal_flash_ex.c ****   FunctionalState pcropstate = DISABLE;
1187:Drivers/STM32L1xx_HAL_Driver/Src/stm32l1xx_hal_flash_ex.c **** 
1188:Drivers/STM32L1xx_HAL_Driver/Src/stm32l1xx_hal_flash_ex.c ****   /* Wait for last operation to be completed */
1189:Drivers/STM32L1xx_HAL_Driver/Src/stm32l1xx_hal_flash_ex.c ****   status = FLASH_WaitForLastOperation(FLASH_TIMEOUT_VALUE);
1190:Drivers/STM32L1xx_HAL_Driver/Src/stm32l1xx_hal_flash_ex.c **** 
1191:Drivers/STM32L1xx_HAL_Driver/Src/stm32l1xx_hal_flash_ex.c ****   /* Invert state to use same function of WRP */
1192:Drivers/STM32L1xx_HAL_Driver/Src/stm32l1xx_hal_flash_ex.c ****   if (NewState == DISABLE)
1193:Drivers/STM32L1xx_HAL_Driver/Src/stm32l1xx_hal_flash_ex.c ****   {
1194:Drivers/STM32L1xx_HAL_Driver/Src/stm32l1xx_hal_flash_ex.c ****     pcropstate = ENABLE;
1195:Drivers/STM32L1xx_HAL_Driver/Src/stm32l1xx_hal_flash_ex.c ****   }
1196:Drivers/STM32L1xx_HAL_Driver/Src/stm32l1xx_hal_flash_ex.c **** 
1197:Drivers/STM32L1xx_HAL_Driver/Src/stm32l1xx_hal_flash_ex.c ****   if(status == HAL_OK)
1198:Drivers/STM32L1xx_HAL_Driver/Src/stm32l1xx_hal_flash_ex.c ****   {
1199:Drivers/STM32L1xx_HAL_Driver/Src/stm32l1xx_hal_flash_ex.c ****     /* Clean the error context */
1200:Drivers/STM32L1xx_HAL_Driver/Src/stm32l1xx_hal_flash_ex.c ****     pFlash.ErrorCode = HAL_FLASH_ERROR_NONE;
1201:Drivers/STM32L1xx_HAL_Driver/Src/stm32l1xx_hal_flash_ex.c **** 
ARM GAS  /tmp/ccAAsIoz.s 			page 24


1202:Drivers/STM32L1xx_HAL_Driver/Src/stm32l1xx_hal_flash_ex.c ****     /* Pages for Cat2 devices*/
1203:Drivers/STM32L1xx_HAL_Driver/Src/stm32l1xx_hal_flash_ex.c ****     /* PCROP for sector between 0 to 31 */
1204:Drivers/STM32L1xx_HAL_Driver/Src/stm32l1xx_hal_flash_ex.c ****     if (pAdvOBInit->PCROPSector0To31 != 0U)
1205:Drivers/STM32L1xx_HAL_Driver/Src/stm32l1xx_hal_flash_ex.c ****     {
1206:Drivers/STM32L1xx_HAL_Driver/Src/stm32l1xx_hal_flash_ex.c ****       FLASH_OB_WRPConfigWRP1OrPCROP1(pAdvOBInit->PCROPSector0To31, pcropstate);
1207:Drivers/STM32L1xx_HAL_Driver/Src/stm32l1xx_hal_flash_ex.c ****     }
1208:Drivers/STM32L1xx_HAL_Driver/Src/stm32l1xx_hal_flash_ex.c **** 
1209:Drivers/STM32L1xx_HAL_Driver/Src/stm32l1xx_hal_flash_ex.c **** #if defined(STM32L100xC) || defined(STM32L151xC) || defined(STM32L152xC) || defined(STM32L162xC)
1210:Drivers/STM32L1xx_HAL_Driver/Src/stm32l1xx_hal_flash_ex.c **** 
1211:Drivers/STM32L1xx_HAL_Driver/Src/stm32l1xx_hal_flash_ex.c ****     /* Pages for Cat3 devices*/
1212:Drivers/STM32L1xx_HAL_Driver/Src/stm32l1xx_hal_flash_ex.c ****     /* WRP for sector between 32 to 63 */
1213:Drivers/STM32L1xx_HAL_Driver/Src/stm32l1xx_hal_flash_ex.c ****     if (pAdvOBInit->PCROPSector32To63 != 0U)
1214:Drivers/STM32L1xx_HAL_Driver/Src/stm32l1xx_hal_flash_ex.c ****     {
1215:Drivers/STM32L1xx_HAL_Driver/Src/stm32l1xx_hal_flash_ex.c ****       FLASH_OB_WRPConfigWRP2OrPCROP2(pAdvOBInit->PCROPSector32To63, pcropstate);
1216:Drivers/STM32L1xx_HAL_Driver/Src/stm32l1xx_hal_flash_ex.c ****     }
1217:Drivers/STM32L1xx_HAL_Driver/Src/stm32l1xx_hal_flash_ex.c **** 
1218:Drivers/STM32L1xx_HAL_Driver/Src/stm32l1xx_hal_flash_ex.c **** #endif /* STM32L100xC || STM32L151xC || STM32L152xC || STM32L162xC  */
1219:Drivers/STM32L1xx_HAL_Driver/Src/stm32l1xx_hal_flash_ex.c **** 
1220:Drivers/STM32L1xx_HAL_Driver/Src/stm32l1xx_hal_flash_ex.c ****     /* Wait for last operation to be completed */
1221:Drivers/STM32L1xx_HAL_Driver/Src/stm32l1xx_hal_flash_ex.c ****     status = FLASH_WaitForLastOperation(FLASH_TIMEOUT_VALUE);
1222:Drivers/STM32L1xx_HAL_Driver/Src/stm32l1xx_hal_flash_ex.c ****   }
1223:Drivers/STM32L1xx_HAL_Driver/Src/stm32l1xx_hal_flash_ex.c **** 
1224:Drivers/STM32L1xx_HAL_Driver/Src/stm32l1xx_hal_flash_ex.c ****   /* Return the write protection operation Status */
1225:Drivers/STM32L1xx_HAL_Driver/Src/stm32l1xx_hal_flash_ex.c ****   return status;
1226:Drivers/STM32L1xx_HAL_Driver/Src/stm32l1xx_hal_flash_ex.c **** }
1227:Drivers/STM32L1xx_HAL_Driver/Src/stm32l1xx_hal_flash_ex.c **** #endif /* STM32L151xBA || STM32L152xBA || STM32L151xC || STM32L152xC || STM32L162xC */
1228:Drivers/STM32L1xx_HAL_Driver/Src/stm32l1xx_hal_flash_ex.c **** 
1229:Drivers/STM32L1xx_HAL_Driver/Src/stm32l1xx_hal_flash_ex.c **** /**
1230:Drivers/STM32L1xx_HAL_Driver/Src/stm32l1xx_hal_flash_ex.c ****   * @brief  Write protects the desired pages of the first 128KB of the Flash.
1231:Drivers/STM32L1xx_HAL_Driver/Src/stm32l1xx_hal_flash_ex.c ****   * @param  WRP1OrPCROP1 specifies the address of the pages to be write protected.
1232:Drivers/STM32L1xx_HAL_Driver/Src/stm32l1xx_hal_flash_ex.c ****   *   This parameter can be a combination of @ref FLASHEx_Option_Bytes_Write_Protection1
1233:Drivers/STM32L1xx_HAL_Driver/Src/stm32l1xx_hal_flash_ex.c ****   * @param  NewState new state of the specified FLASH Pages Write protection.
1234:Drivers/STM32L1xx_HAL_Driver/Src/stm32l1xx_hal_flash_ex.c ****   *   This parameter can be: ENABLE or DISABLE.
1235:Drivers/STM32L1xx_HAL_Driver/Src/stm32l1xx_hal_flash_ex.c ****   * @retval None
1236:Drivers/STM32L1xx_HAL_Driver/Src/stm32l1xx_hal_flash_ex.c ****   */
1237:Drivers/STM32L1xx_HAL_Driver/Src/stm32l1xx_hal_flash_ex.c **** static void FLASH_OB_WRPConfigWRP1OrPCROP1(uint32_t WRP1OrPCROP1, FunctionalState NewState)
1238:Drivers/STM32L1xx_HAL_Driver/Src/stm32l1xx_hal_flash_ex.c **** {
 118              		.loc 1 1238 0
 119              		.cfi_startproc
 120              		@ args = 0, pretend = 0, frame = 0
 121              		@ frame_needed = 0, uses_anonymous_args = 0
 122              		@ link register save eliminated.
 123              	.LVL2:
1239:Drivers/STM32L1xx_HAL_Driver/Src/stm32l1xx_hal_flash_ex.c ****   uint32_t wrp01data = 0U, wrp23data = 0U;
1240:Drivers/STM32L1xx_HAL_Driver/Src/stm32l1xx_hal_flash_ex.c **** 
1241:Drivers/STM32L1xx_HAL_Driver/Src/stm32l1xx_hal_flash_ex.c ****   uint32_t tmp1 = 0U, tmp2 = 0U;
1242:Drivers/STM32L1xx_HAL_Driver/Src/stm32l1xx_hal_flash_ex.c **** 
1243:Drivers/STM32L1xx_HAL_Driver/Src/stm32l1xx_hal_flash_ex.c ****   /* Check the parameters */
1244:Drivers/STM32L1xx_HAL_Driver/Src/stm32l1xx_hal_flash_ex.c ****   assert_param(IS_OB_WRP(WRP1OrPCROP1));
1245:Drivers/STM32L1xx_HAL_Driver/Src/stm32l1xx_hal_flash_ex.c ****   assert_param(IS_FUNCTIONAL_STATE(NewState));
1246:Drivers/STM32L1xx_HAL_Driver/Src/stm32l1xx_hal_flash_ex.c **** 
1247:Drivers/STM32L1xx_HAL_Driver/Src/stm32l1xx_hal_flash_ex.c ****   if (NewState != DISABLE)
 124              		.loc 1 1247 0
 125 0000 89B9     		cbnz	r1, .L15
1248:Drivers/STM32L1xx_HAL_Driver/Src/stm32l1xx_hal_flash_ex.c ****   {
1249:Drivers/STM32L1xx_HAL_Driver/Src/stm32l1xx_hal_flash_ex.c ****     wrp01data = (uint16_t)(((WRP1OrPCROP1 & WRP_MASK_LOW) | OB->WRP01));
1250:Drivers/STM32L1xx_HAL_Driver/Src/stm32l1xx_hal_flash_ex.c ****     wrp23data = (uint16_t)((((WRP1OrPCROP1 & WRP_MASK_HIGH)>>16U | OB->WRP23)));
ARM GAS  /tmp/ccAAsIoz.s 			page 25


1251:Drivers/STM32L1xx_HAL_Driver/Src/stm32l1xx_hal_flash_ex.c ****     tmp1 = (uint32_t)(~(wrp01data) << 16U)|(wrp01data);
1252:Drivers/STM32L1xx_HAL_Driver/Src/stm32l1xx_hal_flash_ex.c ****     OB->WRP01 = tmp1;
1253:Drivers/STM32L1xx_HAL_Driver/Src/stm32l1xx_hal_flash_ex.c **** 
1254:Drivers/STM32L1xx_HAL_Driver/Src/stm32l1xx_hal_flash_ex.c ****     tmp2 = (uint32_t)(~(wrp23data) << 16U)|(wrp23data);
1255:Drivers/STM32L1xx_HAL_Driver/Src/stm32l1xx_hal_flash_ex.c ****     OB->WRP23 = tmp2;
1256:Drivers/STM32L1xx_HAL_Driver/Src/stm32l1xx_hal_flash_ex.c ****   }
1257:Drivers/STM32L1xx_HAL_Driver/Src/stm32l1xx_hal_flash_ex.c ****   else
1258:Drivers/STM32L1xx_HAL_Driver/Src/stm32l1xx_hal_flash_ex.c ****   {
1259:Drivers/STM32L1xx_HAL_Driver/Src/stm32l1xx_hal_flash_ex.c ****     wrp01data = (uint16_t)(~WRP1OrPCROP1 & (WRP_MASK_LOW & OB->WRP01));
 126              		.loc 1 1259 0
 127 0002 1149     		ldr	r1, .L16
 128              	.LVL3:
 129 0004 8B68     		ldr	r3, [r1, #8]
 130 0006 23EA0003 		bic	r3, r3, r0
 131 000a 9BB2     		uxth	r3, r3
 132              	.LVL4:
1260:Drivers/STM32L1xx_HAL_Driver/Src/stm32l1xx_hal_flash_ex.c ****     wrp23data = (uint16_t)((((~WRP1OrPCROP1 & WRP_MASK_HIGH)>>16U & OB->WRP23)));
 133              		.loc 1 1260 0
 134 000c C243     		mvns	r2, r0
 135 000e C868     		ldr	r0, [r1, #12]
 136              	.LVL5:
 137 0010 00EA1240 		and	r0, r0, r2, lsr #16
 138              	.LVL6:
1261:Drivers/STM32L1xx_HAL_Driver/Src/stm32l1xx_hal_flash_ex.c **** 
1262:Drivers/STM32L1xx_HAL_Driver/Src/stm32l1xx_hal_flash_ex.c ****     tmp1 = (uint32_t)((~wrp01data) << 16U)|(wrp01data);
 139              		.loc 1 1262 0
 140 0014 DA43     		mvns	r2, r3
 141              	.LVL7:
 142 0016 43EA0243 		orr	r3, r3, r2, lsl #16
 143              	.LVL8:
1263:Drivers/STM32L1xx_HAL_Driver/Src/stm32l1xx_hal_flash_ex.c ****     OB->WRP01 = tmp1;
 144              		.loc 1 1263 0
 145 001a 8B60     		str	r3, [r1, #8]
1264:Drivers/STM32L1xx_HAL_Driver/Src/stm32l1xx_hal_flash_ex.c **** 
1265:Drivers/STM32L1xx_HAL_Driver/Src/stm32l1xx_hal_flash_ex.c ****     tmp2 = (uint32_t)((~wrp23data) << 16U)|(wrp23data);
 146              		.loc 1 1265 0
 147 001c C343     		mvns	r3, r0
 148              	.LVL9:
 149 001e 40EA0340 		orr	r0, r0, r3, lsl #16
 150              	.LVL10:
1266:Drivers/STM32L1xx_HAL_Driver/Src/stm32l1xx_hal_flash_ex.c ****     OB->WRP23 = tmp2;
 151              		.loc 1 1266 0
 152 0022 C860     		str	r0, [r1, #12]
 153              	.LVL11:
 154 0024 7047     		bx	lr
 155              	.LVL12:
 156              	.L15:
1249:Drivers/STM32L1xx_HAL_Driver/Src/stm32l1xx_hal_flash_ex.c ****     wrp23data = (uint16_t)((((WRP1OrPCROP1 & WRP_MASK_HIGH)>>16U | OB->WRP23)));
 157              		.loc 1 1249 0
 158 0026 0849     		ldr	r1, .L16
 159              	.LVL13:
 160 0028 8A68     		ldr	r2, [r1, #8]
 161 002a 0243     		orrs	r2, r2, r0
 162 002c 92B2     		uxth	r2, r2
 163              	.LVL14:
1250:Drivers/STM32L1xx_HAL_Driver/Src/stm32l1xx_hal_flash_ex.c ****     tmp1 = (uint32_t)(~(wrp01data) << 16U)|(wrp01data);
 164              		.loc 1 1250 0
ARM GAS  /tmp/ccAAsIoz.s 			page 26


 165 002e CB68     		ldr	r3, [r1, #12]
 166 0030 43EA1040 		orr	r0, r3, r0, lsr #16
 167              	.LVL15:
 168 0034 80B2     		uxth	r0, r0
 169              	.LVL16:
1251:Drivers/STM32L1xx_HAL_Driver/Src/stm32l1xx_hal_flash_ex.c ****     OB->WRP01 = tmp1;
 170              		.loc 1 1251 0
 171 0036 D343     		mvns	r3, r2
 172 0038 42EA0342 		orr	r2, r2, r3, lsl #16
 173              	.LVL17:
1252:Drivers/STM32L1xx_HAL_Driver/Src/stm32l1xx_hal_flash_ex.c **** 
 174              		.loc 1 1252 0
 175 003c 8A60     		str	r2, [r1, #8]
1254:Drivers/STM32L1xx_HAL_Driver/Src/stm32l1xx_hal_flash_ex.c ****     OB->WRP23 = tmp2;
 176              		.loc 1 1254 0
 177 003e C343     		mvns	r3, r0
 178              	.LVL18:
 179 0040 40EA0340 		orr	r0, r0, r3, lsl #16
 180              	.LVL19:
1255:Drivers/STM32L1xx_HAL_Driver/Src/stm32l1xx_hal_flash_ex.c ****   }
 181              		.loc 1 1255 0
 182 0044 C860     		str	r0, [r1, #12]
 183 0046 7047     		bx	lr
 184              	.L17:
 185              		.align	2
 186              	.L16:
 187 0048 0000F81F 		.word	536346624
 188              		.cfi_endproc
 189              	.LFE90:
 191              		.section	.text.FLASH_OB_WRPConfigWRP2OrPCROP2,"ax",%progbits
 192              		.align	1
 193              		.syntax unified
 194              		.thumb
 195              		.thumb_func
 196              		.fpu softvfp
 198              	FLASH_OB_WRPConfigWRP2OrPCROP2:
 199              	.LFB91:
1267:Drivers/STM32L1xx_HAL_Driver/Src/stm32l1xx_hal_flash_ex.c ****   }
1268:Drivers/STM32L1xx_HAL_Driver/Src/stm32l1xx_hal_flash_ex.c **** }
1269:Drivers/STM32L1xx_HAL_Driver/Src/stm32l1xx_hal_flash_ex.c **** 
1270:Drivers/STM32L1xx_HAL_Driver/Src/stm32l1xx_hal_flash_ex.c **** #if defined(STM32L100xC) || defined(STM32L151xC) || defined(STM32L152xC) || defined(STM32L162xC)   
1271:Drivers/STM32L1xx_HAL_Driver/Src/stm32l1xx_hal_flash_ex.c ****  || defined(STM32L151xCA) || defined(STM32L151xD) || defined(STM32L151xDX) || defined(STM32L152xCA)
1272:Drivers/STM32L1xx_HAL_Driver/Src/stm32l1xx_hal_flash_ex.c ****  || defined(STM32L152xD) || defined(STM32L152xDX) || defined(STM32L162xCA) || defined(STM32L162xD) 
1273:Drivers/STM32L1xx_HAL_Driver/Src/stm32l1xx_hal_flash_ex.c ****  || defined(STM32L162xDX) || defined(STM32L151xE) || defined(STM32L152xE) || defined(STM32L162xE)
1274:Drivers/STM32L1xx_HAL_Driver/Src/stm32l1xx_hal_flash_ex.c **** /**
1275:Drivers/STM32L1xx_HAL_Driver/Src/stm32l1xx_hal_flash_ex.c ****   * @brief  Enable Write protects the desired pages of the second 128KB of the Flash.
1276:Drivers/STM32L1xx_HAL_Driver/Src/stm32l1xx_hal_flash_ex.c ****   * @note   This function can be used only for Cat3, Cat4  & Cat5 devices.
1277:Drivers/STM32L1xx_HAL_Driver/Src/stm32l1xx_hal_flash_ex.c ****   * @param  WRP2OrPCROP2 specifies the address of the pages to be write protected.
1278:Drivers/STM32L1xx_HAL_Driver/Src/stm32l1xx_hal_flash_ex.c ****   *   This parameter can be a combination of @ref FLASHEx_Option_Bytes_Write_Protection2
1279:Drivers/STM32L1xx_HAL_Driver/Src/stm32l1xx_hal_flash_ex.c ****   * @param  NewState new state of the specified FLASH Pages Wtite protection.
1280:Drivers/STM32L1xx_HAL_Driver/Src/stm32l1xx_hal_flash_ex.c ****   *   This parameter can be: ENABLE or DISABLE.
1281:Drivers/STM32L1xx_HAL_Driver/Src/stm32l1xx_hal_flash_ex.c ****   * @retval None
1282:Drivers/STM32L1xx_HAL_Driver/Src/stm32l1xx_hal_flash_ex.c ****   */
1283:Drivers/STM32L1xx_HAL_Driver/Src/stm32l1xx_hal_flash_ex.c **** static void FLASH_OB_WRPConfigWRP2OrPCROP2(uint32_t WRP2OrPCROP2, FunctionalState NewState)
1284:Drivers/STM32L1xx_HAL_Driver/Src/stm32l1xx_hal_flash_ex.c **** {
 200              		.loc 1 1284 0
 201              		.cfi_startproc
ARM GAS  /tmp/ccAAsIoz.s 			page 27


 202              		@ args = 0, pretend = 0, frame = 0
 203              		@ frame_needed = 0, uses_anonymous_args = 0
 204              		@ link register save eliminated.
 205              	.LVL20:
1285:Drivers/STM32L1xx_HAL_Driver/Src/stm32l1xx_hal_flash_ex.c ****   uint32_t wrp45data = 0U, wrp67data = 0U;
1286:Drivers/STM32L1xx_HAL_Driver/Src/stm32l1xx_hal_flash_ex.c **** 
1287:Drivers/STM32L1xx_HAL_Driver/Src/stm32l1xx_hal_flash_ex.c ****   uint32_t tmp1 = 0U, tmp2 = 0U;
1288:Drivers/STM32L1xx_HAL_Driver/Src/stm32l1xx_hal_flash_ex.c **** 
1289:Drivers/STM32L1xx_HAL_Driver/Src/stm32l1xx_hal_flash_ex.c ****   /* Check the parameters */
1290:Drivers/STM32L1xx_HAL_Driver/Src/stm32l1xx_hal_flash_ex.c ****   assert_param(IS_OB_WRP(WRP2OrPCROP2));
1291:Drivers/STM32L1xx_HAL_Driver/Src/stm32l1xx_hal_flash_ex.c ****   assert_param(IS_FUNCTIONAL_STATE(NewState));
1292:Drivers/STM32L1xx_HAL_Driver/Src/stm32l1xx_hal_flash_ex.c **** 
1293:Drivers/STM32L1xx_HAL_Driver/Src/stm32l1xx_hal_flash_ex.c ****   if (NewState != DISABLE)
 206              		.loc 1 1293 0
 207 0000 89B9     		cbnz	r1, .L21
1294:Drivers/STM32L1xx_HAL_Driver/Src/stm32l1xx_hal_flash_ex.c ****   {
1295:Drivers/STM32L1xx_HAL_Driver/Src/stm32l1xx_hal_flash_ex.c ****     wrp45data = (uint16_t)(((WRP2OrPCROP2 & WRP_MASK_LOW) | OB->WRP45));
1296:Drivers/STM32L1xx_HAL_Driver/Src/stm32l1xx_hal_flash_ex.c ****     wrp67data = (uint16_t)((((WRP2OrPCROP2 & WRP_MASK_HIGH)>>16U | OB->WRP67)));
1297:Drivers/STM32L1xx_HAL_Driver/Src/stm32l1xx_hal_flash_ex.c ****     tmp1 = (uint32_t)(~(wrp45data) << 16U)|(wrp45data);
1298:Drivers/STM32L1xx_HAL_Driver/Src/stm32l1xx_hal_flash_ex.c ****     OB->WRP45 = tmp1;
1299:Drivers/STM32L1xx_HAL_Driver/Src/stm32l1xx_hal_flash_ex.c **** 
1300:Drivers/STM32L1xx_HAL_Driver/Src/stm32l1xx_hal_flash_ex.c ****     tmp2 = (uint32_t)(~(wrp67data) << 16U)|(wrp67data);
1301:Drivers/STM32L1xx_HAL_Driver/Src/stm32l1xx_hal_flash_ex.c ****     OB->WRP67 = tmp2;
1302:Drivers/STM32L1xx_HAL_Driver/Src/stm32l1xx_hal_flash_ex.c ****   }
1303:Drivers/STM32L1xx_HAL_Driver/Src/stm32l1xx_hal_flash_ex.c ****   else
1304:Drivers/STM32L1xx_HAL_Driver/Src/stm32l1xx_hal_flash_ex.c ****   {
1305:Drivers/STM32L1xx_HAL_Driver/Src/stm32l1xx_hal_flash_ex.c ****     wrp45data = (uint16_t)(~WRP2OrPCROP2 & (WRP_MASK_LOW & OB->WRP45));
 208              		.loc 1 1305 0
 209 0002 1149     		ldr	r1, .L22
 210              	.LVL21:
 211 0004 0B69     		ldr	r3, [r1, #16]
 212 0006 23EA0003 		bic	r3, r3, r0
 213 000a 9BB2     		uxth	r3, r3
 214              	.LVL22:
1306:Drivers/STM32L1xx_HAL_Driver/Src/stm32l1xx_hal_flash_ex.c ****     wrp67data = (uint16_t)((((~WRP2OrPCROP2 & WRP_MASK_HIGH)>>16U & OB->WRP67)));
 215              		.loc 1 1306 0
 216 000c C243     		mvns	r2, r0
 217 000e 4869     		ldr	r0, [r1, #20]
 218              	.LVL23:
 219 0010 00EA1240 		and	r0, r0, r2, lsr #16
 220              	.LVL24:
1307:Drivers/STM32L1xx_HAL_Driver/Src/stm32l1xx_hal_flash_ex.c **** 
1308:Drivers/STM32L1xx_HAL_Driver/Src/stm32l1xx_hal_flash_ex.c ****     tmp1 = (uint32_t)((~wrp45data) << 16U)|(wrp45data);
 221              		.loc 1 1308 0
 222 0014 DA43     		mvns	r2, r3
 223              	.LVL25:
 224 0016 43EA0243 		orr	r3, r3, r2, lsl #16
 225              	.LVL26:
1309:Drivers/STM32L1xx_HAL_Driver/Src/stm32l1xx_hal_flash_ex.c ****     OB->WRP45 = tmp1;
 226              		.loc 1 1309 0
 227 001a 0B61     		str	r3, [r1, #16]
1310:Drivers/STM32L1xx_HAL_Driver/Src/stm32l1xx_hal_flash_ex.c **** 
1311:Drivers/STM32L1xx_HAL_Driver/Src/stm32l1xx_hal_flash_ex.c ****     tmp2 = (uint32_t)((~wrp67data) << 16U)|(wrp67data);
 228              		.loc 1 1311 0
 229 001c C343     		mvns	r3, r0
 230              	.LVL27:
 231 001e 40EA0340 		orr	r0, r0, r3, lsl #16
ARM GAS  /tmp/ccAAsIoz.s 			page 28


 232              	.LVL28:
1312:Drivers/STM32L1xx_HAL_Driver/Src/stm32l1xx_hal_flash_ex.c ****     OB->WRP67 = tmp2;
 233              		.loc 1 1312 0
 234 0022 4861     		str	r0, [r1, #20]
 235              	.LVL29:
 236 0024 7047     		bx	lr
 237              	.LVL30:
 238              	.L21:
1295:Drivers/STM32L1xx_HAL_Driver/Src/stm32l1xx_hal_flash_ex.c ****     wrp67data = (uint16_t)((((WRP2OrPCROP2 & WRP_MASK_HIGH)>>16U | OB->WRP67)));
 239              		.loc 1 1295 0
 240 0026 0849     		ldr	r1, .L22
 241              	.LVL31:
 242 0028 0A69     		ldr	r2, [r1, #16]
 243 002a 0243     		orrs	r2, r2, r0
 244 002c 92B2     		uxth	r2, r2
 245              	.LVL32:
1296:Drivers/STM32L1xx_HAL_Driver/Src/stm32l1xx_hal_flash_ex.c ****     tmp1 = (uint32_t)(~(wrp45data) << 16U)|(wrp45data);
 246              		.loc 1 1296 0
 247 002e 4B69     		ldr	r3, [r1, #20]
 248 0030 43EA1040 		orr	r0, r3, r0, lsr #16
 249              	.LVL33:
 250 0034 80B2     		uxth	r0, r0
 251              	.LVL34:
1297:Drivers/STM32L1xx_HAL_Driver/Src/stm32l1xx_hal_flash_ex.c ****     OB->WRP45 = tmp1;
 252              		.loc 1 1297 0
 253 0036 D343     		mvns	r3, r2
 254 0038 42EA0342 		orr	r2, r2, r3, lsl #16
 255              	.LVL35:
1298:Drivers/STM32L1xx_HAL_Driver/Src/stm32l1xx_hal_flash_ex.c **** 
 256              		.loc 1 1298 0
 257 003c 0A61     		str	r2, [r1, #16]
1300:Drivers/STM32L1xx_HAL_Driver/Src/stm32l1xx_hal_flash_ex.c ****     OB->WRP67 = tmp2;
 258              		.loc 1 1300 0
 259 003e C343     		mvns	r3, r0
 260              	.LVL36:
 261 0040 40EA0340 		orr	r0, r0, r3, lsl #16
 262              	.LVL37:
1301:Drivers/STM32L1xx_HAL_Driver/Src/stm32l1xx_hal_flash_ex.c ****   }
 263              		.loc 1 1301 0
 264 0044 4861     		str	r0, [r1, #20]
 265 0046 7047     		bx	lr
 266              	.L23:
 267              		.align	2
 268              	.L22:
 269 0048 0000F81F 		.word	536346624
 270              		.cfi_endproc
 271              	.LFE91:
 273              		.section	.text.FLASH_OB_WRPConfigWRP3,"ax",%progbits
 274              		.align	1
 275              		.syntax unified
 276              		.thumb
 277              		.thumb_func
 278              		.fpu softvfp
 280              	FLASH_OB_WRPConfigWRP3:
 281              	.LFB92:
1313:Drivers/STM32L1xx_HAL_Driver/Src/stm32l1xx_hal_flash_ex.c ****   }
1314:Drivers/STM32L1xx_HAL_Driver/Src/stm32l1xx_hal_flash_ex.c **** }
ARM GAS  /tmp/ccAAsIoz.s 			page 29


1315:Drivers/STM32L1xx_HAL_Driver/Src/stm32l1xx_hal_flash_ex.c **** #endif /* STM32L100xC || STM32L151xC || STM32L152xC || (...) || STM32L151xE || STM32L152xE || STM32
1316:Drivers/STM32L1xx_HAL_Driver/Src/stm32l1xx_hal_flash_ex.c **** 
1317:Drivers/STM32L1xx_HAL_Driver/Src/stm32l1xx_hal_flash_ex.c **** #if defined(STM32L151xD) || defined(STM32L151xDX) || defined(STM32L152xD) || defined(STM32L152xDX) 
1318:Drivers/STM32L1xx_HAL_Driver/Src/stm32l1xx_hal_flash_ex.c ****  || defined(STM32L162xD) || defined(STM32L162xDX) || defined(STM32L151xE) || defined(STM32L152xE)  
1319:Drivers/STM32L1xx_HAL_Driver/Src/stm32l1xx_hal_flash_ex.c ****  || defined(STM32L162xE)
1320:Drivers/STM32L1xx_HAL_Driver/Src/stm32l1xx_hal_flash_ex.c **** /**
1321:Drivers/STM32L1xx_HAL_Driver/Src/stm32l1xx_hal_flash_ex.c ****   * @brief  Enable Write protects the desired pages of the third 128KB of the Flash.
1322:Drivers/STM32L1xx_HAL_Driver/Src/stm32l1xx_hal_flash_ex.c ****   * @note   This function can be used only for STM32L151xD, STM32L152xD, STM32L162xD  & Cat5 device
1323:Drivers/STM32L1xx_HAL_Driver/Src/stm32l1xx_hal_flash_ex.c ****   * @param  WRP3 specifies the address of the pages to be write protected.
1324:Drivers/STM32L1xx_HAL_Driver/Src/stm32l1xx_hal_flash_ex.c ****   *   This parameter can be a combination of @ref FLASHEx_Option_Bytes_Write_Protection3
1325:Drivers/STM32L1xx_HAL_Driver/Src/stm32l1xx_hal_flash_ex.c ****   * @param  NewState new state of the specified FLASH Pages Wtite protection.
1326:Drivers/STM32L1xx_HAL_Driver/Src/stm32l1xx_hal_flash_ex.c ****   *   This parameter can be: ENABLE or DISABLE.
1327:Drivers/STM32L1xx_HAL_Driver/Src/stm32l1xx_hal_flash_ex.c ****   * @retval None
1328:Drivers/STM32L1xx_HAL_Driver/Src/stm32l1xx_hal_flash_ex.c ****   */
1329:Drivers/STM32L1xx_HAL_Driver/Src/stm32l1xx_hal_flash_ex.c **** static void FLASH_OB_WRPConfigWRP3(uint32_t WRP3, FunctionalState NewState)
1330:Drivers/STM32L1xx_HAL_Driver/Src/stm32l1xx_hal_flash_ex.c **** {
 282              		.loc 1 1330 0
 283              		.cfi_startproc
 284              		@ args = 0, pretend = 0, frame = 0
 285              		@ frame_needed = 0, uses_anonymous_args = 0
 286              		@ link register save eliminated.
 287              	.LVL38:
1331:Drivers/STM32L1xx_HAL_Driver/Src/stm32l1xx_hal_flash_ex.c ****   uint32_t wrp89data = 0U, wrp1011data = 0U;
1332:Drivers/STM32L1xx_HAL_Driver/Src/stm32l1xx_hal_flash_ex.c **** 
1333:Drivers/STM32L1xx_HAL_Driver/Src/stm32l1xx_hal_flash_ex.c ****   uint32_t tmp1 = 0U, tmp2 = 0U;
1334:Drivers/STM32L1xx_HAL_Driver/Src/stm32l1xx_hal_flash_ex.c **** 
1335:Drivers/STM32L1xx_HAL_Driver/Src/stm32l1xx_hal_flash_ex.c ****   /* Check the parameters */
1336:Drivers/STM32L1xx_HAL_Driver/Src/stm32l1xx_hal_flash_ex.c ****   assert_param(IS_OB_WRP(WRP3));
1337:Drivers/STM32L1xx_HAL_Driver/Src/stm32l1xx_hal_flash_ex.c ****   assert_param(IS_FUNCTIONAL_STATE(NewState));
1338:Drivers/STM32L1xx_HAL_Driver/Src/stm32l1xx_hal_flash_ex.c **** 
1339:Drivers/STM32L1xx_HAL_Driver/Src/stm32l1xx_hal_flash_ex.c ****   if (NewState != DISABLE)
 288              		.loc 1 1339 0
 289 0000 89B9     		cbnz	r1, .L27
1340:Drivers/STM32L1xx_HAL_Driver/Src/stm32l1xx_hal_flash_ex.c ****   {
1341:Drivers/STM32L1xx_HAL_Driver/Src/stm32l1xx_hal_flash_ex.c ****     wrp89data = (uint16_t)(((WRP3 & WRP_MASK_LOW) | OB->WRP89));
1342:Drivers/STM32L1xx_HAL_Driver/Src/stm32l1xx_hal_flash_ex.c ****     wrp1011data = (uint16_t)((((WRP3 & WRP_MASK_HIGH)>>16U | OB->WRP1011)));
1343:Drivers/STM32L1xx_HAL_Driver/Src/stm32l1xx_hal_flash_ex.c ****     tmp1 = (uint32_t)(~(wrp89data) << 16U)|(wrp89data);
1344:Drivers/STM32L1xx_HAL_Driver/Src/stm32l1xx_hal_flash_ex.c ****     OB->WRP89 = tmp1;
1345:Drivers/STM32L1xx_HAL_Driver/Src/stm32l1xx_hal_flash_ex.c **** 
1346:Drivers/STM32L1xx_HAL_Driver/Src/stm32l1xx_hal_flash_ex.c ****     tmp2 = (uint32_t)(~(wrp1011data) << 16U)|(wrp1011data);
1347:Drivers/STM32L1xx_HAL_Driver/Src/stm32l1xx_hal_flash_ex.c ****     OB->WRP1011 = tmp2;
1348:Drivers/STM32L1xx_HAL_Driver/Src/stm32l1xx_hal_flash_ex.c ****   }
1349:Drivers/STM32L1xx_HAL_Driver/Src/stm32l1xx_hal_flash_ex.c ****   else
1350:Drivers/STM32L1xx_HAL_Driver/Src/stm32l1xx_hal_flash_ex.c ****   {
1351:Drivers/STM32L1xx_HAL_Driver/Src/stm32l1xx_hal_flash_ex.c ****     wrp89data = (uint16_t)(~WRP3 & (WRP_MASK_LOW & OB->WRP89));
 290              		.loc 1 1351 0
 291 0002 1149     		ldr	r1, .L28
 292              	.LVL39:
 293 0004 8B69     		ldr	r3, [r1, #24]
 294 0006 23EA0003 		bic	r3, r3, r0
 295 000a 9BB2     		uxth	r3, r3
 296              	.LVL40:
1352:Drivers/STM32L1xx_HAL_Driver/Src/stm32l1xx_hal_flash_ex.c ****     wrp1011data = (uint16_t)((((~WRP3 & WRP_MASK_HIGH)>>16U & OB->WRP1011)));
 297              		.loc 1 1352 0
 298 000c C243     		mvns	r2, r0
 299 000e C869     		ldr	r0, [r1, #28]
 300              	.LVL41:
ARM GAS  /tmp/ccAAsIoz.s 			page 30


 301 0010 00EA1240 		and	r0, r0, r2, lsr #16
 302              	.LVL42:
1353:Drivers/STM32L1xx_HAL_Driver/Src/stm32l1xx_hal_flash_ex.c **** 
1354:Drivers/STM32L1xx_HAL_Driver/Src/stm32l1xx_hal_flash_ex.c ****     tmp1 = (uint32_t)((~wrp89data) << 16U)|(wrp89data);
 303              		.loc 1 1354 0
 304 0014 DA43     		mvns	r2, r3
 305              	.LVL43:
 306 0016 43EA0243 		orr	r3, r3, r2, lsl #16
 307              	.LVL44:
1355:Drivers/STM32L1xx_HAL_Driver/Src/stm32l1xx_hal_flash_ex.c ****     OB->WRP89 = tmp1;
 308              		.loc 1 1355 0
 309 001a 8B61     		str	r3, [r1, #24]
1356:Drivers/STM32L1xx_HAL_Driver/Src/stm32l1xx_hal_flash_ex.c **** 
1357:Drivers/STM32L1xx_HAL_Driver/Src/stm32l1xx_hal_flash_ex.c ****     tmp2 = (uint32_t)((~wrp1011data) << 16U)|(wrp1011data);
 310              		.loc 1 1357 0
 311 001c C343     		mvns	r3, r0
 312              	.LVL45:
 313 001e 40EA0340 		orr	r0, r0, r3, lsl #16
 314              	.LVL46:
1358:Drivers/STM32L1xx_HAL_Driver/Src/stm32l1xx_hal_flash_ex.c ****     OB->WRP1011 = tmp2;
 315              		.loc 1 1358 0
 316 0022 C861     		str	r0, [r1, #28]
 317              	.LVL47:
 318 0024 7047     		bx	lr
 319              	.LVL48:
 320              	.L27:
1341:Drivers/STM32L1xx_HAL_Driver/Src/stm32l1xx_hal_flash_ex.c ****     wrp1011data = (uint16_t)((((WRP3 & WRP_MASK_HIGH)>>16U | OB->WRP1011)));
 321              		.loc 1 1341 0
 322 0026 0849     		ldr	r1, .L28
 323              	.LVL49:
 324 0028 8A69     		ldr	r2, [r1, #24]
 325 002a 0243     		orrs	r2, r2, r0
 326 002c 92B2     		uxth	r2, r2
 327              	.LVL50:
1342:Drivers/STM32L1xx_HAL_Driver/Src/stm32l1xx_hal_flash_ex.c ****     tmp1 = (uint32_t)(~(wrp89data) << 16U)|(wrp89data);
 328              		.loc 1 1342 0
 329 002e CB69     		ldr	r3, [r1, #28]
 330 0030 43EA1040 		orr	r0, r3, r0, lsr #16
 331              	.LVL51:
 332 0034 80B2     		uxth	r0, r0
 333              	.LVL52:
1343:Drivers/STM32L1xx_HAL_Driver/Src/stm32l1xx_hal_flash_ex.c ****     OB->WRP89 = tmp1;
 334              		.loc 1 1343 0
 335 0036 D343     		mvns	r3, r2
 336 0038 42EA0342 		orr	r2, r2, r3, lsl #16
 337              	.LVL53:
1344:Drivers/STM32L1xx_HAL_Driver/Src/stm32l1xx_hal_flash_ex.c **** 
 338              		.loc 1 1344 0
 339 003c 8A61     		str	r2, [r1, #24]
1346:Drivers/STM32L1xx_HAL_Driver/Src/stm32l1xx_hal_flash_ex.c ****     OB->WRP1011 = tmp2;
 340              		.loc 1 1346 0
 341 003e C343     		mvns	r3, r0
 342              	.LVL54:
 343 0040 40EA0340 		orr	r0, r0, r3, lsl #16
 344              	.LVL55:
1347:Drivers/STM32L1xx_HAL_Driver/Src/stm32l1xx_hal_flash_ex.c ****   }
 345              		.loc 1 1347 0
ARM GAS  /tmp/ccAAsIoz.s 			page 31


 346 0044 C861     		str	r0, [r1, #28]
 347 0046 7047     		bx	lr
 348              	.L29:
 349              		.align	2
 350              	.L28:
 351 0048 0000F81F 		.word	536346624
 352              		.cfi_endproc
 353              	.LFE92:
 355              		.section	.text.FLASH_OB_WRPConfigWRP4,"ax",%progbits
 356              		.align	1
 357              		.syntax unified
 358              		.thumb
 359              		.thumb_func
 360              		.fpu softvfp
 362              	FLASH_OB_WRPConfigWRP4:
 363              	.LFB93:
1359:Drivers/STM32L1xx_HAL_Driver/Src/stm32l1xx_hal_flash_ex.c ****   }
1360:Drivers/STM32L1xx_HAL_Driver/Src/stm32l1xx_hal_flash_ex.c **** }
1361:Drivers/STM32L1xx_HAL_Driver/Src/stm32l1xx_hal_flash_ex.c **** #endif /* STM32L151xD || STM32L152xD || STM32L162xD || STM32L151xE || STM32L152xE || STM32L162xE */
1362:Drivers/STM32L1xx_HAL_Driver/Src/stm32l1xx_hal_flash_ex.c **** 
1363:Drivers/STM32L1xx_HAL_Driver/Src/stm32l1xx_hal_flash_ex.c **** #if defined(STM32L151xE) || defined(STM32L152xE) || defined(STM32L162xE) || defined(STM32L151xDX) \
1364:Drivers/STM32L1xx_HAL_Driver/Src/stm32l1xx_hal_flash_ex.c ****  || defined(STM32L152xDX) || defined(STM32L162xDX)
1365:Drivers/STM32L1xx_HAL_Driver/Src/stm32l1xx_hal_flash_ex.c **** /**
1366:Drivers/STM32L1xx_HAL_Driver/Src/stm32l1xx_hal_flash_ex.c ****   * @brief  Enable Write protects the desired pages of the Fourth 128KB of the Flash.
1367:Drivers/STM32L1xx_HAL_Driver/Src/stm32l1xx_hal_flash_ex.c ****   * @note   This function can be used only for Cat5 & STM32L1xxDX devices.
1368:Drivers/STM32L1xx_HAL_Driver/Src/stm32l1xx_hal_flash_ex.c ****   * @param  WRP4 specifies the address of the pages to be write protected.
1369:Drivers/STM32L1xx_HAL_Driver/Src/stm32l1xx_hal_flash_ex.c ****   *   This parameter can be a combination of @ref FLASHEx_Option_Bytes_Write_Protection4
1370:Drivers/STM32L1xx_HAL_Driver/Src/stm32l1xx_hal_flash_ex.c ****   * @param  NewState new state of the specified FLASH Pages Wtite protection.
1371:Drivers/STM32L1xx_HAL_Driver/Src/stm32l1xx_hal_flash_ex.c ****   *   This parameter can be: ENABLE or DISABLE.
1372:Drivers/STM32L1xx_HAL_Driver/Src/stm32l1xx_hal_flash_ex.c ****   * @retval None
1373:Drivers/STM32L1xx_HAL_Driver/Src/stm32l1xx_hal_flash_ex.c ****   */
1374:Drivers/STM32L1xx_HAL_Driver/Src/stm32l1xx_hal_flash_ex.c **** static void FLASH_OB_WRPConfigWRP4(uint32_t WRP4, FunctionalState NewState)
1375:Drivers/STM32L1xx_HAL_Driver/Src/stm32l1xx_hal_flash_ex.c **** {
 364              		.loc 1 1375 0
 365              		.cfi_startproc
 366              		@ args = 0, pretend = 0, frame = 0
 367              		@ frame_needed = 0, uses_anonymous_args = 0
 368              		@ link register save eliminated.
 369              	.LVL56:
1376:Drivers/STM32L1xx_HAL_Driver/Src/stm32l1xx_hal_flash_ex.c ****   uint32_t wrp1213data = 0U, wrp1415data = 0U;
1377:Drivers/STM32L1xx_HAL_Driver/Src/stm32l1xx_hal_flash_ex.c **** 
1378:Drivers/STM32L1xx_HAL_Driver/Src/stm32l1xx_hal_flash_ex.c ****   uint32_t tmp1 = 0U, tmp2 = 0U;
1379:Drivers/STM32L1xx_HAL_Driver/Src/stm32l1xx_hal_flash_ex.c **** 
1380:Drivers/STM32L1xx_HAL_Driver/Src/stm32l1xx_hal_flash_ex.c ****   /* Check the parameters */
1381:Drivers/STM32L1xx_HAL_Driver/Src/stm32l1xx_hal_flash_ex.c ****   assert_param(IS_OB_WRP(WRP4));
1382:Drivers/STM32L1xx_HAL_Driver/Src/stm32l1xx_hal_flash_ex.c ****   assert_param(IS_FUNCTIONAL_STATE(NewState));
1383:Drivers/STM32L1xx_HAL_Driver/Src/stm32l1xx_hal_flash_ex.c **** 
1384:Drivers/STM32L1xx_HAL_Driver/Src/stm32l1xx_hal_flash_ex.c ****   if (NewState != DISABLE)
 370              		.loc 1 1384 0
 371 0000 A9B9     		cbnz	r1, .L33
1385:Drivers/STM32L1xx_HAL_Driver/Src/stm32l1xx_hal_flash_ex.c ****   {
1386:Drivers/STM32L1xx_HAL_Driver/Src/stm32l1xx_hal_flash_ex.c ****     wrp1213data = (uint16_t)(((WRP4 & WRP_MASK_LOW) | OB->WRP1213));
1387:Drivers/STM32L1xx_HAL_Driver/Src/stm32l1xx_hal_flash_ex.c ****     wrp1415data = (uint16_t)((((WRP4 & WRP_MASK_HIGH)>>16U | OB->WRP1415)));
1388:Drivers/STM32L1xx_HAL_Driver/Src/stm32l1xx_hal_flash_ex.c ****     tmp1 = (uint32_t)(~(wrp1213data) << 16U)|(wrp1213data);
1389:Drivers/STM32L1xx_HAL_Driver/Src/stm32l1xx_hal_flash_ex.c ****     OB->WRP1213 = tmp1;
1390:Drivers/STM32L1xx_HAL_Driver/Src/stm32l1xx_hal_flash_ex.c **** 
1391:Drivers/STM32L1xx_HAL_Driver/Src/stm32l1xx_hal_flash_ex.c ****     tmp2 = (uint32_t)(~(wrp1415data) << 16U)|(wrp1415data);
ARM GAS  /tmp/ccAAsIoz.s 			page 32


1392:Drivers/STM32L1xx_HAL_Driver/Src/stm32l1xx_hal_flash_ex.c ****     OB->WRP1415 = tmp2;
1393:Drivers/STM32L1xx_HAL_Driver/Src/stm32l1xx_hal_flash_ex.c ****   }
1394:Drivers/STM32L1xx_HAL_Driver/Src/stm32l1xx_hal_flash_ex.c ****   else
1395:Drivers/STM32L1xx_HAL_Driver/Src/stm32l1xx_hal_flash_ex.c ****   {
1396:Drivers/STM32L1xx_HAL_Driver/Src/stm32l1xx_hal_flash_ex.c ****     wrp1213data = (uint16_t)(~WRP4 & (WRP_MASK_LOW & OB->WRP1213));
 372              		.loc 1 1396 0
 373 0002 1549     		ldr	r1, .L34
 374              	.LVL57:
 375 0004 D1F88030 		ldr	r3, [r1, #128]
 376 0008 23EA0003 		bic	r3, r3, r0
 377 000c 9BB2     		uxth	r3, r3
 378              	.LVL58:
1397:Drivers/STM32L1xx_HAL_Driver/Src/stm32l1xx_hal_flash_ex.c ****     wrp1415data = (uint16_t)((((~WRP4 & WRP_MASK_HIGH)>>16U & OB->WRP1415)));
 379              		.loc 1 1397 0
 380 000e C243     		mvns	r2, r0
 381 0010 D1F88400 		ldr	r0, [r1, #132]
 382              	.LVL59:
 383 0014 00EA1240 		and	r0, r0, r2, lsr #16
 384              	.LVL60:
1398:Drivers/STM32L1xx_HAL_Driver/Src/stm32l1xx_hal_flash_ex.c **** 
1399:Drivers/STM32L1xx_HAL_Driver/Src/stm32l1xx_hal_flash_ex.c ****     tmp1 = (uint32_t)((~wrp1213data) << 16U)|(wrp1213data);
 385              		.loc 1 1399 0
 386 0018 DA43     		mvns	r2, r3
 387              	.LVL61:
 388 001a 43EA0243 		orr	r3, r3, r2, lsl #16
 389              	.LVL62:
1400:Drivers/STM32L1xx_HAL_Driver/Src/stm32l1xx_hal_flash_ex.c ****     OB->WRP1213 = tmp1;
 390              		.loc 1 1400 0
 391 001e C1F88030 		str	r3, [r1, #128]
1401:Drivers/STM32L1xx_HAL_Driver/Src/stm32l1xx_hal_flash_ex.c **** 
1402:Drivers/STM32L1xx_HAL_Driver/Src/stm32l1xx_hal_flash_ex.c ****     tmp2 = (uint32_t)((~wrp1415data) << 16U)|(wrp1415data);
 392              		.loc 1 1402 0
 393 0022 C343     		mvns	r3, r0
 394              	.LVL63:
 395 0024 40EA0340 		orr	r0, r0, r3, lsl #16
 396              	.LVL64:
1403:Drivers/STM32L1xx_HAL_Driver/Src/stm32l1xx_hal_flash_ex.c ****     OB->WRP1415 = tmp2;
 397              		.loc 1 1403 0
 398 0028 C1F88400 		str	r0, [r1, #132]
 399              	.LVL65:
 400 002c 7047     		bx	lr
 401              	.LVL66:
 402              	.L33:
1386:Drivers/STM32L1xx_HAL_Driver/Src/stm32l1xx_hal_flash_ex.c ****     wrp1415data = (uint16_t)((((WRP4 & WRP_MASK_HIGH)>>16U | OB->WRP1415)));
 403              		.loc 1 1386 0
 404 002e 0A49     		ldr	r1, .L34
 405              	.LVL67:
 406 0030 D1F88020 		ldr	r2, [r1, #128]
 407 0034 0243     		orrs	r2, r2, r0
 408 0036 92B2     		uxth	r2, r2
 409              	.LVL68:
1387:Drivers/STM32L1xx_HAL_Driver/Src/stm32l1xx_hal_flash_ex.c ****     tmp1 = (uint32_t)(~(wrp1213data) << 16U)|(wrp1213data);
 410              		.loc 1 1387 0
 411 0038 D1F88430 		ldr	r3, [r1, #132]
 412 003c 43EA1040 		orr	r0, r3, r0, lsr #16
 413              	.LVL69:
 414 0040 80B2     		uxth	r0, r0
ARM GAS  /tmp/ccAAsIoz.s 			page 33


 415              	.LVL70:
1388:Drivers/STM32L1xx_HAL_Driver/Src/stm32l1xx_hal_flash_ex.c ****     OB->WRP1213 = tmp1;
 416              		.loc 1 1388 0
 417 0042 D343     		mvns	r3, r2
 418 0044 42EA0342 		orr	r2, r2, r3, lsl #16
 419              	.LVL71:
1389:Drivers/STM32L1xx_HAL_Driver/Src/stm32l1xx_hal_flash_ex.c **** 
 420              		.loc 1 1389 0
 421 0048 C1F88020 		str	r2, [r1, #128]
1391:Drivers/STM32L1xx_HAL_Driver/Src/stm32l1xx_hal_flash_ex.c ****     OB->WRP1415 = tmp2;
 422              		.loc 1 1391 0
 423 004c C343     		mvns	r3, r0
 424              	.LVL72:
 425 004e 40EA0340 		orr	r0, r0, r3, lsl #16
 426              	.LVL73:
1392:Drivers/STM32L1xx_HAL_Driver/Src/stm32l1xx_hal_flash_ex.c ****   }
 427              		.loc 1 1392 0
 428 0052 C1F88400 		str	r0, [r1, #132]
 429 0056 7047     		bx	lr
 430              	.L35:
 431              		.align	2
 432              	.L34:
 433 0058 0000F81F 		.word	536346624
 434              		.cfi_endproc
 435              	.LFE93:
 437              		.section	.text.FLASH_OB_WRPConfig,"ax",%progbits
 438              		.align	1
 439              		.syntax unified
 440              		.thumb
 441              		.thumb_func
 442              		.fpu softvfp
 444              	FLASH_OB_WRPConfig:
 445              	.LFB89:
1107:Drivers/STM32L1xx_HAL_Driver/Src/stm32l1xx_hal_flash_ex.c ****   HAL_StatusTypeDef status = HAL_OK;
 446              		.loc 1 1107 0
 447              		.cfi_startproc
 448              		@ args = 0, pretend = 0, frame = 0
 449              		@ frame_needed = 0, uses_anonymous_args = 0
 450              	.LVL74:
 451 0000 38B5     		push	{r3, r4, r5, lr}
 452              	.LCFI0:
 453              		.cfi_def_cfa_offset 16
 454              		.cfi_offset 3, -16
 455              		.cfi_offset 4, -12
 456              		.cfi_offset 5, -8
 457              		.cfi_offset 14, -4
 458 0002 0446     		mov	r4, r0
 459 0004 0D46     		mov	r5, r1
 460              	.LVL75:
1111:Drivers/STM32L1xx_HAL_Driver/Src/stm32l1xx_hal_flash_ex.c **** 
 461              		.loc 1 1111 0
 462 0006 4CF25030 		movw	r0, #50000
 463              	.LVL76:
 464 000a FFF7FEFF 		bl	FLASH_WaitForLastOperation
 465              	.LVL77:
1113:Drivers/STM32L1xx_HAL_Driver/Src/stm32l1xx_hal_flash_ex.c ****   {
 466              		.loc 1 1113 0
ARM GAS  /tmp/ccAAsIoz.s 			page 34


 467 000e 0346     		mov	r3, r0
 468 0010 78B9     		cbnz	r0, .L37
1116:Drivers/STM32L1xx_HAL_Driver/Src/stm32l1xx_hal_flash_ex.c **** 
 469              		.loc 1 1116 0
 470 0012 0022     		movs	r2, #0
 471 0014 104B     		ldr	r3, .L47
 472 0016 5A61     		str	r2, [r3, #20]
1119:Drivers/STM32L1xx_HAL_Driver/Src/stm32l1xx_hal_flash_ex.c ****     {
 473              		.loc 1 1119 0
 474 0018 A068     		ldr	r0, [r4, #8]
 475              	.LVL78:
 476 001a 60B9     		cbnz	r0, .L43
 477              	.L38:
1131:Drivers/STM32L1xx_HAL_Driver/Src/stm32l1xx_hal_flash_ex.c ****     {
 478              		.loc 1 1131 0
 479 001c E068     		ldr	r0, [r4, #12]
 480 001e 70B9     		cbnz	r0, .L44
 481              	.L39:
1144:Drivers/STM32L1xx_HAL_Driver/Src/stm32l1xx_hal_flash_ex.c ****     {
 482              		.loc 1 1144 0
 483 0020 2069     		ldr	r0, [r4, #16]
 484 0022 80B9     		cbnz	r0, .L45
 485              	.L40:
1156:Drivers/STM32L1xx_HAL_Driver/Src/stm32l1xx_hal_flash_ex.c ****     {
 486              		.loc 1 1156 0
 487 0024 6069     		ldr	r0, [r4, #20]
 488 0026 90B9     		cbnz	r0, .L46
 489              	.L41:
1164:Drivers/STM32L1xx_HAL_Driver/Src/stm32l1xx_hal_flash_ex.c ****   }
 490              		.loc 1 1164 0
 491 0028 4CF25030 		movw	r0, #50000
 492 002c FFF7FEFF 		bl	FLASH_WaitForLastOperation
 493              	.LVL79:
 494 0030 0346     		mov	r3, r0
 495              	.LVL80:
 496              	.L37:
1169:Drivers/STM32L1xx_HAL_Driver/Src/stm32l1xx_hal_flash_ex.c **** 
 497              		.loc 1 1169 0
 498 0032 1846     		mov	r0, r3
 499 0034 38BD     		pop	{r3, r4, r5, pc}
 500              	.LVL81:
 501              	.L43:
1121:Drivers/STM32L1xx_HAL_Driver/Src/stm32l1xx_hal_flash_ex.c ****     }
 502              		.loc 1 1121 0
 503 0036 2946     		mov	r1, r5
 504 0038 FFF7FEFF 		bl	FLASH_OB_WRPConfigWRP1OrPCROP1
 505              	.LVL82:
 506 003c EEE7     		b	.L38
 507              	.L44:
1133:Drivers/STM32L1xx_HAL_Driver/Src/stm32l1xx_hal_flash_ex.c ****     }
 508              		.loc 1 1133 0
 509 003e 2946     		mov	r1, r5
 510 0040 FFF7FEFF 		bl	FLASH_OB_WRPConfigWRP2OrPCROP2
 511              	.LVL83:
 512 0044 ECE7     		b	.L39
 513              	.L45:
1146:Drivers/STM32L1xx_HAL_Driver/Src/stm32l1xx_hal_flash_ex.c ****     }
ARM GAS  /tmp/ccAAsIoz.s 			page 35


 514              		.loc 1 1146 0
 515 0046 2946     		mov	r1, r5
 516 0048 FFF7FEFF 		bl	FLASH_OB_WRPConfigWRP3
 517              	.LVL84:
 518 004c EAE7     		b	.L40
 519              	.L46:
1158:Drivers/STM32L1xx_HAL_Driver/Src/stm32l1xx_hal_flash_ex.c ****     }
 520              		.loc 1 1158 0
 521 004e 2946     		mov	r1, r5
 522 0050 FFF7FEFF 		bl	FLASH_OB_WRPConfigWRP4
 523              	.LVL85:
 524 0054 E8E7     		b	.L41
 525              	.L48:
 526 0056 00BF     		.align	2
 527              	.L47:
 528 0058 00000000 		.word	pFlash
 529              		.cfi_endproc
 530              	.LFE89:
 532              		.section	.text.FLASH_OB_RDPConfig,"ax",%progbits
 533              		.align	1
 534              		.syntax unified
 535              		.thumb
 536              		.thumb_func
 537              		.fpu softvfp
 539              	FLASH_OB_RDPConfig:
 540              	.LFB84:
 959:Drivers/STM32L1xx_HAL_Driver/Src/stm32l1xx_hal_flash_ex.c ****   HAL_StatusTypeDef status = HAL_OK;
 541              		.loc 1 959 0
 542              		.cfi_startproc
 543              		@ args = 0, pretend = 0, frame = 0
 544              		@ frame_needed = 0, uses_anonymous_args = 0
 545              	.LVL86:
 966:Drivers/STM32L1xx_HAL_Driver/Src/stm32l1xx_hal_flash_ex.c **** 
 546              		.loc 1 966 0
 547 0000 104B     		ldr	r3, .L58
 548 0002 1B68     		ldr	r3, [r3]
 549 0004 DBB2     		uxtb	r3, r3
 550              	.LVL87:
 973:Drivers/STM32L1xx_HAL_Driver/Src/stm32l1xx_hal_flash_ex.c ****   {
 551              		.loc 1 973 0
 552 0006 AA2B     		cmp	r3, #170
 553 0008 0BD0     		beq	.L56
 554              	.L50:
 959:Drivers/STM32L1xx_HAL_Driver/Src/stm32l1xx_hal_flash_ex.c ****   HAL_StatusTypeDef status = HAL_OK;
 555              		.loc 1 959 0
 556 000a 10B5     		push	{r4, lr}
 557              	.LCFI1:
 558              		.cfi_def_cfa_offset 8
 559              		.cfi_offset 4, -8
 560              		.cfi_offset 14, -4
 986:Drivers/STM32L1xx_HAL_Driver/Src/stm32l1xx_hal_flash_ex.c ****     tmp2 = (uint32_t)(((uint32_t)((uint32_t)(tmp1) << 16U)) | ((uint32_t)(OB_RDP | tmp3)));
 561              		.loc 1 986 0
 562 000c C443     		mvns	r4, r0
 563              	.LVL88:
 987:Drivers/STM32L1xx_HAL_Driver/Src/stm32l1xx_hal_flash_ex.c **** 
 564              		.loc 1 987 0
 565 000e 40EA0444 		orr	r4, r0, r4, lsl #16
ARM GAS  /tmp/ccAAsIoz.s 			page 36


 566              	.LVL89:
 990:Drivers/STM32L1xx_HAL_Driver/Src/stm32l1xx_hal_flash_ex.c **** 
 567              		.loc 1 990 0
 568 0012 4CF25030 		movw	r0, #50000
 569              	.LVL90:
 570 0016 FFF7FEFF 		bl	FLASH_WaitForLastOperation
 571              	.LVL91:
 992:Drivers/STM32L1xx_HAL_Driver/Src/stm32l1xx_hal_flash_ex.c ****     {
 572              		.loc 1 992 0
 573 001a 0346     		mov	r3, r0
 574 001c 30B1     		cbz	r0, .L57
 575              	.LVL92:
 576              	.L51:
1007:Drivers/STM32L1xx_HAL_Driver/Src/stm32l1xx_hal_flash_ex.c **** 
 577              		.loc 1 1007 0
 578 001e 1846     		mov	r0, r3
 579 0020 10BD     		pop	{r4, pc}
 580              	.LVL93:
 581              	.L56:
 582              	.LCFI2:
 583              		.cfi_def_cfa_offset 0
 584              		.cfi_restore 4
 585              		.cfi_restore 14
 973:Drivers/STM32L1xx_HAL_Driver/Src/stm32l1xx_hal_flash_ex.c ****   {
 586              		.loc 1 973 0 discriminator 1
 587 0022 AA28     		cmp	r0, #170
 588 0024 F1D1     		bne	.L50
 976:Drivers/STM32L1xx_HAL_Driver/Src/stm32l1xx_hal_flash_ex.c ****   }
 589              		.loc 1 976 0
 590 0026 0123     		movs	r3, #1
 591              	.LVL94:
1007:Drivers/STM32L1xx_HAL_Driver/Src/stm32l1xx_hal_flash_ex.c **** 
 592              		.loc 1 1007 0
 593 0028 1846     		mov	r0, r3
 594              	.LVL95:
 595 002a 7047     		bx	lr
 596              	.LVL96:
 597              	.L57:
 598              	.LCFI3:
 599              		.cfi_def_cfa_offset 8
 600              		.cfi_offset 4, -8
 601              		.cfi_offset 14, -4
 995:Drivers/STM32L1xx_HAL_Driver/Src/stm32l1xx_hal_flash_ex.c **** 
 602              		.loc 1 995 0
 603 002c 0022     		movs	r2, #0
 604 002e 064B     		ldr	r3, .L58+4
 605 0030 5A61     		str	r2, [r3, #20]
 998:Drivers/STM32L1xx_HAL_Driver/Src/stm32l1xx_hal_flash_ex.c **** 
 606              		.loc 1 998 0
 607 0032 044B     		ldr	r3, .L58
 608 0034 1C60     		str	r4, [r3]
1001:Drivers/STM32L1xx_HAL_Driver/Src/stm32l1xx_hal_flash_ex.c ****     }
 609              		.loc 1 1001 0
 610 0036 4CF25030 		movw	r0, #50000
 611              	.LVL97:
 612 003a FFF7FEFF 		bl	FLASH_WaitForLastOperation
 613              	.LVL98:
ARM GAS  /tmp/ccAAsIoz.s 			page 37


 614 003e 0346     		mov	r3, r0
 615              	.LVL99:
 616 0040 EDE7     		b	.L51
 617              	.L59:
 618 0042 00BF     		.align	2
 619              	.L58:
 620 0044 0000F81F 		.word	536346624
 621 0048 00000000 		.word	pFlash
 622              		.cfi_endproc
 623              	.LFE84:
 625              		.section	.text.FLASH_OB_UserConfig,"ax",%progbits
 626              		.align	1
 627              		.syntax unified
 628              		.thumb
 629              		.thumb_func
 630              		.fpu softvfp
 632              	FLASH_OB_UserConfig:
 633              	.LFB94:
1404:Drivers/STM32L1xx_HAL_Driver/Src/stm32l1xx_hal_flash_ex.c ****   }
1405:Drivers/STM32L1xx_HAL_Driver/Src/stm32l1xx_hal_flash_ex.c **** }
1406:Drivers/STM32L1xx_HAL_Driver/Src/stm32l1xx_hal_flash_ex.c **** #endif /* STM32L151xE || STM32L152xE || STM32L162xE || STM32L151xDX || ... */
1407:Drivers/STM32L1xx_HAL_Driver/Src/stm32l1xx_hal_flash_ex.c **** 
1408:Drivers/STM32L1xx_HAL_Driver/Src/stm32l1xx_hal_flash_ex.c **** /**
1409:Drivers/STM32L1xx_HAL_Driver/Src/stm32l1xx_hal_flash_ex.c ****   * @brief  Programs the FLASH User Option Byte: IWDG_SW / RST_STOP / RST_STDBY.
1410:Drivers/STM32L1xx_HAL_Driver/Src/stm32l1xx_hal_flash_ex.c ****   * @param  OB_IWDG Selects the WDG mode.
1411:Drivers/STM32L1xx_HAL_Driver/Src/stm32l1xx_hal_flash_ex.c ****   *   This parameter can be one of the following values:
1412:Drivers/STM32L1xx_HAL_Driver/Src/stm32l1xx_hal_flash_ex.c ****   *     @arg @ref OB_IWDG_SW Software WDG selected
1413:Drivers/STM32L1xx_HAL_Driver/Src/stm32l1xx_hal_flash_ex.c ****   *     @arg @ref OB_IWDG_HW Hardware WDG selected
1414:Drivers/STM32L1xx_HAL_Driver/Src/stm32l1xx_hal_flash_ex.c ****   * @param  OB_STOP Reset event when entering STOP mode.
1415:Drivers/STM32L1xx_HAL_Driver/Src/stm32l1xx_hal_flash_ex.c ****   *   This parameter can be one of the following values:
1416:Drivers/STM32L1xx_HAL_Driver/Src/stm32l1xx_hal_flash_ex.c ****   *     @arg @ref OB_STOP_NORST No reset generated when entering in STOP
1417:Drivers/STM32L1xx_HAL_Driver/Src/stm32l1xx_hal_flash_ex.c ****   *     @arg @ref OB_STOP_RST Reset generated when entering in STOP
1418:Drivers/STM32L1xx_HAL_Driver/Src/stm32l1xx_hal_flash_ex.c ****   * @param  OB_STDBY Reset event when entering Standby mode.
1419:Drivers/STM32L1xx_HAL_Driver/Src/stm32l1xx_hal_flash_ex.c ****   *   This parameter can be one of the following values:
1420:Drivers/STM32L1xx_HAL_Driver/Src/stm32l1xx_hal_flash_ex.c ****   *     @arg @ref OB_STDBY_NORST No reset generated when entering in STANDBY
1421:Drivers/STM32L1xx_HAL_Driver/Src/stm32l1xx_hal_flash_ex.c ****   *     @arg @ref OB_STDBY_RST Reset generated when entering in STANDBY
1422:Drivers/STM32L1xx_HAL_Driver/Src/stm32l1xx_hal_flash_ex.c ****   * @retval HAL status
1423:Drivers/STM32L1xx_HAL_Driver/Src/stm32l1xx_hal_flash_ex.c ****   */
1424:Drivers/STM32L1xx_HAL_Driver/Src/stm32l1xx_hal_flash_ex.c **** static HAL_StatusTypeDef FLASH_OB_UserConfig(uint8_t OB_IWDG, uint8_t OB_STOP, uint8_t OB_STDBY)
1425:Drivers/STM32L1xx_HAL_Driver/Src/stm32l1xx_hal_flash_ex.c **** {
 634              		.loc 1 1425 0
 635              		.cfi_startproc
 636              		@ args = 0, pretend = 0, frame = 0
 637              		@ frame_needed = 0, uses_anonymous_args = 0
 638              	.LVL100:
 639 0000 10B5     		push	{r4, lr}
 640              	.LCFI4:
 641              		.cfi_def_cfa_offset 8
 642              		.cfi_offset 4, -8
 643              		.cfi_offset 14, -4
 644              	.LVL101:
1426:Drivers/STM32L1xx_HAL_Driver/Src/stm32l1xx_hal_flash_ex.c ****   HAL_StatusTypeDef status = HAL_OK;
1427:Drivers/STM32L1xx_HAL_Driver/Src/stm32l1xx_hal_flash_ex.c ****   uint32_t tmp = 0U, tmp1 = 0U;
1428:Drivers/STM32L1xx_HAL_Driver/Src/stm32l1xx_hal_flash_ex.c **** 
1429:Drivers/STM32L1xx_HAL_Driver/Src/stm32l1xx_hal_flash_ex.c ****   /* Check the parameters */
1430:Drivers/STM32L1xx_HAL_Driver/Src/stm32l1xx_hal_flash_ex.c ****   assert_param(IS_OB_IWDG_SOURCE(OB_IWDG));
1431:Drivers/STM32L1xx_HAL_Driver/Src/stm32l1xx_hal_flash_ex.c ****   assert_param(IS_OB_STOP_SOURCE(OB_STOP));
ARM GAS  /tmp/ccAAsIoz.s 			page 38


1432:Drivers/STM32L1xx_HAL_Driver/Src/stm32l1xx_hal_flash_ex.c ****   assert_param(IS_OB_STDBY_SOURCE(OB_STDBY));
1433:Drivers/STM32L1xx_HAL_Driver/Src/stm32l1xx_hal_flash_ex.c **** 
1434:Drivers/STM32L1xx_HAL_Driver/Src/stm32l1xx_hal_flash_ex.c ****   /* Get the User Option byte register */
1435:Drivers/STM32L1xx_HAL_Driver/Src/stm32l1xx_hal_flash_ex.c ****   tmp1 = OB->USER & ((~(FLASH_OBR_IWDG_SW | FLASH_OBR_nRST_STOP | FLASH_OBR_nRST_STDBY)) >> 16U);
 645              		.loc 1 1435 0
 646 0002 0F4B     		ldr	r3, .L64
 647 0004 5B68     		ldr	r3, [r3, #4]
 648 0006 23F07003 		bic	r3, r3, #112
 649 000a 1B04     		lsls	r3, r3, #16
 650 000c 1B0C     		lsrs	r3, r3, #16
 651              	.LVL102:
1436:Drivers/STM32L1xx_HAL_Driver/Src/stm32l1xx_hal_flash_ex.c **** 
1437:Drivers/STM32L1xx_HAL_Driver/Src/stm32l1xx_hal_flash_ex.c ****   /* Calculate the user option byte to write */
1438:Drivers/STM32L1xx_HAL_Driver/Src/stm32l1xx_hal_flash_ex.c ****   tmp = (uint32_t)(((uint32_t)~((uint32_t)((uint32_t)(OB_IWDG) | (uint32_t)(OB_STOP) | (uint32_t)(O
 652              		.loc 1 1438 0
 653 000e 0143     		orrs	r1, r1, r0
 654              	.LVL103:
 655 0010 0A43     		orrs	r2, r2, r1
 656              	.LVL104:
 657 0012 1A43     		orrs	r2, r2, r3
 658 0014 D443     		mvns	r4, r2
 659              	.LVL105:
1439:Drivers/STM32L1xx_HAL_Driver/Src/stm32l1xx_hal_flash_ex.c ****   tmp |= ((uint32_t)(OB_IWDG) | ((uint32_t)OB_STOP) | (uint32_t)(OB_STDBY) | tmp1);
 660              		.loc 1 1439 0
 661 0016 42EA0444 		orr	r4, r2, r4, lsl #16
 662              	.LVL106:
1440:Drivers/STM32L1xx_HAL_Driver/Src/stm32l1xx_hal_flash_ex.c **** 
1441:Drivers/STM32L1xx_HAL_Driver/Src/stm32l1xx_hal_flash_ex.c ****   /* Wait for last operation to be completed */
1442:Drivers/STM32L1xx_HAL_Driver/Src/stm32l1xx_hal_flash_ex.c ****   status = FLASH_WaitForLastOperation(FLASH_TIMEOUT_VALUE);
 663              		.loc 1 1442 0
 664 001a 4CF25030 		movw	r0, #50000
 665              	.LVL107:
 666 001e FFF7FEFF 		bl	FLASH_WaitForLastOperation
 667              	.LVL108:
1443:Drivers/STM32L1xx_HAL_Driver/Src/stm32l1xx_hal_flash_ex.c **** 
1444:Drivers/STM32L1xx_HAL_Driver/Src/stm32l1xx_hal_flash_ex.c ****   if(status == HAL_OK)
 668              		.loc 1 1444 0
 669 0022 0346     		mov	r3, r0
 670 0024 08B1     		cbz	r0, .L63
 671              	.LVL109:
 672              	.L61:
1445:Drivers/STM32L1xx_HAL_Driver/Src/stm32l1xx_hal_flash_ex.c ****   {
1446:Drivers/STM32L1xx_HAL_Driver/Src/stm32l1xx_hal_flash_ex.c ****     /* Clean the error context */
1447:Drivers/STM32L1xx_HAL_Driver/Src/stm32l1xx_hal_flash_ex.c ****     pFlash.ErrorCode = HAL_FLASH_ERROR_NONE;
1448:Drivers/STM32L1xx_HAL_Driver/Src/stm32l1xx_hal_flash_ex.c **** 
1449:Drivers/STM32L1xx_HAL_Driver/Src/stm32l1xx_hal_flash_ex.c ****     /* Write the User Option Byte */
1450:Drivers/STM32L1xx_HAL_Driver/Src/stm32l1xx_hal_flash_ex.c ****     OB->USER = tmp;
1451:Drivers/STM32L1xx_HAL_Driver/Src/stm32l1xx_hal_flash_ex.c **** 
1452:Drivers/STM32L1xx_HAL_Driver/Src/stm32l1xx_hal_flash_ex.c ****     /* Wait for last operation to be completed */
1453:Drivers/STM32L1xx_HAL_Driver/Src/stm32l1xx_hal_flash_ex.c ****     status = FLASH_WaitForLastOperation(FLASH_TIMEOUT_VALUE);
1454:Drivers/STM32L1xx_HAL_Driver/Src/stm32l1xx_hal_flash_ex.c ****   }
1455:Drivers/STM32L1xx_HAL_Driver/Src/stm32l1xx_hal_flash_ex.c **** 
1456:Drivers/STM32L1xx_HAL_Driver/Src/stm32l1xx_hal_flash_ex.c ****   /* Return the Option Byte program Status */
1457:Drivers/STM32L1xx_HAL_Driver/Src/stm32l1xx_hal_flash_ex.c ****   return status;
1458:Drivers/STM32L1xx_HAL_Driver/Src/stm32l1xx_hal_flash_ex.c **** }
 673              		.loc 1 1458 0
 674 0026 1846     		mov	r0, r3
ARM GAS  /tmp/ccAAsIoz.s 			page 39


 675 0028 10BD     		pop	{r4, pc}
 676              	.LVL110:
 677              	.L63:
1447:Drivers/STM32L1xx_HAL_Driver/Src/stm32l1xx_hal_flash_ex.c **** 
 678              		.loc 1 1447 0
 679 002a 0022     		movs	r2, #0
 680 002c 054B     		ldr	r3, .L64+4
 681 002e 5A61     		str	r2, [r3, #20]
1450:Drivers/STM32L1xx_HAL_Driver/Src/stm32l1xx_hal_flash_ex.c **** 
 682              		.loc 1 1450 0
 683 0030 034B     		ldr	r3, .L64
 684 0032 5C60     		str	r4, [r3, #4]
1453:Drivers/STM32L1xx_HAL_Driver/Src/stm32l1xx_hal_flash_ex.c ****   }
 685              		.loc 1 1453 0
 686 0034 4CF25030 		movw	r0, #50000
 687              	.LVL111:
 688 0038 FFF7FEFF 		bl	FLASH_WaitForLastOperation
 689              	.LVL112:
 690 003c 0346     		mov	r3, r0
 691              	.LVL113:
 692 003e F2E7     		b	.L61
 693              	.L65:
 694              		.align	2
 695              	.L64:
 696 0040 0000F81F 		.word	536346624
 697 0044 00000000 		.word	pFlash
 698              		.cfi_endproc
 699              	.LFE94:
 701              		.section	.text.FLASH_OB_BORConfig,"ax",%progbits
 702              		.align	1
 703              		.syntax unified
 704              		.thumb
 705              		.thumb_func
 706              		.fpu softvfp
 708              	FLASH_OB_BORConfig:
 709              	.LFB85:
1023:Drivers/STM32L1xx_HAL_Driver/Src/stm32l1xx_hal_flash_ex.c ****   HAL_StatusTypeDef status = HAL_OK;
 710              		.loc 1 1023 0
 711              		.cfi_startproc
 712              		@ args = 0, pretend = 0, frame = 0
 713              		@ frame_needed = 0, uses_anonymous_args = 0
 714              	.LVL114:
 715 0000 10B5     		push	{r4, lr}
 716              	.LCFI5:
 717              		.cfi_def_cfa_offset 8
 718              		.cfi_offset 4, -8
 719              		.cfi_offset 14, -4
 720              	.LVL115:
1031:Drivers/STM32L1xx_HAL_Driver/Src/stm32l1xx_hal_flash_ex.c **** 
 721              		.loc 1 1031 0
 722 0002 0E4B     		ldr	r3, .L70
 723 0004 5B68     		ldr	r3, [r3, #4]
 724 0006 23F00F03 		bic	r3, r3, #15
 725 000a 1B04     		lsls	r3, r3, #16
 726 000c 1B0C     		lsrs	r3, r3, #16
 727              	.LVL116:
1034:Drivers/STM32L1xx_HAL_Driver/Src/stm32l1xx_hal_flash_ex.c ****   tmp |= (OB_BOR | tmp1);
ARM GAS  /tmp/ccAAsIoz.s 			page 40


 728              		.loc 1 1034 0
 729 000e 1843     		orrs	r0, r0, r3
 730              	.LVL117:
 731 0010 C443     		mvns	r4, r0
 732              	.LVL118:
1035:Drivers/STM32L1xx_HAL_Driver/Src/stm32l1xx_hal_flash_ex.c **** 
 733              		.loc 1 1035 0
 734 0012 40EA0444 		orr	r4, r0, r4, lsl #16
 735              	.LVL119:
1038:Drivers/STM32L1xx_HAL_Driver/Src/stm32l1xx_hal_flash_ex.c **** 
 736              		.loc 1 1038 0
 737 0016 4CF25030 		movw	r0, #50000
 738 001a FFF7FEFF 		bl	FLASH_WaitForLastOperation
 739              	.LVL120:
1040:Drivers/STM32L1xx_HAL_Driver/Src/stm32l1xx_hal_flash_ex.c ****   {
 740              		.loc 1 1040 0
 741 001e 0346     		mov	r3, r0
 742 0020 08B1     		cbz	r0, .L69
 743              	.LVL121:
 744              	.L67:
1054:Drivers/STM32L1xx_HAL_Driver/Src/stm32l1xx_hal_flash_ex.c **** 
 745              		.loc 1 1054 0
 746 0022 1846     		mov	r0, r3
 747 0024 10BD     		pop	{r4, pc}
 748              	.LVL122:
 749              	.L69:
1043:Drivers/STM32L1xx_HAL_Driver/Src/stm32l1xx_hal_flash_ex.c **** 
 750              		.loc 1 1043 0
 751 0026 0022     		movs	r2, #0
 752 0028 054B     		ldr	r3, .L70+4
 753 002a 5A61     		str	r2, [r3, #20]
1046:Drivers/STM32L1xx_HAL_Driver/Src/stm32l1xx_hal_flash_ex.c **** 
 754              		.loc 1 1046 0
 755 002c 034B     		ldr	r3, .L70
 756 002e 5C60     		str	r4, [r3, #4]
1049:Drivers/STM32L1xx_HAL_Driver/Src/stm32l1xx_hal_flash_ex.c ****   }
 757              		.loc 1 1049 0
 758 0030 4CF25030 		movw	r0, #50000
 759              	.LVL123:
 760 0034 FFF7FEFF 		bl	FLASH_WaitForLastOperation
 761              	.LVL124:
 762 0038 0346     		mov	r3, r0
 763              	.LVL125:
 764 003a F2E7     		b	.L67
 765              	.L71:
 766              		.align	2
 767              	.L70:
 768 003c 0000F81F 		.word	536346624
 769 0040 00000000 		.word	pFlash
 770              		.cfi_endproc
 771              	.LFE85:
 773              		.section	.text.FLASH_OB_BootConfig,"ax",%progbits
 774              		.align	1
 775              		.syntax unified
 776              		.thumb
 777              		.thumb_func
 778              		.fpu softvfp
ARM GAS  /tmp/ccAAsIoz.s 			page 41


 780              	FLASH_OB_BootConfig:
 781              	.LFB95:
1459:Drivers/STM32L1xx_HAL_Driver/Src/stm32l1xx_hal_flash_ex.c **** 
1460:Drivers/STM32L1xx_HAL_Driver/Src/stm32l1xx_hal_flash_ex.c **** #if defined(FLASH_OBR_nRST_BFB2)
1461:Drivers/STM32L1xx_HAL_Driver/Src/stm32l1xx_hal_flash_ex.c **** /**
1462:Drivers/STM32L1xx_HAL_Driver/Src/stm32l1xx_hal_flash_ex.c ****   * @brief  Configures to boot from Bank1 or Bank2.
1463:Drivers/STM32L1xx_HAL_Driver/Src/stm32l1xx_hal_flash_ex.c ****   * @param  OB_BOOT select the FLASH Bank to boot from.
1464:Drivers/STM32L1xx_HAL_Driver/Src/stm32l1xx_hal_flash_ex.c ****   *   This parameter can be one of the following values:
1465:Drivers/STM32L1xx_HAL_Driver/Src/stm32l1xx_hal_flash_ex.c ****   *     @arg @ref OB_BOOT_BANK2 At startup, if boot pins are set in boot from user Flash
1466:Drivers/STM32L1xx_HAL_Driver/Src/stm32l1xx_hal_flash_ex.c ****   *        position and this parameter is selected the device will boot from Bank2 or Bank1,
1467:Drivers/STM32L1xx_HAL_Driver/Src/stm32l1xx_hal_flash_ex.c ****   *        depending on the activation of the bank. The active banks are checked in
1468:Drivers/STM32L1xx_HAL_Driver/Src/stm32l1xx_hal_flash_ex.c ****   *        the following order: Bank2, followed by Bank1.
1469:Drivers/STM32L1xx_HAL_Driver/Src/stm32l1xx_hal_flash_ex.c ****   *        The active bank is recognized by the value programmed at the base address
1470:Drivers/STM32L1xx_HAL_Driver/Src/stm32l1xx_hal_flash_ex.c ****   *        of the respective bank (corresponding to the initial stack pointer value
1471:Drivers/STM32L1xx_HAL_Driver/Src/stm32l1xx_hal_flash_ex.c ****   *        in the interrupt vector table).
1472:Drivers/STM32L1xx_HAL_Driver/Src/stm32l1xx_hal_flash_ex.c ****   *     @arg @ref OB_BOOT_BANK1 At startup, if boot pins are set in boot from user Flash
1473:Drivers/STM32L1xx_HAL_Driver/Src/stm32l1xx_hal_flash_ex.c ****   *        position and this parameter is selected the device will boot from Bank1(Default).
1474:Drivers/STM32L1xx_HAL_Driver/Src/stm32l1xx_hal_flash_ex.c ****   *        For more information, please refer to AN2606 from www.st.com.
1475:Drivers/STM32L1xx_HAL_Driver/Src/stm32l1xx_hal_flash_ex.c ****   * @retval HAL status
1476:Drivers/STM32L1xx_HAL_Driver/Src/stm32l1xx_hal_flash_ex.c ****   */
1477:Drivers/STM32L1xx_HAL_Driver/Src/stm32l1xx_hal_flash_ex.c **** static HAL_StatusTypeDef FLASH_OB_BootConfig(uint8_t OB_BOOT)
1478:Drivers/STM32L1xx_HAL_Driver/Src/stm32l1xx_hal_flash_ex.c **** {
 782              		.loc 1 1478 0
 783              		.cfi_startproc
 784              		@ args = 0, pretend = 0, frame = 0
 785              		@ frame_needed = 0, uses_anonymous_args = 0
 786              	.LVL126:
 787 0000 10B5     		push	{r4, lr}
 788              	.LCFI6:
 789              		.cfi_def_cfa_offset 8
 790              		.cfi_offset 4, -8
 791              		.cfi_offset 14, -4
 792              	.LVL127:
1479:Drivers/STM32L1xx_HAL_Driver/Src/stm32l1xx_hal_flash_ex.c ****   HAL_StatusTypeDef status = HAL_OK;
1480:Drivers/STM32L1xx_HAL_Driver/Src/stm32l1xx_hal_flash_ex.c ****   uint32_t tmp = 0U, tmp1 = 0U;
1481:Drivers/STM32L1xx_HAL_Driver/Src/stm32l1xx_hal_flash_ex.c **** 
1482:Drivers/STM32L1xx_HAL_Driver/Src/stm32l1xx_hal_flash_ex.c ****   /* Check the parameters */
1483:Drivers/STM32L1xx_HAL_Driver/Src/stm32l1xx_hal_flash_ex.c ****   assert_param(IS_OB_BOOT_BANK(OB_BOOT));
1484:Drivers/STM32L1xx_HAL_Driver/Src/stm32l1xx_hal_flash_ex.c **** 
1485:Drivers/STM32L1xx_HAL_Driver/Src/stm32l1xx_hal_flash_ex.c ****   /* Get the User Option byte register  and BOR Level*/
1486:Drivers/STM32L1xx_HAL_Driver/Src/stm32l1xx_hal_flash_ex.c ****   tmp1 = OB->USER & ((~FLASH_OBR_nRST_BFB2) >> 16U);
 793              		.loc 1 1486 0
 794 0002 0E4B     		ldr	r3, .L76
 795 0004 5B68     		ldr	r3, [r3, #4]
 796 0006 23F08003 		bic	r3, r3, #128
 797 000a 1B04     		lsls	r3, r3, #16
 798 000c 1B0C     		lsrs	r3, r3, #16
 799              	.LVL128:
1487:Drivers/STM32L1xx_HAL_Driver/Src/stm32l1xx_hal_flash_ex.c **** 
1488:Drivers/STM32L1xx_HAL_Driver/Src/stm32l1xx_hal_flash_ex.c ****   /* Calculate the option byte to write */
1489:Drivers/STM32L1xx_HAL_Driver/Src/stm32l1xx_hal_flash_ex.c ****   tmp = (uint32_t)~(OB_BOOT | tmp1) << 16U;
 800              		.loc 1 1489 0
 801 000e 1843     		orrs	r0, r0, r3
 802              	.LVL129:
 803 0010 C443     		mvns	r4, r0
 804              	.LVL130:
1490:Drivers/STM32L1xx_HAL_Driver/Src/stm32l1xx_hal_flash_ex.c ****   tmp |= (OB_BOOT | tmp1);
ARM GAS  /tmp/ccAAsIoz.s 			page 42


 805              		.loc 1 1490 0
 806 0012 40EA0444 		orr	r4, r0, r4, lsl #16
 807              	.LVL131:
1491:Drivers/STM32L1xx_HAL_Driver/Src/stm32l1xx_hal_flash_ex.c **** 
1492:Drivers/STM32L1xx_HAL_Driver/Src/stm32l1xx_hal_flash_ex.c ****   /* Wait for last operation to be completed */
1493:Drivers/STM32L1xx_HAL_Driver/Src/stm32l1xx_hal_flash_ex.c ****   status = FLASH_WaitForLastOperation(FLASH_TIMEOUT_VALUE);
 808              		.loc 1 1493 0
 809 0016 4CF25030 		movw	r0, #50000
 810 001a FFF7FEFF 		bl	FLASH_WaitForLastOperation
 811              	.LVL132:
1494:Drivers/STM32L1xx_HAL_Driver/Src/stm32l1xx_hal_flash_ex.c **** 
1495:Drivers/STM32L1xx_HAL_Driver/Src/stm32l1xx_hal_flash_ex.c ****   if(status == HAL_OK)
 812              		.loc 1 1495 0
 813 001e 0346     		mov	r3, r0
 814 0020 08B1     		cbz	r0, .L75
 815              	.LVL133:
 816              	.L73:
1496:Drivers/STM32L1xx_HAL_Driver/Src/stm32l1xx_hal_flash_ex.c ****   {
1497:Drivers/STM32L1xx_HAL_Driver/Src/stm32l1xx_hal_flash_ex.c ****     /* Clean the error context */
1498:Drivers/STM32L1xx_HAL_Driver/Src/stm32l1xx_hal_flash_ex.c ****     pFlash.ErrorCode = HAL_FLASH_ERROR_NONE;
1499:Drivers/STM32L1xx_HAL_Driver/Src/stm32l1xx_hal_flash_ex.c **** 
1500:Drivers/STM32L1xx_HAL_Driver/Src/stm32l1xx_hal_flash_ex.c ****     /* Write the BOOT Option Byte */
1501:Drivers/STM32L1xx_HAL_Driver/Src/stm32l1xx_hal_flash_ex.c ****     OB->USER = tmp;
1502:Drivers/STM32L1xx_HAL_Driver/Src/stm32l1xx_hal_flash_ex.c **** 
1503:Drivers/STM32L1xx_HAL_Driver/Src/stm32l1xx_hal_flash_ex.c ****     /* Wait for last operation to be completed */
1504:Drivers/STM32L1xx_HAL_Driver/Src/stm32l1xx_hal_flash_ex.c ****     status = FLASH_WaitForLastOperation(FLASH_TIMEOUT_VALUE);
1505:Drivers/STM32L1xx_HAL_Driver/Src/stm32l1xx_hal_flash_ex.c ****   }
1506:Drivers/STM32L1xx_HAL_Driver/Src/stm32l1xx_hal_flash_ex.c **** 
1507:Drivers/STM32L1xx_HAL_Driver/Src/stm32l1xx_hal_flash_ex.c ****   /* Return the Option Byte program Status */
1508:Drivers/STM32L1xx_HAL_Driver/Src/stm32l1xx_hal_flash_ex.c ****   return status;
1509:Drivers/STM32L1xx_HAL_Driver/Src/stm32l1xx_hal_flash_ex.c **** }
 817              		.loc 1 1509 0
 818 0022 1846     		mov	r0, r3
 819 0024 10BD     		pop	{r4, pc}
 820              	.LVL134:
 821              	.L75:
1498:Drivers/STM32L1xx_HAL_Driver/Src/stm32l1xx_hal_flash_ex.c **** 
 822              		.loc 1 1498 0
 823 0026 0022     		movs	r2, #0
 824 0028 054B     		ldr	r3, .L76+4
 825 002a 5A61     		str	r2, [r3, #20]
1501:Drivers/STM32L1xx_HAL_Driver/Src/stm32l1xx_hal_flash_ex.c **** 
 826              		.loc 1 1501 0
 827 002c 034B     		ldr	r3, .L76
 828 002e 5C60     		str	r4, [r3, #4]
1504:Drivers/STM32L1xx_HAL_Driver/Src/stm32l1xx_hal_flash_ex.c ****   }
 829              		.loc 1 1504 0
 830 0030 4CF25030 		movw	r0, #50000
 831              	.LVL135:
 832 0034 FFF7FEFF 		bl	FLASH_WaitForLastOperation
 833              	.LVL136:
 834 0038 0346     		mov	r3, r0
 835              	.LVL137:
 836 003a F2E7     		b	.L73
 837              	.L77:
 838              		.align	2
 839              	.L76:
ARM GAS  /tmp/ccAAsIoz.s 			page 43


 840 003c 0000F81F 		.word	536346624
 841 0040 00000000 		.word	pFlash
 842              		.cfi_endproc
 843              	.LFE95:
 845              		.section	.text.FLASH_DATAEEPROM_ProgramWord,"ax",%progbits
 846              		.align	1
 847              		.syntax unified
 848              		.thumb
 849              		.thumb_func
 850              		.fpu softvfp
 852              	FLASH_DATAEEPROM_ProgramWord:
 853              	.LFB101:
1510:Drivers/STM32L1xx_HAL_Driver/Src/stm32l1xx_hal_flash_ex.c **** 
1511:Drivers/STM32L1xx_HAL_Driver/Src/stm32l1xx_hal_flash_ex.c **** #endif /* FLASH_OBR_nRST_BFB2 */
1512:Drivers/STM32L1xx_HAL_Driver/Src/stm32l1xx_hal_flash_ex.c **** 
1513:Drivers/STM32L1xx_HAL_Driver/Src/stm32l1xx_hal_flash_ex.c **** /*
1514:Drivers/STM32L1xx_HAL_Driver/Src/stm32l1xx_hal_flash_ex.c **** ==============================================================================
1515:Drivers/STM32L1xx_HAL_Driver/Src/stm32l1xx_hal_flash_ex.c ****               DATA
1516:Drivers/STM32L1xx_HAL_Driver/Src/stm32l1xx_hal_flash_ex.c **** ==============================================================================
1517:Drivers/STM32L1xx_HAL_Driver/Src/stm32l1xx_hal_flash_ex.c **** */
1518:Drivers/STM32L1xx_HAL_Driver/Src/stm32l1xx_hal_flash_ex.c **** 
1519:Drivers/STM32L1xx_HAL_Driver/Src/stm32l1xx_hal_flash_ex.c **** /**
1520:Drivers/STM32L1xx_HAL_Driver/Src/stm32l1xx_hal_flash_ex.c ****   * @brief  Write a Byte at a specified address in data memory.
1521:Drivers/STM32L1xx_HAL_Driver/Src/stm32l1xx_hal_flash_ex.c ****   * @param  Address specifies the address to be written.
1522:Drivers/STM32L1xx_HAL_Driver/Src/stm32l1xx_hal_flash_ex.c ****   * @param  Data specifies the data to be written.
1523:Drivers/STM32L1xx_HAL_Driver/Src/stm32l1xx_hal_flash_ex.c ****   * @note   This function assumes that the is data word is already erased.
1524:Drivers/STM32L1xx_HAL_Driver/Src/stm32l1xx_hal_flash_ex.c ****   * @retval HAL status
1525:Drivers/STM32L1xx_HAL_Driver/Src/stm32l1xx_hal_flash_ex.c ****   */
1526:Drivers/STM32L1xx_HAL_Driver/Src/stm32l1xx_hal_flash_ex.c **** static HAL_StatusTypeDef FLASH_DATAEEPROM_FastProgramByte(uint32_t Address, uint8_t Data)
1527:Drivers/STM32L1xx_HAL_Driver/Src/stm32l1xx_hal_flash_ex.c **** {
1528:Drivers/STM32L1xx_HAL_Driver/Src/stm32l1xx_hal_flash_ex.c ****   HAL_StatusTypeDef status = HAL_OK;
1529:Drivers/STM32L1xx_HAL_Driver/Src/stm32l1xx_hal_flash_ex.c **** #if defined(STM32L100xB) || defined(STM32L151xB) || defined(STM32L152xB)
1530:Drivers/STM32L1xx_HAL_Driver/Src/stm32l1xx_hal_flash_ex.c ****   uint32_t tmp = 0U, tmpaddr = 0U;
1531:Drivers/STM32L1xx_HAL_Driver/Src/stm32l1xx_hal_flash_ex.c **** #endif /* STM32L100xB || STM32L151xB || STM32L152xB  */
1532:Drivers/STM32L1xx_HAL_Driver/Src/stm32l1xx_hal_flash_ex.c **** 
1533:Drivers/STM32L1xx_HAL_Driver/Src/stm32l1xx_hal_flash_ex.c ****   /* Check the parameters */
1534:Drivers/STM32L1xx_HAL_Driver/Src/stm32l1xx_hal_flash_ex.c ****   assert_param(IS_FLASH_DATA_ADDRESS(Address));
1535:Drivers/STM32L1xx_HAL_Driver/Src/stm32l1xx_hal_flash_ex.c **** 
1536:Drivers/STM32L1xx_HAL_Driver/Src/stm32l1xx_hal_flash_ex.c ****   /* Wait for last operation to be completed */
1537:Drivers/STM32L1xx_HAL_Driver/Src/stm32l1xx_hal_flash_ex.c ****   status = FLASH_WaitForLastOperation(FLASH_TIMEOUT_VALUE);
1538:Drivers/STM32L1xx_HAL_Driver/Src/stm32l1xx_hal_flash_ex.c **** 
1539:Drivers/STM32L1xx_HAL_Driver/Src/stm32l1xx_hal_flash_ex.c ****   if(status == HAL_OK)
1540:Drivers/STM32L1xx_HAL_Driver/Src/stm32l1xx_hal_flash_ex.c ****   {
1541:Drivers/STM32L1xx_HAL_Driver/Src/stm32l1xx_hal_flash_ex.c ****     /* Clear the FTDW bit */
1542:Drivers/STM32L1xx_HAL_Driver/Src/stm32l1xx_hal_flash_ex.c ****     CLEAR_BIT(FLASH->PECR, FLASH_PECR_FTDW);
1543:Drivers/STM32L1xx_HAL_Driver/Src/stm32l1xx_hal_flash_ex.c **** 
1544:Drivers/STM32L1xx_HAL_Driver/Src/stm32l1xx_hal_flash_ex.c **** #if defined(STM32L100xB) || defined(STM32L151xB) || defined(STM32L152xB)
1545:Drivers/STM32L1xx_HAL_Driver/Src/stm32l1xx_hal_flash_ex.c ****     /* Possible only on Cat1 devices */
1546:Drivers/STM32L1xx_HAL_Driver/Src/stm32l1xx_hal_flash_ex.c ****     if(Data != (uint8_t)0x00U)
1547:Drivers/STM32L1xx_HAL_Driver/Src/stm32l1xx_hal_flash_ex.c ****     {
1548:Drivers/STM32L1xx_HAL_Driver/Src/stm32l1xx_hal_flash_ex.c ****       /* If the previous operation is completed, proceed to write the new Data */
1549:Drivers/STM32L1xx_HAL_Driver/Src/stm32l1xx_hal_flash_ex.c ****       *(__IO uint8_t *)Address = Data;
1550:Drivers/STM32L1xx_HAL_Driver/Src/stm32l1xx_hal_flash_ex.c **** 
1551:Drivers/STM32L1xx_HAL_Driver/Src/stm32l1xx_hal_flash_ex.c ****       /* Wait for last operation to be completed */
1552:Drivers/STM32L1xx_HAL_Driver/Src/stm32l1xx_hal_flash_ex.c ****       status = FLASH_WaitForLastOperation(FLASH_TIMEOUT_VALUE);
1553:Drivers/STM32L1xx_HAL_Driver/Src/stm32l1xx_hal_flash_ex.c ****     }
1554:Drivers/STM32L1xx_HAL_Driver/Src/stm32l1xx_hal_flash_ex.c ****     else
ARM GAS  /tmp/ccAAsIoz.s 			page 44


1555:Drivers/STM32L1xx_HAL_Driver/Src/stm32l1xx_hal_flash_ex.c ****     {
1556:Drivers/STM32L1xx_HAL_Driver/Src/stm32l1xx_hal_flash_ex.c ****       tmpaddr = Address & 0xFFFFFFFCU;
1557:Drivers/STM32L1xx_HAL_Driver/Src/stm32l1xx_hal_flash_ex.c ****       tmp = * (__IO uint32_t *) tmpaddr;
1558:Drivers/STM32L1xx_HAL_Driver/Src/stm32l1xx_hal_flash_ex.c ****       tmpaddr = 0xFFU << ((uint32_t) (0x8U * (Address & 0x3U)));
1559:Drivers/STM32L1xx_HAL_Driver/Src/stm32l1xx_hal_flash_ex.c ****       tmp &= ~tmpaddr;
1560:Drivers/STM32L1xx_HAL_Driver/Src/stm32l1xx_hal_flash_ex.c ****       status = HAL_FLASHEx_DATAEEPROM_Erase(FLASH_TYPEERASEDATA_WORD, Address & 0xFFFFFFFCU);
1561:Drivers/STM32L1xx_HAL_Driver/Src/stm32l1xx_hal_flash_ex.c ****       /* Process Unlocked */
1562:Drivers/STM32L1xx_HAL_Driver/Src/stm32l1xx_hal_flash_ex.c ****       __HAL_UNLOCK(&pFlash);
1563:Drivers/STM32L1xx_HAL_Driver/Src/stm32l1xx_hal_flash_ex.c ****       status = HAL_FLASHEx_DATAEEPROM_Program(FLASH_TYPEPROGRAMDATA_FASTWORD, (Address & 0xFFFFFFFC
1564:Drivers/STM32L1xx_HAL_Driver/Src/stm32l1xx_hal_flash_ex.c ****       /* Process Locked */
1565:Drivers/STM32L1xx_HAL_Driver/Src/stm32l1xx_hal_flash_ex.c ****       __HAL_LOCK(&pFlash);
1566:Drivers/STM32L1xx_HAL_Driver/Src/stm32l1xx_hal_flash_ex.c ****     }
1567:Drivers/STM32L1xx_HAL_Driver/Src/stm32l1xx_hal_flash_ex.c **** #else /*!Cat1*/
1568:Drivers/STM32L1xx_HAL_Driver/Src/stm32l1xx_hal_flash_ex.c ****     /* If the previous operation is completed, proceed to write the new Data */
1569:Drivers/STM32L1xx_HAL_Driver/Src/stm32l1xx_hal_flash_ex.c ****     *(__IO uint8_t *)Address = Data;
1570:Drivers/STM32L1xx_HAL_Driver/Src/stm32l1xx_hal_flash_ex.c **** 
1571:Drivers/STM32L1xx_HAL_Driver/Src/stm32l1xx_hal_flash_ex.c ****     /* Wait for last operation to be completed */
1572:Drivers/STM32L1xx_HAL_Driver/Src/stm32l1xx_hal_flash_ex.c ****     status = FLASH_WaitForLastOperation(FLASH_TIMEOUT_VALUE);
1573:Drivers/STM32L1xx_HAL_Driver/Src/stm32l1xx_hal_flash_ex.c **** #endif /* STM32L100xB || STM32L151xB || STM32L152xB  */
1574:Drivers/STM32L1xx_HAL_Driver/Src/stm32l1xx_hal_flash_ex.c ****   }
1575:Drivers/STM32L1xx_HAL_Driver/Src/stm32l1xx_hal_flash_ex.c ****   /* Return the Write Status */
1576:Drivers/STM32L1xx_HAL_Driver/Src/stm32l1xx_hal_flash_ex.c ****   return status;
1577:Drivers/STM32L1xx_HAL_Driver/Src/stm32l1xx_hal_flash_ex.c **** }
1578:Drivers/STM32L1xx_HAL_Driver/Src/stm32l1xx_hal_flash_ex.c **** 
1579:Drivers/STM32L1xx_HAL_Driver/Src/stm32l1xx_hal_flash_ex.c **** /**
1580:Drivers/STM32L1xx_HAL_Driver/Src/stm32l1xx_hal_flash_ex.c ****   * @brief  Writes a half word at a specified address in data memory.
1581:Drivers/STM32L1xx_HAL_Driver/Src/stm32l1xx_hal_flash_ex.c ****   * @param  Address specifies the address to be written.
1582:Drivers/STM32L1xx_HAL_Driver/Src/stm32l1xx_hal_flash_ex.c ****   * @param  Data specifies the data to be written.
1583:Drivers/STM32L1xx_HAL_Driver/Src/stm32l1xx_hal_flash_ex.c ****   * @note   This function assumes that the is data word is already erased.
1584:Drivers/STM32L1xx_HAL_Driver/Src/stm32l1xx_hal_flash_ex.c ****   * @retval HAL status
1585:Drivers/STM32L1xx_HAL_Driver/Src/stm32l1xx_hal_flash_ex.c ****   */
1586:Drivers/STM32L1xx_HAL_Driver/Src/stm32l1xx_hal_flash_ex.c **** static HAL_StatusTypeDef FLASH_DATAEEPROM_FastProgramHalfWord(uint32_t Address, uint16_t Data)
1587:Drivers/STM32L1xx_HAL_Driver/Src/stm32l1xx_hal_flash_ex.c **** {
1588:Drivers/STM32L1xx_HAL_Driver/Src/stm32l1xx_hal_flash_ex.c ****   HAL_StatusTypeDef status = HAL_OK;
1589:Drivers/STM32L1xx_HAL_Driver/Src/stm32l1xx_hal_flash_ex.c **** #if defined(STM32L100xB) || defined(STM32L151xB) || defined(STM32L152xB)
1590:Drivers/STM32L1xx_HAL_Driver/Src/stm32l1xx_hal_flash_ex.c ****   uint32_t tmp = 0U, tmpaddr = 0U;
1591:Drivers/STM32L1xx_HAL_Driver/Src/stm32l1xx_hal_flash_ex.c **** #endif /* STM32L100xB || STM32L151xB || STM32L152xB  */
1592:Drivers/STM32L1xx_HAL_Driver/Src/stm32l1xx_hal_flash_ex.c **** 
1593:Drivers/STM32L1xx_HAL_Driver/Src/stm32l1xx_hal_flash_ex.c ****   /* Check the parameters */
1594:Drivers/STM32L1xx_HAL_Driver/Src/stm32l1xx_hal_flash_ex.c ****   assert_param(IS_FLASH_DATA_ADDRESS(Address));
1595:Drivers/STM32L1xx_HAL_Driver/Src/stm32l1xx_hal_flash_ex.c **** 
1596:Drivers/STM32L1xx_HAL_Driver/Src/stm32l1xx_hal_flash_ex.c ****   /* Wait for last operation to be completed */
1597:Drivers/STM32L1xx_HAL_Driver/Src/stm32l1xx_hal_flash_ex.c ****   status = FLASH_WaitForLastOperation(FLASH_TIMEOUT_VALUE);
1598:Drivers/STM32L1xx_HAL_Driver/Src/stm32l1xx_hal_flash_ex.c **** 
1599:Drivers/STM32L1xx_HAL_Driver/Src/stm32l1xx_hal_flash_ex.c ****   if(status == HAL_OK)
1600:Drivers/STM32L1xx_HAL_Driver/Src/stm32l1xx_hal_flash_ex.c ****   {
1601:Drivers/STM32L1xx_HAL_Driver/Src/stm32l1xx_hal_flash_ex.c ****     /* Clear the FTDW bit */
1602:Drivers/STM32L1xx_HAL_Driver/Src/stm32l1xx_hal_flash_ex.c ****     CLEAR_BIT(FLASH->PECR, FLASH_PECR_FTDW);
1603:Drivers/STM32L1xx_HAL_Driver/Src/stm32l1xx_hal_flash_ex.c **** 
1604:Drivers/STM32L1xx_HAL_Driver/Src/stm32l1xx_hal_flash_ex.c **** #if defined(STM32L100xB) || defined(STM32L151xB) || defined(STM32L152xB)
1605:Drivers/STM32L1xx_HAL_Driver/Src/stm32l1xx_hal_flash_ex.c ****     /* Possible only on Cat1 devices */
1606:Drivers/STM32L1xx_HAL_Driver/Src/stm32l1xx_hal_flash_ex.c ****     if(Data != (uint16_t)0x0000U)
1607:Drivers/STM32L1xx_HAL_Driver/Src/stm32l1xx_hal_flash_ex.c ****     {
1608:Drivers/STM32L1xx_HAL_Driver/Src/stm32l1xx_hal_flash_ex.c ****       /* If the previous operation is completed, proceed to write the new data */
1609:Drivers/STM32L1xx_HAL_Driver/Src/stm32l1xx_hal_flash_ex.c ****       *(__IO uint16_t *)Address = Data;
1610:Drivers/STM32L1xx_HAL_Driver/Src/stm32l1xx_hal_flash_ex.c **** 
1611:Drivers/STM32L1xx_HAL_Driver/Src/stm32l1xx_hal_flash_ex.c ****       /* Wait for last operation to be completed */
ARM GAS  /tmp/ccAAsIoz.s 			page 45


1612:Drivers/STM32L1xx_HAL_Driver/Src/stm32l1xx_hal_flash_ex.c ****       status = FLASH_WaitForLastOperation(FLASH_TIMEOUT_VALUE);
1613:Drivers/STM32L1xx_HAL_Driver/Src/stm32l1xx_hal_flash_ex.c ****     }
1614:Drivers/STM32L1xx_HAL_Driver/Src/stm32l1xx_hal_flash_ex.c ****     else
1615:Drivers/STM32L1xx_HAL_Driver/Src/stm32l1xx_hal_flash_ex.c ****     {
1616:Drivers/STM32L1xx_HAL_Driver/Src/stm32l1xx_hal_flash_ex.c ****       /* Process Unlocked */
1617:Drivers/STM32L1xx_HAL_Driver/Src/stm32l1xx_hal_flash_ex.c ****       __HAL_UNLOCK(&pFlash);
1618:Drivers/STM32L1xx_HAL_Driver/Src/stm32l1xx_hal_flash_ex.c ****       if((Address & 0x3U) != 0x3U)
1619:Drivers/STM32L1xx_HAL_Driver/Src/stm32l1xx_hal_flash_ex.c ****       {
1620:Drivers/STM32L1xx_HAL_Driver/Src/stm32l1xx_hal_flash_ex.c ****         tmpaddr = Address & 0xFFFFFFFCU;
1621:Drivers/STM32L1xx_HAL_Driver/Src/stm32l1xx_hal_flash_ex.c ****         tmp = * (__IO uint32_t *) tmpaddr;
1622:Drivers/STM32L1xx_HAL_Driver/Src/stm32l1xx_hal_flash_ex.c ****         tmpaddr = 0xFFFFU << ((uint32_t) (0x8U * (Address & 0x3U)));
1623:Drivers/STM32L1xx_HAL_Driver/Src/stm32l1xx_hal_flash_ex.c ****         tmp &= ~tmpaddr;
1624:Drivers/STM32L1xx_HAL_Driver/Src/stm32l1xx_hal_flash_ex.c ****         status = HAL_FLASHEx_DATAEEPROM_Erase(FLASH_TYPEERASEDATA_WORD, Address & 0xFFFFFFFCU);
1625:Drivers/STM32L1xx_HAL_Driver/Src/stm32l1xx_hal_flash_ex.c ****         status = HAL_FLASHEx_DATAEEPROM_Program(FLASH_TYPEPROGRAMDATA_FASTWORD, (Address & 0xFFFFFF
1626:Drivers/STM32L1xx_HAL_Driver/Src/stm32l1xx_hal_flash_ex.c ****       }
1627:Drivers/STM32L1xx_HAL_Driver/Src/stm32l1xx_hal_flash_ex.c ****       else
1628:Drivers/STM32L1xx_HAL_Driver/Src/stm32l1xx_hal_flash_ex.c ****       {
1629:Drivers/STM32L1xx_HAL_Driver/Src/stm32l1xx_hal_flash_ex.c ****         HAL_FLASHEx_DATAEEPROM_Program(FLASH_TYPEPROGRAMDATA_FASTBYTE, Address, 0x00U);
1630:Drivers/STM32L1xx_HAL_Driver/Src/stm32l1xx_hal_flash_ex.c ****         HAL_FLASHEx_DATAEEPROM_Program(FLASH_TYPEPROGRAMDATA_FASTBYTE, Address + 1U, 0x00U);
1631:Drivers/STM32L1xx_HAL_Driver/Src/stm32l1xx_hal_flash_ex.c ****       }
1632:Drivers/STM32L1xx_HAL_Driver/Src/stm32l1xx_hal_flash_ex.c ****       /* Process Locked */
1633:Drivers/STM32L1xx_HAL_Driver/Src/stm32l1xx_hal_flash_ex.c ****       __HAL_LOCK(&pFlash);
1634:Drivers/STM32L1xx_HAL_Driver/Src/stm32l1xx_hal_flash_ex.c ****     }
1635:Drivers/STM32L1xx_HAL_Driver/Src/stm32l1xx_hal_flash_ex.c **** #else /* !Cat1 */
1636:Drivers/STM32L1xx_HAL_Driver/Src/stm32l1xx_hal_flash_ex.c ****     /* If the previous operation is completed, proceed to write the new data */
1637:Drivers/STM32L1xx_HAL_Driver/Src/stm32l1xx_hal_flash_ex.c ****     *(__IO uint16_t *)Address = Data;
1638:Drivers/STM32L1xx_HAL_Driver/Src/stm32l1xx_hal_flash_ex.c **** 
1639:Drivers/STM32L1xx_HAL_Driver/Src/stm32l1xx_hal_flash_ex.c ****     /* Wait for last operation to be completed */
1640:Drivers/STM32L1xx_HAL_Driver/Src/stm32l1xx_hal_flash_ex.c ****     status = FLASH_WaitForLastOperation(FLASH_TIMEOUT_VALUE);
1641:Drivers/STM32L1xx_HAL_Driver/Src/stm32l1xx_hal_flash_ex.c **** #endif /* STM32L100xB || STM32L151xB || STM32L152xB  */
1642:Drivers/STM32L1xx_HAL_Driver/Src/stm32l1xx_hal_flash_ex.c ****   }
1643:Drivers/STM32L1xx_HAL_Driver/Src/stm32l1xx_hal_flash_ex.c ****   /* Return the Write Status */
1644:Drivers/STM32L1xx_HAL_Driver/Src/stm32l1xx_hal_flash_ex.c ****   return status;
1645:Drivers/STM32L1xx_HAL_Driver/Src/stm32l1xx_hal_flash_ex.c **** }
1646:Drivers/STM32L1xx_HAL_Driver/Src/stm32l1xx_hal_flash_ex.c **** 
1647:Drivers/STM32L1xx_HAL_Driver/Src/stm32l1xx_hal_flash_ex.c **** /**
1648:Drivers/STM32L1xx_HAL_Driver/Src/stm32l1xx_hal_flash_ex.c ****   * @brief  Programs a word at a specified address in data memory.
1649:Drivers/STM32L1xx_HAL_Driver/Src/stm32l1xx_hal_flash_ex.c ****   * @param  Address specifies the address to be written.
1650:Drivers/STM32L1xx_HAL_Driver/Src/stm32l1xx_hal_flash_ex.c ****   * @param  Data specifies the data to be written.
1651:Drivers/STM32L1xx_HAL_Driver/Src/stm32l1xx_hal_flash_ex.c ****   * @note   This function assumes that the is data word is already erased.
1652:Drivers/STM32L1xx_HAL_Driver/Src/stm32l1xx_hal_flash_ex.c ****   * @retval HAL status
1653:Drivers/STM32L1xx_HAL_Driver/Src/stm32l1xx_hal_flash_ex.c ****   */
1654:Drivers/STM32L1xx_HAL_Driver/Src/stm32l1xx_hal_flash_ex.c **** static HAL_StatusTypeDef FLASH_DATAEEPROM_FastProgramWord(uint32_t Address, uint32_t Data)
1655:Drivers/STM32L1xx_HAL_Driver/Src/stm32l1xx_hal_flash_ex.c **** {
1656:Drivers/STM32L1xx_HAL_Driver/Src/stm32l1xx_hal_flash_ex.c ****   HAL_StatusTypeDef status = HAL_OK;
1657:Drivers/STM32L1xx_HAL_Driver/Src/stm32l1xx_hal_flash_ex.c **** 
1658:Drivers/STM32L1xx_HAL_Driver/Src/stm32l1xx_hal_flash_ex.c ****   /* Check the parameters */
1659:Drivers/STM32L1xx_HAL_Driver/Src/stm32l1xx_hal_flash_ex.c ****   assert_param(IS_FLASH_DATA_ADDRESS(Address));
1660:Drivers/STM32L1xx_HAL_Driver/Src/stm32l1xx_hal_flash_ex.c **** 
1661:Drivers/STM32L1xx_HAL_Driver/Src/stm32l1xx_hal_flash_ex.c ****   /* Wait for last operation to be completed */
1662:Drivers/STM32L1xx_HAL_Driver/Src/stm32l1xx_hal_flash_ex.c ****   status = FLASH_WaitForLastOperation(FLASH_TIMEOUT_VALUE);
1663:Drivers/STM32L1xx_HAL_Driver/Src/stm32l1xx_hal_flash_ex.c **** 
1664:Drivers/STM32L1xx_HAL_Driver/Src/stm32l1xx_hal_flash_ex.c ****   if(status == HAL_OK)
1665:Drivers/STM32L1xx_HAL_Driver/Src/stm32l1xx_hal_flash_ex.c ****   {
1666:Drivers/STM32L1xx_HAL_Driver/Src/stm32l1xx_hal_flash_ex.c ****     /* Clear the FTDW bit */
1667:Drivers/STM32L1xx_HAL_Driver/Src/stm32l1xx_hal_flash_ex.c ****     CLEAR_BIT(FLASH->PECR, FLASH_PECR_FTDW);
1668:Drivers/STM32L1xx_HAL_Driver/Src/stm32l1xx_hal_flash_ex.c **** 
ARM GAS  /tmp/ccAAsIoz.s 			page 46


1669:Drivers/STM32L1xx_HAL_Driver/Src/stm32l1xx_hal_flash_ex.c ****     /* If the previous operation is completed, proceed to program the new data */
1670:Drivers/STM32L1xx_HAL_Driver/Src/stm32l1xx_hal_flash_ex.c ****     *(__IO uint32_t *)Address = Data;
1671:Drivers/STM32L1xx_HAL_Driver/Src/stm32l1xx_hal_flash_ex.c **** 
1672:Drivers/STM32L1xx_HAL_Driver/Src/stm32l1xx_hal_flash_ex.c ****     /* Wait for last operation to be completed */
1673:Drivers/STM32L1xx_HAL_Driver/Src/stm32l1xx_hal_flash_ex.c ****     status = FLASH_WaitForLastOperation(FLASH_TIMEOUT_VALUE);
1674:Drivers/STM32L1xx_HAL_Driver/Src/stm32l1xx_hal_flash_ex.c ****   }
1675:Drivers/STM32L1xx_HAL_Driver/Src/stm32l1xx_hal_flash_ex.c ****   /* Return the Write Status */
1676:Drivers/STM32L1xx_HAL_Driver/Src/stm32l1xx_hal_flash_ex.c ****   return status;
1677:Drivers/STM32L1xx_HAL_Driver/Src/stm32l1xx_hal_flash_ex.c **** }
1678:Drivers/STM32L1xx_HAL_Driver/Src/stm32l1xx_hal_flash_ex.c **** 
1679:Drivers/STM32L1xx_HAL_Driver/Src/stm32l1xx_hal_flash_ex.c **** /**
1680:Drivers/STM32L1xx_HAL_Driver/Src/stm32l1xx_hal_flash_ex.c ****   * @brief  Write a Byte at a specified address in data memory without erase.
1681:Drivers/STM32L1xx_HAL_Driver/Src/stm32l1xx_hal_flash_ex.c ****   * @param  Address specifies the address to be written.
1682:Drivers/STM32L1xx_HAL_Driver/Src/stm32l1xx_hal_flash_ex.c ****   * @param  Data specifies the data to be written.
1683:Drivers/STM32L1xx_HAL_Driver/Src/stm32l1xx_hal_flash_ex.c ****   * @retval HAL status
1684:Drivers/STM32L1xx_HAL_Driver/Src/stm32l1xx_hal_flash_ex.c ****   */
1685:Drivers/STM32L1xx_HAL_Driver/Src/stm32l1xx_hal_flash_ex.c **** static HAL_StatusTypeDef FLASH_DATAEEPROM_ProgramByte(uint32_t Address, uint8_t Data)
1686:Drivers/STM32L1xx_HAL_Driver/Src/stm32l1xx_hal_flash_ex.c **** {
1687:Drivers/STM32L1xx_HAL_Driver/Src/stm32l1xx_hal_flash_ex.c ****   HAL_StatusTypeDef status = HAL_OK;
1688:Drivers/STM32L1xx_HAL_Driver/Src/stm32l1xx_hal_flash_ex.c **** #if defined(STM32L100xB) || defined(STM32L151xB) || defined(STM32L152xB)
1689:Drivers/STM32L1xx_HAL_Driver/Src/stm32l1xx_hal_flash_ex.c ****   uint32_t tmp = 0U, tmpaddr = 0U;
1690:Drivers/STM32L1xx_HAL_Driver/Src/stm32l1xx_hal_flash_ex.c **** #endif /* STM32L100xB || STM32L151xB || STM32L152xB  */
1691:Drivers/STM32L1xx_HAL_Driver/Src/stm32l1xx_hal_flash_ex.c **** 
1692:Drivers/STM32L1xx_HAL_Driver/Src/stm32l1xx_hal_flash_ex.c ****   /* Check the parameters */
1693:Drivers/STM32L1xx_HAL_Driver/Src/stm32l1xx_hal_flash_ex.c ****   assert_param(IS_FLASH_DATA_ADDRESS(Address));
1694:Drivers/STM32L1xx_HAL_Driver/Src/stm32l1xx_hal_flash_ex.c **** 
1695:Drivers/STM32L1xx_HAL_Driver/Src/stm32l1xx_hal_flash_ex.c ****   /* Wait for last operation to be completed */
1696:Drivers/STM32L1xx_HAL_Driver/Src/stm32l1xx_hal_flash_ex.c ****   status = FLASH_WaitForLastOperation(FLASH_TIMEOUT_VALUE);
1697:Drivers/STM32L1xx_HAL_Driver/Src/stm32l1xx_hal_flash_ex.c **** 
1698:Drivers/STM32L1xx_HAL_Driver/Src/stm32l1xx_hal_flash_ex.c ****   if(status == HAL_OK)
1699:Drivers/STM32L1xx_HAL_Driver/Src/stm32l1xx_hal_flash_ex.c ****   {
1700:Drivers/STM32L1xx_HAL_Driver/Src/stm32l1xx_hal_flash_ex.c **** #if defined(STM32L100xB) || defined(STM32L151xB) || defined(STM32L152xB)
1701:Drivers/STM32L1xx_HAL_Driver/Src/stm32l1xx_hal_flash_ex.c ****     if(Data != (uint8_t) 0x00U)
1702:Drivers/STM32L1xx_HAL_Driver/Src/stm32l1xx_hal_flash_ex.c ****     {
1703:Drivers/STM32L1xx_HAL_Driver/Src/stm32l1xx_hal_flash_ex.c ****       *(__IO uint8_t *)Address = Data;
1704:Drivers/STM32L1xx_HAL_Driver/Src/stm32l1xx_hal_flash_ex.c **** 
1705:Drivers/STM32L1xx_HAL_Driver/Src/stm32l1xx_hal_flash_ex.c ****       /* Wait for last operation to be completed */
1706:Drivers/STM32L1xx_HAL_Driver/Src/stm32l1xx_hal_flash_ex.c ****       status = FLASH_WaitForLastOperation(FLASH_TIMEOUT_VALUE);
1707:Drivers/STM32L1xx_HAL_Driver/Src/stm32l1xx_hal_flash_ex.c **** 
1708:Drivers/STM32L1xx_HAL_Driver/Src/stm32l1xx_hal_flash_ex.c ****     }
1709:Drivers/STM32L1xx_HAL_Driver/Src/stm32l1xx_hal_flash_ex.c ****     else
1710:Drivers/STM32L1xx_HAL_Driver/Src/stm32l1xx_hal_flash_ex.c ****     {
1711:Drivers/STM32L1xx_HAL_Driver/Src/stm32l1xx_hal_flash_ex.c ****       tmpaddr = Address & 0xFFFFFFFCU;
1712:Drivers/STM32L1xx_HAL_Driver/Src/stm32l1xx_hal_flash_ex.c ****       tmp = * (__IO uint32_t *) tmpaddr;
1713:Drivers/STM32L1xx_HAL_Driver/Src/stm32l1xx_hal_flash_ex.c ****       tmpaddr = 0xFFU << ((uint32_t) (0x8U * (Address & 0x3U)));
1714:Drivers/STM32L1xx_HAL_Driver/Src/stm32l1xx_hal_flash_ex.c ****       tmp &= ~tmpaddr;
1715:Drivers/STM32L1xx_HAL_Driver/Src/stm32l1xx_hal_flash_ex.c ****       status = HAL_FLASHEx_DATAEEPROM_Erase(FLASH_TYPEERASEDATA_WORD, Address & 0xFFFFFFFCU);
1716:Drivers/STM32L1xx_HAL_Driver/Src/stm32l1xx_hal_flash_ex.c ****       /* Process Unlocked */
1717:Drivers/STM32L1xx_HAL_Driver/Src/stm32l1xx_hal_flash_ex.c ****       __HAL_UNLOCK(&pFlash);
1718:Drivers/STM32L1xx_HAL_Driver/Src/stm32l1xx_hal_flash_ex.c ****       status = HAL_FLASHEx_DATAEEPROM_Program(FLASH_TYPEPROGRAMDATA_FASTWORD, (Address & 0xFFFFFFFC
1719:Drivers/STM32L1xx_HAL_Driver/Src/stm32l1xx_hal_flash_ex.c ****       /* Process Locked */
1720:Drivers/STM32L1xx_HAL_Driver/Src/stm32l1xx_hal_flash_ex.c ****       __HAL_LOCK(&pFlash);
1721:Drivers/STM32L1xx_HAL_Driver/Src/stm32l1xx_hal_flash_ex.c ****     }
1722:Drivers/STM32L1xx_HAL_Driver/Src/stm32l1xx_hal_flash_ex.c **** #else /* Not Cat1*/
1723:Drivers/STM32L1xx_HAL_Driver/Src/stm32l1xx_hal_flash_ex.c ****     *(__IO uint8_t *)Address = Data;
1724:Drivers/STM32L1xx_HAL_Driver/Src/stm32l1xx_hal_flash_ex.c **** 
1725:Drivers/STM32L1xx_HAL_Driver/Src/stm32l1xx_hal_flash_ex.c ****     /* Wait for last operation to be completed */
ARM GAS  /tmp/ccAAsIoz.s 			page 47


1726:Drivers/STM32L1xx_HAL_Driver/Src/stm32l1xx_hal_flash_ex.c ****     status = FLASH_WaitForLastOperation(FLASH_TIMEOUT_VALUE);
1727:Drivers/STM32L1xx_HAL_Driver/Src/stm32l1xx_hal_flash_ex.c **** #endif /* STM32L100xB || STM32L151xB || STM32L152xB  */
1728:Drivers/STM32L1xx_HAL_Driver/Src/stm32l1xx_hal_flash_ex.c ****   }
1729:Drivers/STM32L1xx_HAL_Driver/Src/stm32l1xx_hal_flash_ex.c ****   /* Return the Write Status */
1730:Drivers/STM32L1xx_HAL_Driver/Src/stm32l1xx_hal_flash_ex.c ****   return status;
1731:Drivers/STM32L1xx_HAL_Driver/Src/stm32l1xx_hal_flash_ex.c **** }
1732:Drivers/STM32L1xx_HAL_Driver/Src/stm32l1xx_hal_flash_ex.c **** 
1733:Drivers/STM32L1xx_HAL_Driver/Src/stm32l1xx_hal_flash_ex.c **** /**
1734:Drivers/STM32L1xx_HAL_Driver/Src/stm32l1xx_hal_flash_ex.c ****   * @brief  Writes a half word at a specified address in data memory without erase.
1735:Drivers/STM32L1xx_HAL_Driver/Src/stm32l1xx_hal_flash_ex.c ****   * @param  Address specifies the address to be written.
1736:Drivers/STM32L1xx_HAL_Driver/Src/stm32l1xx_hal_flash_ex.c ****   * @param  Data specifies the data to be written.
1737:Drivers/STM32L1xx_HAL_Driver/Src/stm32l1xx_hal_flash_ex.c ****   * @retval HAL status
1738:Drivers/STM32L1xx_HAL_Driver/Src/stm32l1xx_hal_flash_ex.c ****   */
1739:Drivers/STM32L1xx_HAL_Driver/Src/stm32l1xx_hal_flash_ex.c **** static HAL_StatusTypeDef FLASH_DATAEEPROM_ProgramHalfWord(uint32_t Address, uint16_t Data)
1740:Drivers/STM32L1xx_HAL_Driver/Src/stm32l1xx_hal_flash_ex.c **** {
1741:Drivers/STM32L1xx_HAL_Driver/Src/stm32l1xx_hal_flash_ex.c ****   HAL_StatusTypeDef status = HAL_OK;
1742:Drivers/STM32L1xx_HAL_Driver/Src/stm32l1xx_hal_flash_ex.c **** #if defined(STM32L100xB) || defined(STM32L151xB) || defined(STM32L152xB)
1743:Drivers/STM32L1xx_HAL_Driver/Src/stm32l1xx_hal_flash_ex.c ****   uint32_t tmp = 0U, tmpaddr = 0U;
1744:Drivers/STM32L1xx_HAL_Driver/Src/stm32l1xx_hal_flash_ex.c **** #endif /* STM32L100xB || STM32L151xB || STM32L152xB  */
1745:Drivers/STM32L1xx_HAL_Driver/Src/stm32l1xx_hal_flash_ex.c **** 
1746:Drivers/STM32L1xx_HAL_Driver/Src/stm32l1xx_hal_flash_ex.c ****   /* Check the parameters */
1747:Drivers/STM32L1xx_HAL_Driver/Src/stm32l1xx_hal_flash_ex.c ****   assert_param(IS_FLASH_DATA_ADDRESS(Address));
1748:Drivers/STM32L1xx_HAL_Driver/Src/stm32l1xx_hal_flash_ex.c **** 
1749:Drivers/STM32L1xx_HAL_Driver/Src/stm32l1xx_hal_flash_ex.c ****   /* Wait for last operation to be completed */
1750:Drivers/STM32L1xx_HAL_Driver/Src/stm32l1xx_hal_flash_ex.c ****   status = FLASH_WaitForLastOperation(FLASH_TIMEOUT_VALUE);
1751:Drivers/STM32L1xx_HAL_Driver/Src/stm32l1xx_hal_flash_ex.c **** 
1752:Drivers/STM32L1xx_HAL_Driver/Src/stm32l1xx_hal_flash_ex.c ****   if(status == HAL_OK)
1753:Drivers/STM32L1xx_HAL_Driver/Src/stm32l1xx_hal_flash_ex.c ****   {
1754:Drivers/STM32L1xx_HAL_Driver/Src/stm32l1xx_hal_flash_ex.c **** #if defined(STM32L100xB) || defined(STM32L151xB) || defined(STM32L152xB)
1755:Drivers/STM32L1xx_HAL_Driver/Src/stm32l1xx_hal_flash_ex.c ****     if(Data != (uint16_t)0x0000U)
1756:Drivers/STM32L1xx_HAL_Driver/Src/stm32l1xx_hal_flash_ex.c ****     {
1757:Drivers/STM32L1xx_HAL_Driver/Src/stm32l1xx_hal_flash_ex.c ****       *(__IO uint16_t *)Address = Data;
1758:Drivers/STM32L1xx_HAL_Driver/Src/stm32l1xx_hal_flash_ex.c **** 
1759:Drivers/STM32L1xx_HAL_Driver/Src/stm32l1xx_hal_flash_ex.c ****       /* Wait for last operation to be completed */
1760:Drivers/STM32L1xx_HAL_Driver/Src/stm32l1xx_hal_flash_ex.c ****       status = FLASH_WaitForLastOperation(FLASH_TIMEOUT_VALUE);
1761:Drivers/STM32L1xx_HAL_Driver/Src/stm32l1xx_hal_flash_ex.c ****     }
1762:Drivers/STM32L1xx_HAL_Driver/Src/stm32l1xx_hal_flash_ex.c ****     else
1763:Drivers/STM32L1xx_HAL_Driver/Src/stm32l1xx_hal_flash_ex.c ****     {
1764:Drivers/STM32L1xx_HAL_Driver/Src/stm32l1xx_hal_flash_ex.c ****       /* Process Unlocked */
1765:Drivers/STM32L1xx_HAL_Driver/Src/stm32l1xx_hal_flash_ex.c ****       __HAL_UNLOCK(&pFlash);
1766:Drivers/STM32L1xx_HAL_Driver/Src/stm32l1xx_hal_flash_ex.c ****       if((Address & 0x3U) != 0x3U)
1767:Drivers/STM32L1xx_HAL_Driver/Src/stm32l1xx_hal_flash_ex.c ****       {
1768:Drivers/STM32L1xx_HAL_Driver/Src/stm32l1xx_hal_flash_ex.c ****         tmpaddr = Address & 0xFFFFFFFCU;
1769:Drivers/STM32L1xx_HAL_Driver/Src/stm32l1xx_hal_flash_ex.c ****         tmp = * (__IO uint32_t *) tmpaddr;
1770:Drivers/STM32L1xx_HAL_Driver/Src/stm32l1xx_hal_flash_ex.c ****         tmpaddr = 0xFFFFU << ((uint32_t) (0x8U * (Address & 0x3U)));
1771:Drivers/STM32L1xx_HAL_Driver/Src/stm32l1xx_hal_flash_ex.c ****         tmp &= ~tmpaddr;
1772:Drivers/STM32L1xx_HAL_Driver/Src/stm32l1xx_hal_flash_ex.c ****         status = HAL_FLASHEx_DATAEEPROM_Erase(FLASH_TYPEERASEDATA_WORD, Address & 0xFFFFFFFCU);
1773:Drivers/STM32L1xx_HAL_Driver/Src/stm32l1xx_hal_flash_ex.c ****         status = HAL_FLASHEx_DATAEEPROM_Program(FLASH_TYPEPROGRAMDATA_FASTWORD, (Address & 0xFFFFFF
1774:Drivers/STM32L1xx_HAL_Driver/Src/stm32l1xx_hal_flash_ex.c ****       }
1775:Drivers/STM32L1xx_HAL_Driver/Src/stm32l1xx_hal_flash_ex.c ****       else
1776:Drivers/STM32L1xx_HAL_Driver/Src/stm32l1xx_hal_flash_ex.c ****       {
1777:Drivers/STM32L1xx_HAL_Driver/Src/stm32l1xx_hal_flash_ex.c ****         HAL_FLASHEx_DATAEEPROM_Program(FLASH_TYPEPROGRAMDATA_FASTBYTE, Address, 0x00U);
1778:Drivers/STM32L1xx_HAL_Driver/Src/stm32l1xx_hal_flash_ex.c ****         HAL_FLASHEx_DATAEEPROM_Program(FLASH_TYPEPROGRAMDATA_FASTBYTE, Address + 1U, 0x00U);
1779:Drivers/STM32L1xx_HAL_Driver/Src/stm32l1xx_hal_flash_ex.c ****       }
1780:Drivers/STM32L1xx_HAL_Driver/Src/stm32l1xx_hal_flash_ex.c ****       /* Process Locked */
1781:Drivers/STM32L1xx_HAL_Driver/Src/stm32l1xx_hal_flash_ex.c ****       __HAL_LOCK(&pFlash);
1782:Drivers/STM32L1xx_HAL_Driver/Src/stm32l1xx_hal_flash_ex.c ****     }
ARM GAS  /tmp/ccAAsIoz.s 			page 48


1783:Drivers/STM32L1xx_HAL_Driver/Src/stm32l1xx_hal_flash_ex.c **** #else /* Not Cat1*/
1784:Drivers/STM32L1xx_HAL_Driver/Src/stm32l1xx_hal_flash_ex.c ****     *(__IO uint16_t *)Address = Data;
1785:Drivers/STM32L1xx_HAL_Driver/Src/stm32l1xx_hal_flash_ex.c **** 
1786:Drivers/STM32L1xx_HAL_Driver/Src/stm32l1xx_hal_flash_ex.c ****     /* Wait for last operation to be completed */
1787:Drivers/STM32L1xx_HAL_Driver/Src/stm32l1xx_hal_flash_ex.c ****     status = FLASH_WaitForLastOperation(FLASH_TIMEOUT_VALUE);
1788:Drivers/STM32L1xx_HAL_Driver/Src/stm32l1xx_hal_flash_ex.c **** #endif /* STM32L100xB || STM32L151xB || STM32L152xB  */
1789:Drivers/STM32L1xx_HAL_Driver/Src/stm32l1xx_hal_flash_ex.c ****   }
1790:Drivers/STM32L1xx_HAL_Driver/Src/stm32l1xx_hal_flash_ex.c ****   /* Return the Write Status */
1791:Drivers/STM32L1xx_HAL_Driver/Src/stm32l1xx_hal_flash_ex.c ****   return status;
1792:Drivers/STM32L1xx_HAL_Driver/Src/stm32l1xx_hal_flash_ex.c **** }
1793:Drivers/STM32L1xx_HAL_Driver/Src/stm32l1xx_hal_flash_ex.c **** 
1794:Drivers/STM32L1xx_HAL_Driver/Src/stm32l1xx_hal_flash_ex.c **** /**
1795:Drivers/STM32L1xx_HAL_Driver/Src/stm32l1xx_hal_flash_ex.c ****   * @brief  Programs a word at a specified address in data memory without erase.
1796:Drivers/STM32L1xx_HAL_Driver/Src/stm32l1xx_hal_flash_ex.c ****   * @param  Address specifies the address to be written.
1797:Drivers/STM32L1xx_HAL_Driver/Src/stm32l1xx_hal_flash_ex.c ****   * @param  Data specifies the data to be written.
1798:Drivers/STM32L1xx_HAL_Driver/Src/stm32l1xx_hal_flash_ex.c ****   * @retval HAL status
1799:Drivers/STM32L1xx_HAL_Driver/Src/stm32l1xx_hal_flash_ex.c ****   */
1800:Drivers/STM32L1xx_HAL_Driver/Src/stm32l1xx_hal_flash_ex.c **** static HAL_StatusTypeDef FLASH_DATAEEPROM_ProgramWord(uint32_t Address, uint32_t Data)
1801:Drivers/STM32L1xx_HAL_Driver/Src/stm32l1xx_hal_flash_ex.c **** {
 854              		.loc 1 1801 0
 855              		.cfi_startproc
 856              		@ args = 0, pretend = 0, frame = 0
 857              		@ frame_needed = 0, uses_anonymous_args = 0
 858              	.LVL138:
 859 0000 38B5     		push	{r3, r4, r5, lr}
 860              	.LCFI7:
 861              		.cfi_def_cfa_offset 16
 862              		.cfi_offset 3, -16
 863              		.cfi_offset 4, -12
 864              		.cfi_offset 5, -8
 865              		.cfi_offset 14, -4
 866 0002 0446     		mov	r4, r0
 867 0004 0D46     		mov	r5, r1
 868              	.LVL139:
1802:Drivers/STM32L1xx_HAL_Driver/Src/stm32l1xx_hal_flash_ex.c ****   HAL_StatusTypeDef status = HAL_OK;
1803:Drivers/STM32L1xx_HAL_Driver/Src/stm32l1xx_hal_flash_ex.c **** 
1804:Drivers/STM32L1xx_HAL_Driver/Src/stm32l1xx_hal_flash_ex.c ****   /* Check the parameters */
1805:Drivers/STM32L1xx_HAL_Driver/Src/stm32l1xx_hal_flash_ex.c ****   assert_param(IS_FLASH_DATA_ADDRESS(Address));
1806:Drivers/STM32L1xx_HAL_Driver/Src/stm32l1xx_hal_flash_ex.c **** 
1807:Drivers/STM32L1xx_HAL_Driver/Src/stm32l1xx_hal_flash_ex.c ****   /* Wait for last operation to be completed */
1808:Drivers/STM32L1xx_HAL_Driver/Src/stm32l1xx_hal_flash_ex.c ****   status = FLASH_WaitForLastOperation(FLASH_TIMEOUT_VALUE);
 869              		.loc 1 1808 0
 870 0006 4CF25030 		movw	r0, #50000
 871              	.LVL140:
 872 000a FFF7FEFF 		bl	FLASH_WaitForLastOperation
 873              	.LVL141:
1809:Drivers/STM32L1xx_HAL_Driver/Src/stm32l1xx_hal_flash_ex.c **** 
1810:Drivers/STM32L1xx_HAL_Driver/Src/stm32l1xx_hal_flash_ex.c ****   if(status == HAL_OK)
 874              		.loc 1 1810 0
 875 000e 0346     		mov	r3, r0
 876 0010 08B1     		cbz	r0, .L81
 877              	.LVL142:
 878              	.L79:
1811:Drivers/STM32L1xx_HAL_Driver/Src/stm32l1xx_hal_flash_ex.c ****   {
1812:Drivers/STM32L1xx_HAL_Driver/Src/stm32l1xx_hal_flash_ex.c ****     *(__IO uint32_t *)Address = Data;
1813:Drivers/STM32L1xx_HAL_Driver/Src/stm32l1xx_hal_flash_ex.c **** 
1814:Drivers/STM32L1xx_HAL_Driver/Src/stm32l1xx_hal_flash_ex.c ****     /* Wait for last operation to be completed */
ARM GAS  /tmp/ccAAsIoz.s 			page 49


1815:Drivers/STM32L1xx_HAL_Driver/Src/stm32l1xx_hal_flash_ex.c ****     status = FLASH_WaitForLastOperation(FLASH_TIMEOUT_VALUE);
1816:Drivers/STM32L1xx_HAL_Driver/Src/stm32l1xx_hal_flash_ex.c ****   }
1817:Drivers/STM32L1xx_HAL_Driver/Src/stm32l1xx_hal_flash_ex.c ****   /* Return the Write Status */
1818:Drivers/STM32L1xx_HAL_Driver/Src/stm32l1xx_hal_flash_ex.c ****   return status;
1819:Drivers/STM32L1xx_HAL_Driver/Src/stm32l1xx_hal_flash_ex.c **** }
 879              		.loc 1 1819 0
 880 0012 1846     		mov	r0, r3
 881 0014 38BD     		pop	{r3, r4, r5, pc}
 882              	.LVL143:
 883              	.L81:
1812:Drivers/STM32L1xx_HAL_Driver/Src/stm32l1xx_hal_flash_ex.c **** 
 884              		.loc 1 1812 0
 885 0016 2560     		str	r5, [r4]
1815:Drivers/STM32L1xx_HAL_Driver/Src/stm32l1xx_hal_flash_ex.c ****   }
 886              		.loc 1 1815 0
 887 0018 4CF25030 		movw	r0, #50000
 888              	.LVL144:
 889 001c FFF7FEFF 		bl	FLASH_WaitForLastOperation
 890              	.LVL145:
 891 0020 0346     		mov	r3, r0
 892              	.LVL146:
 893 0022 F6E7     		b	.L79
 894              		.cfi_endproc
 895              	.LFE101:
 897              		.section	.text.FLASH_DATAEEPROM_ProgramHalfWord,"ax",%progbits
 898              		.align	1
 899              		.syntax unified
 900              		.thumb
 901              		.thumb_func
 902              		.fpu softvfp
 904              	FLASH_DATAEEPROM_ProgramHalfWord:
 905              	.LFB100:
1740:Drivers/STM32L1xx_HAL_Driver/Src/stm32l1xx_hal_flash_ex.c ****   HAL_StatusTypeDef status = HAL_OK;
 906              		.loc 1 1740 0
 907              		.cfi_startproc
 908              		@ args = 0, pretend = 0, frame = 0
 909              		@ frame_needed = 0, uses_anonymous_args = 0
 910              	.LVL147:
 911 0000 38B5     		push	{r3, r4, r5, lr}
 912              	.LCFI8:
 913              		.cfi_def_cfa_offset 16
 914              		.cfi_offset 3, -16
 915              		.cfi_offset 4, -12
 916              		.cfi_offset 5, -8
 917              		.cfi_offset 14, -4
 918 0002 0446     		mov	r4, r0
 919 0004 0D46     		mov	r5, r1
 920              	.LVL148:
1750:Drivers/STM32L1xx_HAL_Driver/Src/stm32l1xx_hal_flash_ex.c **** 
 921              		.loc 1 1750 0
 922 0006 4CF25030 		movw	r0, #50000
 923              	.LVL149:
 924 000a FFF7FEFF 		bl	FLASH_WaitForLastOperation
 925              	.LVL150:
1752:Drivers/STM32L1xx_HAL_Driver/Src/stm32l1xx_hal_flash_ex.c ****   {
 926              		.loc 1 1752 0
 927 000e 0346     		mov	r3, r0
ARM GAS  /tmp/ccAAsIoz.s 			page 50


 928 0010 08B1     		cbz	r0, .L85
 929              	.LVL151:
 930              	.L83:
1792:Drivers/STM32L1xx_HAL_Driver/Src/stm32l1xx_hal_flash_ex.c **** 
 931              		.loc 1 1792 0
 932 0012 1846     		mov	r0, r3
 933 0014 38BD     		pop	{r3, r4, r5, pc}
 934              	.LVL152:
 935              	.L85:
1784:Drivers/STM32L1xx_HAL_Driver/Src/stm32l1xx_hal_flash_ex.c **** 
 936              		.loc 1 1784 0
 937 0016 2580     		strh	r5, [r4]	@ movhi
1787:Drivers/STM32L1xx_HAL_Driver/Src/stm32l1xx_hal_flash_ex.c **** #endif /* STM32L100xB || STM32L151xB || STM32L152xB  */
 938              		.loc 1 1787 0
 939 0018 4CF25030 		movw	r0, #50000
 940              	.LVL153:
 941 001c FFF7FEFF 		bl	FLASH_WaitForLastOperation
 942              	.LVL154:
 943 0020 0346     		mov	r3, r0
 944              	.LVL155:
 945 0022 F6E7     		b	.L83
 946              		.cfi_endproc
 947              	.LFE100:
 949              		.section	.text.FLASH_DATAEEPROM_ProgramByte,"ax",%progbits
 950              		.align	1
 951              		.syntax unified
 952              		.thumb
 953              		.thumb_func
 954              		.fpu softvfp
 956              	FLASH_DATAEEPROM_ProgramByte:
 957              	.LFB99:
1686:Drivers/STM32L1xx_HAL_Driver/Src/stm32l1xx_hal_flash_ex.c ****   HAL_StatusTypeDef status = HAL_OK;
 958              		.loc 1 1686 0
 959              		.cfi_startproc
 960              		@ args = 0, pretend = 0, frame = 0
 961              		@ frame_needed = 0, uses_anonymous_args = 0
 962              	.LVL156:
 963 0000 38B5     		push	{r3, r4, r5, lr}
 964              	.LCFI9:
 965              		.cfi_def_cfa_offset 16
 966              		.cfi_offset 3, -16
 967              		.cfi_offset 4, -12
 968              		.cfi_offset 5, -8
 969              		.cfi_offset 14, -4
 970 0002 0446     		mov	r4, r0
 971 0004 0D46     		mov	r5, r1
 972              	.LVL157:
1696:Drivers/STM32L1xx_HAL_Driver/Src/stm32l1xx_hal_flash_ex.c **** 
 973              		.loc 1 1696 0
 974 0006 4CF25030 		movw	r0, #50000
 975              	.LVL158:
 976 000a FFF7FEFF 		bl	FLASH_WaitForLastOperation
 977              	.LVL159:
1698:Drivers/STM32L1xx_HAL_Driver/Src/stm32l1xx_hal_flash_ex.c ****   {
 978              		.loc 1 1698 0
 979 000e 0346     		mov	r3, r0
 980 0010 08B1     		cbz	r0, .L89
ARM GAS  /tmp/ccAAsIoz.s 			page 51


 981              	.LVL160:
 982              	.L87:
1731:Drivers/STM32L1xx_HAL_Driver/Src/stm32l1xx_hal_flash_ex.c **** 
 983              		.loc 1 1731 0
 984 0012 1846     		mov	r0, r3
 985 0014 38BD     		pop	{r3, r4, r5, pc}
 986              	.LVL161:
 987              	.L89:
1723:Drivers/STM32L1xx_HAL_Driver/Src/stm32l1xx_hal_flash_ex.c **** 
 988              		.loc 1 1723 0
 989 0016 2570     		strb	r5, [r4]
1726:Drivers/STM32L1xx_HAL_Driver/Src/stm32l1xx_hal_flash_ex.c **** #endif /* STM32L100xB || STM32L151xB || STM32L152xB  */
 990              		.loc 1 1726 0
 991 0018 4CF25030 		movw	r0, #50000
 992              	.LVL162:
 993 001c FFF7FEFF 		bl	FLASH_WaitForLastOperation
 994              	.LVL163:
 995 0020 0346     		mov	r3, r0
 996              	.LVL164:
 997 0022 F6E7     		b	.L87
 998              		.cfi_endproc
 999              	.LFE99:
 1001              		.section	.text.FLASH_DATAEEPROM_FastProgramByte,"ax",%progbits
 1002              		.align	1
 1003              		.syntax unified
 1004              		.thumb
 1005              		.thumb_func
 1006              		.fpu softvfp
 1008              	FLASH_DATAEEPROM_FastProgramByte:
 1009              	.LFB96:
1527:Drivers/STM32L1xx_HAL_Driver/Src/stm32l1xx_hal_flash_ex.c ****   HAL_StatusTypeDef status = HAL_OK;
 1010              		.loc 1 1527 0
 1011              		.cfi_startproc
 1012              		@ args = 0, pretend = 0, frame = 0
 1013              		@ frame_needed = 0, uses_anonymous_args = 0
 1014              	.LVL165:
 1015 0000 38B5     		push	{r3, r4, r5, lr}
 1016              	.LCFI10:
 1017              		.cfi_def_cfa_offset 16
 1018              		.cfi_offset 3, -16
 1019              		.cfi_offset 4, -12
 1020              		.cfi_offset 5, -8
 1021              		.cfi_offset 14, -4
 1022 0002 0446     		mov	r4, r0
 1023 0004 0D46     		mov	r5, r1
 1024              	.LVL166:
1537:Drivers/STM32L1xx_HAL_Driver/Src/stm32l1xx_hal_flash_ex.c **** 
 1025              		.loc 1 1537 0
 1026 0006 4CF25030 		movw	r0, #50000
 1027              	.LVL167:
 1028 000a FFF7FEFF 		bl	FLASH_WaitForLastOperation
 1029              	.LVL168:
1539:Drivers/STM32L1xx_HAL_Driver/Src/stm32l1xx_hal_flash_ex.c ****   {
 1030              		.loc 1 1539 0
 1031 000e 0346     		mov	r3, r0
 1032 0010 08B1     		cbz	r0, .L93
 1033              	.LVL169:
ARM GAS  /tmp/ccAAsIoz.s 			page 52


 1034              	.L91:
1577:Drivers/STM32L1xx_HAL_Driver/Src/stm32l1xx_hal_flash_ex.c **** 
 1035              		.loc 1 1577 0
 1036 0012 1846     		mov	r0, r3
 1037 0014 38BD     		pop	{r3, r4, r5, pc}
 1038              	.LVL170:
 1039              	.L93:
1542:Drivers/STM32L1xx_HAL_Driver/Src/stm32l1xx_hal_flash_ex.c **** 
 1040              		.loc 1 1542 0
 1041 0016 064A     		ldr	r2, .L94
 1042 0018 5368     		ldr	r3, [r2, #4]
 1043 001a 23F48073 		bic	r3, r3, #256
 1044 001e 5360     		str	r3, [r2, #4]
1569:Drivers/STM32L1xx_HAL_Driver/Src/stm32l1xx_hal_flash_ex.c **** 
 1045              		.loc 1 1569 0
 1046 0020 2570     		strb	r5, [r4]
1572:Drivers/STM32L1xx_HAL_Driver/Src/stm32l1xx_hal_flash_ex.c **** #endif /* STM32L100xB || STM32L151xB || STM32L152xB  */
 1047              		.loc 1 1572 0
 1048 0022 4CF25030 		movw	r0, #50000
 1049              	.LVL171:
 1050 0026 FFF7FEFF 		bl	FLASH_WaitForLastOperation
 1051              	.LVL172:
 1052 002a 0346     		mov	r3, r0
 1053              	.LVL173:
 1054 002c F1E7     		b	.L91
 1055              	.L95:
 1056 002e 00BF     		.align	2
 1057              	.L94:
 1058 0030 003C0240 		.word	1073888256
 1059              		.cfi_endproc
 1060              	.LFE96:
 1062              		.section	.text.FLASH_DATAEEPROM_FastProgramHalfWord,"ax",%progbits
 1063              		.align	1
 1064              		.syntax unified
 1065              		.thumb
 1066              		.thumb_func
 1067              		.fpu softvfp
 1069              	FLASH_DATAEEPROM_FastProgramHalfWord:
 1070              	.LFB97:
1587:Drivers/STM32L1xx_HAL_Driver/Src/stm32l1xx_hal_flash_ex.c ****   HAL_StatusTypeDef status = HAL_OK;
 1071              		.loc 1 1587 0
 1072              		.cfi_startproc
 1073              		@ args = 0, pretend = 0, frame = 0
 1074              		@ frame_needed = 0, uses_anonymous_args = 0
 1075              	.LVL174:
 1076 0000 38B5     		push	{r3, r4, r5, lr}
 1077              	.LCFI11:
 1078              		.cfi_def_cfa_offset 16
 1079              		.cfi_offset 3, -16
 1080              		.cfi_offset 4, -12
 1081              		.cfi_offset 5, -8
 1082              		.cfi_offset 14, -4
 1083 0002 0446     		mov	r4, r0
 1084 0004 0D46     		mov	r5, r1
 1085              	.LVL175:
1597:Drivers/STM32L1xx_HAL_Driver/Src/stm32l1xx_hal_flash_ex.c **** 
 1086              		.loc 1 1597 0
ARM GAS  /tmp/ccAAsIoz.s 			page 53


 1087 0006 4CF25030 		movw	r0, #50000
 1088              	.LVL176:
 1089 000a FFF7FEFF 		bl	FLASH_WaitForLastOperation
 1090              	.LVL177:
1599:Drivers/STM32L1xx_HAL_Driver/Src/stm32l1xx_hal_flash_ex.c ****   {
 1091              		.loc 1 1599 0
 1092 000e 0346     		mov	r3, r0
 1093 0010 08B1     		cbz	r0, .L99
 1094              	.LVL178:
 1095              	.L97:
1645:Drivers/STM32L1xx_HAL_Driver/Src/stm32l1xx_hal_flash_ex.c **** 
 1096              		.loc 1 1645 0
 1097 0012 1846     		mov	r0, r3
 1098 0014 38BD     		pop	{r3, r4, r5, pc}
 1099              	.LVL179:
 1100              	.L99:
1602:Drivers/STM32L1xx_HAL_Driver/Src/stm32l1xx_hal_flash_ex.c **** 
 1101              		.loc 1 1602 0
 1102 0016 064A     		ldr	r2, .L100
 1103 0018 5368     		ldr	r3, [r2, #4]
 1104 001a 23F48073 		bic	r3, r3, #256
 1105 001e 5360     		str	r3, [r2, #4]
1637:Drivers/STM32L1xx_HAL_Driver/Src/stm32l1xx_hal_flash_ex.c **** 
 1106              		.loc 1 1637 0
 1107 0020 2580     		strh	r5, [r4]	@ movhi
1640:Drivers/STM32L1xx_HAL_Driver/Src/stm32l1xx_hal_flash_ex.c **** #endif /* STM32L100xB || STM32L151xB || STM32L152xB  */
 1108              		.loc 1 1640 0
 1109 0022 4CF25030 		movw	r0, #50000
 1110              	.LVL180:
 1111 0026 FFF7FEFF 		bl	FLASH_WaitForLastOperation
 1112              	.LVL181:
 1113 002a 0346     		mov	r3, r0
 1114              	.LVL182:
 1115 002c F1E7     		b	.L97
 1116              	.L101:
 1117 002e 00BF     		.align	2
 1118              	.L100:
 1119 0030 003C0240 		.word	1073888256
 1120              		.cfi_endproc
 1121              	.LFE97:
 1123              		.section	.text.FLASH_DATAEEPROM_FastProgramWord,"ax",%progbits
 1124              		.align	1
 1125              		.syntax unified
 1126              		.thumb
 1127              		.thumb_func
 1128              		.fpu softvfp
 1130              	FLASH_DATAEEPROM_FastProgramWord:
 1131              	.LFB98:
1655:Drivers/STM32L1xx_HAL_Driver/Src/stm32l1xx_hal_flash_ex.c ****   HAL_StatusTypeDef status = HAL_OK;
 1132              		.loc 1 1655 0
 1133              		.cfi_startproc
 1134              		@ args = 0, pretend = 0, frame = 0
 1135              		@ frame_needed = 0, uses_anonymous_args = 0
 1136              	.LVL183:
 1137 0000 38B5     		push	{r3, r4, r5, lr}
 1138              	.LCFI12:
 1139              		.cfi_def_cfa_offset 16
ARM GAS  /tmp/ccAAsIoz.s 			page 54


 1140              		.cfi_offset 3, -16
 1141              		.cfi_offset 4, -12
 1142              		.cfi_offset 5, -8
 1143              		.cfi_offset 14, -4
 1144 0002 0446     		mov	r4, r0
 1145 0004 0D46     		mov	r5, r1
 1146              	.LVL184:
1662:Drivers/STM32L1xx_HAL_Driver/Src/stm32l1xx_hal_flash_ex.c **** 
 1147              		.loc 1 1662 0
 1148 0006 4CF25030 		movw	r0, #50000
 1149              	.LVL185:
 1150 000a FFF7FEFF 		bl	FLASH_WaitForLastOperation
 1151              	.LVL186:
1664:Drivers/STM32L1xx_HAL_Driver/Src/stm32l1xx_hal_flash_ex.c ****   {
 1152              		.loc 1 1664 0
 1153 000e 0346     		mov	r3, r0
 1154 0010 08B1     		cbz	r0, .L105
 1155              	.LVL187:
 1156              	.L103:
1677:Drivers/STM32L1xx_HAL_Driver/Src/stm32l1xx_hal_flash_ex.c **** 
 1157              		.loc 1 1677 0
 1158 0012 1846     		mov	r0, r3
 1159 0014 38BD     		pop	{r3, r4, r5, pc}
 1160              	.LVL188:
 1161              	.L105:
1667:Drivers/STM32L1xx_HAL_Driver/Src/stm32l1xx_hal_flash_ex.c **** 
 1162              		.loc 1 1667 0
 1163 0016 064A     		ldr	r2, .L106
 1164 0018 5368     		ldr	r3, [r2, #4]
 1165 001a 23F48073 		bic	r3, r3, #256
 1166 001e 5360     		str	r3, [r2, #4]
1670:Drivers/STM32L1xx_HAL_Driver/Src/stm32l1xx_hal_flash_ex.c **** 
 1167              		.loc 1 1670 0
 1168 0020 2560     		str	r5, [r4]
1673:Drivers/STM32L1xx_HAL_Driver/Src/stm32l1xx_hal_flash_ex.c ****   }
 1169              		.loc 1 1673 0
 1170 0022 4CF25030 		movw	r0, #50000
 1171              	.LVL189:
 1172 0026 FFF7FEFF 		bl	FLASH_WaitForLastOperation
 1173              	.LVL190:
 1174 002a 0346     		mov	r3, r0
 1175              	.LVL191:
 1176 002c F1E7     		b	.L103
 1177              	.L107:
 1178 002e 00BF     		.align	2
 1179              	.L106:
 1180 0030 003C0240 		.word	1073888256
 1181              		.cfi_endproc
 1182              	.LFE98:
 1184              		.section	.text.HAL_FLASHEx_OBProgram,"ax",%progbits
 1185              		.align	1
 1186              		.global	HAL_FLASHEx_OBProgram
 1187              		.syntax unified
 1188              		.thumb
 1189              		.thumb_func
 1190              		.fpu softvfp
 1192              	HAL_FLASHEx_OBProgram:
ARM GAS  /tmp/ccAAsIoz.s 			page 55


 1193              	.LFB74:
 407:Drivers/STM32L1xx_HAL_Driver/Src/stm32l1xx_hal_flash_ex.c ****   HAL_StatusTypeDef status = HAL_ERROR;
 1194              		.loc 1 407 0
 1195              		.cfi_startproc
 1196              		@ args = 0, pretend = 0, frame = 0
 1197              		@ frame_needed = 0, uses_anonymous_args = 0
 1198              	.LVL192:
 411:Drivers/STM32L1xx_HAL_Driver/Src/stm32l1xx_hal_flash_ex.c **** 
 1199              		.loc 1 411 0
 1200 0000 2B4B     		ldr	r3, .L126
 1201 0002 1B7C     		ldrb	r3, [r3, #16]	@ zero_extendqisi2
 1202 0004 012B     		cmp	r3, #1
 1203 0006 4FD0     		beq	.L116
 407:Drivers/STM32L1xx_HAL_Driver/Src/stm32l1xx_hal_flash_ex.c ****   HAL_StatusTypeDef status = HAL_ERROR;
 1204              		.loc 1 407 0 discriminator 2
 1205 0008 10B5     		push	{r4, lr}
 1206              	.LCFI13:
 1207              		.cfi_def_cfa_offset 8
 1208              		.cfi_offset 4, -8
 1209              		.cfi_offset 14, -4
 1210 000a 0446     		mov	r4, r0
 411:Drivers/STM32L1xx_HAL_Driver/Src/stm32l1xx_hal_flash_ex.c **** 
 1211              		.loc 1 411 0 discriminator 2
 1212 000c 0122     		movs	r2, #1
 1213 000e 284B     		ldr	r3, .L126
 1214 0010 1A74     		strb	r2, [r3, #16]
 417:Drivers/STM32L1xx_HAL_Driver/Src/stm32l1xx_hal_flash_ex.c ****   {
 1215              		.loc 1 417 0 discriminator 2
 1216 0012 0368     		ldr	r3, [r0]
 1217 0014 13F0010F 		tst	r3, #1
 1218 0018 10D0     		beq	.L117
 420:Drivers/STM32L1xx_HAL_Driver/Src/stm32l1xx_hal_flash_ex.c ****     {
 1219              		.loc 1 420 0
 1220 001a 4368     		ldr	r3, [r0, #4]
 1221 001c 9342     		cmp	r3, r2
 1222 001e 08D0     		beq	.L122
 428:Drivers/STM32L1xx_HAL_Driver/Src/stm32l1xx_hal_flash_ex.c ****     }
 1223              		.loc 1 428 0
 1224 0020 0021     		movs	r1, #0
 1225 0022 FFF7FEFF 		bl	FLASH_OB_WRPConfig
 1226              	.LVL193:
 1227 0026 0346     		mov	r3, r0
 1228              	.LVL194:
 1229              	.L112:
 430:Drivers/STM32L1xx_HAL_Driver/Src/stm32l1xx_hal_flash_ex.c ****     {
 1230              		.loc 1 430 0
 1231 0028 4BB1     		cbz	r3, .L110
 433:Drivers/STM32L1xx_HAL_Driver/Src/stm32l1xx_hal_flash_ex.c ****       return status;
 1232              		.loc 1 433 0
 1233 002a 0021     		movs	r1, #0
 1234 002c 204A     		ldr	r2, .L126
 1235 002e 1174     		strb	r1, [r2, #16]
 434:Drivers/STM32L1xx_HAL_Driver/Src/stm32l1xx_hal_flash_ex.c ****     }
 1236              		.loc 1 434 0
 1237 0030 14E0     		b	.L109
 1238              	.LVL195:
 1239              	.L122:
ARM GAS  /tmp/ccAAsIoz.s 			page 56


 423:Drivers/STM32L1xx_HAL_Driver/Src/stm32l1xx_hal_flash_ex.c ****     }
 1240              		.loc 1 423 0
 1241 0032 1146     		mov	r1, r2
 1242 0034 FFF7FEFF 		bl	FLASH_OB_WRPConfig
 1243              	.LVL196:
 1244 0038 0346     		mov	r3, r0
 1245              	.LVL197:
 1246 003a F5E7     		b	.L112
 1247              	.LVL198:
 1248              	.L117:
 408:Drivers/STM32L1xx_HAL_Driver/Src/stm32l1xx_hal_flash_ex.c **** 
 1249              		.loc 1 408 0
 1250 003c 0123     		movs	r3, #1
 1251              	.LVL199:
 1252              	.L110:
 439:Drivers/STM32L1xx_HAL_Driver/Src/stm32l1xx_hal_flash_ex.c ****   {
 1253              		.loc 1 439 0
 1254 003e 2268     		ldr	r2, [r4]
 1255 0040 12F0020F 		tst	r2, #2
 1256 0044 0CD1     		bne	.L123
 1257              	.LVL200:
 1258              	.L113:
 451:Drivers/STM32L1xx_HAL_Driver/Src/stm32l1xx_hal_flash_ex.c ****   {
 1259              		.loc 1 451 0
 1260 0046 2268     		ldr	r2, [r4]
 1261 0048 12F0040F 		tst	r2, #4
 1262 004c 12D1     		bne	.L124
 1263              	.LVL201:
 1264              	.L114:
 465:Drivers/STM32L1xx_HAL_Driver/Src/stm32l1xx_hal_flash_ex.c ****   {
 1265              		.loc 1 465 0
 1266 004e 2268     		ldr	r2, [r4]
 1267 0050 12F0080F 		tst	r2, #8
 1268 0054 1ED1     		bne	.L125
 1269              	.LVL202:
 1270              	.L115:
 476:Drivers/STM32L1xx_HAL_Driver/Src/stm32l1xx_hal_flash_ex.c **** 
 1271              		.loc 1 476 0
 1272 0056 0021     		movs	r1, #0
 1273 0058 154A     		ldr	r2, .L126
 1274 005a 1174     		strb	r1, [r2, #16]
 1275              	.LVL203:
 1276              	.L109:
 479:Drivers/STM32L1xx_HAL_Driver/Src/stm32l1xx_hal_flash_ex.c **** 
 1277              		.loc 1 479 0
 1278 005c 1846     		mov	r0, r3
 1279 005e 10BD     		pop	{r4, pc}
 1280              	.LVL204:
 1281              	.L123:
 441:Drivers/STM32L1xx_HAL_Driver/Src/stm32l1xx_hal_flash_ex.c ****     if (status != HAL_OK)
 1282              		.loc 1 441 0
 1283 0060 207E     		ldrb	r0, [r4, #24]	@ zero_extendqisi2
 1284 0062 FFF7FEFF 		bl	FLASH_OB_RDPConfig
 1285              	.LVL205:
 442:Drivers/STM32L1xx_HAL_Driver/Src/stm32l1xx_hal_flash_ex.c ****     {
 1286              		.loc 1 442 0
 1287 0066 0346     		mov	r3, r0
ARM GAS  /tmp/ccAAsIoz.s 			page 57


 1288 0068 0028     		cmp	r0, #0
 1289 006a ECD0     		beq	.L113
 445:Drivers/STM32L1xx_HAL_Driver/Src/stm32l1xx_hal_flash_ex.c ****       return status;
 1290              		.loc 1 445 0
 1291 006c 0021     		movs	r1, #0
 1292 006e 104A     		ldr	r2, .L126
 1293 0070 1174     		strb	r1, [r2, #16]
 446:Drivers/STM32L1xx_HAL_Driver/Src/stm32l1xx_hal_flash_ex.c ****     }
 1294              		.loc 1 446 0
 1295 0072 F3E7     		b	.L109
 1296              	.LVL206:
 1297              	.L124:
 453:Drivers/STM32L1xx_HAL_Driver/Src/stm32l1xx_hal_flash_ex.c ****                                  pOBInit->USERConfig & OB_STOP_NORST,
 1298              		.loc 1 453 0
 1299 0074 A07E     		ldrb	r0, [r4, #26]	@ zero_extendqisi2
 1300 0076 00F04002 		and	r2, r0, #64
 1301 007a 00F02001 		and	r1, r0, #32
 1302 007e 00F01000 		and	r0, r0, #16
 1303 0082 FFF7FEFF 		bl	FLASH_OB_UserConfig
 1304              	.LVL207:
 456:Drivers/STM32L1xx_HAL_Driver/Src/stm32l1xx_hal_flash_ex.c ****     {
 1305              		.loc 1 456 0
 1306 0086 0346     		mov	r3, r0
 1307 0088 0028     		cmp	r0, #0
 1308 008a E0D0     		beq	.L114
 459:Drivers/STM32L1xx_HAL_Driver/Src/stm32l1xx_hal_flash_ex.c ****       return status;
 1309              		.loc 1 459 0
 1310 008c 0021     		movs	r1, #0
 1311 008e 084A     		ldr	r2, .L126
 1312 0090 1174     		strb	r1, [r2, #16]
 460:Drivers/STM32L1xx_HAL_Driver/Src/stm32l1xx_hal_flash_ex.c ****     }
 1313              		.loc 1 460 0
 1314 0092 E3E7     		b	.L109
 1315              	.LVL208:
 1316              	.L125:
 467:Drivers/STM32L1xx_HAL_Driver/Src/stm32l1xx_hal_flash_ex.c ****     if (status != HAL_OK)
 1317              		.loc 1 467 0
 1318 0094 607E     		ldrb	r0, [r4, #25]	@ zero_extendqisi2
 1319 0096 FFF7FEFF 		bl	FLASH_OB_BORConfig
 1320              	.LVL209:
 468:Drivers/STM32L1xx_HAL_Driver/Src/stm32l1xx_hal_flash_ex.c ****     {
 1321              		.loc 1 468 0
 1322 009a 0346     		mov	r3, r0
 1323 009c 0028     		cmp	r0, #0
 1324 009e DAD0     		beq	.L115
 471:Drivers/STM32L1xx_HAL_Driver/Src/stm32l1xx_hal_flash_ex.c ****       return status;
 1325              		.loc 1 471 0
 1326 00a0 0021     		movs	r1, #0
 1327 00a2 034A     		ldr	r2, .L126
 1328 00a4 1174     		strb	r1, [r2, #16]
 472:Drivers/STM32L1xx_HAL_Driver/Src/stm32l1xx_hal_flash_ex.c ****     }
 1329              		.loc 1 472 0
 1330 00a6 D9E7     		b	.L109
 1331              	.LVL210:
 1332              	.L116:
 1333              	.LCFI14:
 1334              		.cfi_def_cfa_offset 0
ARM GAS  /tmp/ccAAsIoz.s 			page 58


 1335              		.cfi_restore 4
 1336              		.cfi_restore 14
 411:Drivers/STM32L1xx_HAL_Driver/Src/stm32l1xx_hal_flash_ex.c **** 
 1337              		.loc 1 411 0
 1338 00a8 0223     		movs	r3, #2
 479:Drivers/STM32L1xx_HAL_Driver/Src/stm32l1xx_hal_flash_ex.c **** 
 1339              		.loc 1 479 0
 1340 00aa 1846     		mov	r0, r3
 1341              	.LVL211:
 1342 00ac 7047     		bx	lr
 1343              	.L127:
 1344 00ae 00BF     		.align	2
 1345              	.L126:
 1346 00b0 00000000 		.word	pFlash
 1347              		.cfi_endproc
 1348              	.LFE74:
 1350              		.section	.text.HAL_FLASHEx_OBGetConfig,"ax",%progbits
 1351              		.align	1
 1352              		.global	HAL_FLASHEx_OBGetConfig
 1353              		.syntax unified
 1354              		.thumb
 1355              		.thumb_func
 1356              		.fpu softvfp
 1358              	HAL_FLASHEx_OBGetConfig:
 1359              	.LFB75:
 489:Drivers/STM32L1xx_HAL_Driver/Src/stm32l1xx_hal_flash_ex.c ****   pOBInit->OptionType = OPTIONBYTE_WRP | OPTIONBYTE_RDP | OPTIONBYTE_USER | OPTIONBYTE_BOR;
 1360              		.loc 1 489 0
 1361              		.cfi_startproc
 1362              		@ args = 0, pretend = 0, frame = 0
 1363              		@ frame_needed = 0, uses_anonymous_args = 0
 1364              	.LVL212:
 1365 0000 10B5     		push	{r4, lr}
 1366              	.LCFI15:
 1367              		.cfi_def_cfa_offset 8
 1368              		.cfi_offset 4, -8
 1369              		.cfi_offset 14, -4
 1370 0002 0446     		mov	r4, r0
 490:Drivers/STM32L1xx_HAL_Driver/Src/stm32l1xx_hal_flash_ex.c **** 
 1371              		.loc 1 490 0
 1372 0004 0F23     		movs	r3, #15
 1373 0006 0360     		str	r3, [r0]
 493:Drivers/STM32L1xx_HAL_Driver/Src/stm32l1xx_hal_flash_ex.c **** 
 1374              		.loc 1 493 0
 1375 0008 0A4B     		ldr	r3, .L130
 1376 000a 1A6A     		ldr	r2, [r3, #32]
 1377 000c 8260     		str	r2, [r0, #8]
 501:Drivers/STM32L1xx_HAL_Driver/Src/stm32l1xx_hal_flash_ex.c **** 
 1378              		.loc 1 501 0
 1379 000e D3F88020 		ldr	r2, [r3, #128]
 1380 0012 C260     		str	r2, [r0, #12]
 510:Drivers/STM32L1xx_HAL_Driver/Src/stm32l1xx_hal_flash_ex.c **** 
 1381              		.loc 1 510 0
 1382 0014 D3F88420 		ldr	r2, [r3, #132]
 1383 0018 0261     		str	r2, [r0, #16]
 518:Drivers/STM32L1xx_HAL_Driver/Src/stm32l1xx_hal_flash_ex.c **** 
 1384              		.loc 1 518 0
 1385 001a D3F88830 		ldr	r3, [r3, #136]
ARM GAS  /tmp/ccAAsIoz.s 			page 59


 1386 001e 4361     		str	r3, [r0, #20]
 523:Drivers/STM32L1xx_HAL_Driver/Src/stm32l1xx_hal_flash_ex.c **** 
 1387              		.loc 1 523 0
 1388 0020 FFF7FEFF 		bl	FLASH_OB_GetRDP
 1389              	.LVL213:
 1390 0024 2076     		strb	r0, [r4, #24]
 526:Drivers/STM32L1xx_HAL_Driver/Src/stm32l1xx_hal_flash_ex.c **** 
 1391              		.loc 1 526 0
 1392 0026 FFF7FEFF 		bl	FLASH_OB_GetUser
 1393              	.LVL214:
 1394 002a A076     		strb	r0, [r4, #26]
 529:Drivers/STM32L1xx_HAL_Driver/Src/stm32l1xx_hal_flash_ex.c **** }
 1395              		.loc 1 529 0
 1396 002c FFF7FEFF 		bl	FLASH_OB_GetBOR
 1397              	.LVL215:
 1398 0030 6076     		strb	r0, [r4, #25]
 1399 0032 10BD     		pop	{r4, pc}
 1400              	.LVL216:
 1401              	.L131:
 1402              		.align	2
 1403              	.L130:
 1404 0034 003C0240 		.word	1073888256
 1405              		.cfi_endproc
 1406              	.LFE75:
 1408              		.section	.text.HAL_FLASHEx_AdvOBProgram,"ax",%progbits
 1409              		.align	1
 1410              		.global	HAL_FLASHEx_AdvOBProgram
 1411              		.syntax unified
 1412              		.thumb
 1413              		.thumb_func
 1414              		.fpu softvfp
 1416              	HAL_FLASHEx_AdvOBProgram:
 1417              	.LFB76:
 543:Drivers/STM32L1xx_HAL_Driver/Src/stm32l1xx_hal_flash_ex.c ****   HAL_StatusTypeDef status = HAL_ERROR;
 1418              		.loc 1 543 0
 1419              		.cfi_startproc
 1420              		@ args = 0, pretend = 0, frame = 0
 1421              		@ frame_needed = 0, uses_anonymous_args = 0
 1422              	.LVL217:
 1423 0000 08B5     		push	{r3, lr}
 1424              	.LCFI16:
 1425              		.cfi_def_cfa_offset 8
 1426              		.cfi_offset 3, -8
 1427              		.cfi_offset 14, -4
 1428              	.LVL218:
 581:Drivers/STM32L1xx_HAL_Driver/Src/stm32l1xx_hal_flash_ex.c ****   {
 1429              		.loc 1 581 0
 1430 0002 0368     		ldr	r3, [r0]
 1431 0004 13F0020F 		tst	r3, #2
 1432 0008 01D1     		bne	.L136
 544:Drivers/STM32L1xx_HAL_Driver/Src/stm32l1xx_hal_flash_ex.c **** 
 1433              		.loc 1 544 0
 1434 000a 0120     		movs	r0, #1
 1435              	.LVL219:
 589:Drivers/STM32L1xx_HAL_Driver/Src/stm32l1xx_hal_flash_ex.c **** 
 1436              		.loc 1 589 0
 1437 000c 08BD     		pop	{r3, pc}
ARM GAS  /tmp/ccAAsIoz.s 			page 60


 1438              	.LVL220:
 1439              	.L136:
 583:Drivers/STM32L1xx_HAL_Driver/Src/stm32l1xx_hal_flash_ex.c ****   }
 1440              		.loc 1 583 0
 1441 000e 0079     		ldrb	r0, [r0, #4]	@ zero_extendqisi2
 1442              	.LVL221:
 1443 0010 FFF7FEFF 		bl	FLASH_OB_BootConfig
 1444              	.LVL222:
 1445 0014 08BD     		pop	{r3, pc}
 1446              		.cfi_endproc
 1447              	.LFE76:
 1449              		.section	.text.HAL_FLASHEx_AdvOBGetConfig,"ax",%progbits
 1450              		.align	1
 1451              		.global	HAL_FLASHEx_AdvOBGetConfig
 1452              		.syntax unified
 1453              		.thumb
 1454              		.thumb_func
 1455              		.fpu softvfp
 1457              	HAL_FLASHEx_AdvOBGetConfig:
 1458              	.LFB77:
 600:Drivers/STM32L1xx_HAL_Driver/Src/stm32l1xx_hal_flash_ex.c ****   pAdvOBInit->OptionType = 0U;
 1459              		.loc 1 600 0
 1460              		.cfi_startproc
 1461              		@ args = 0, pretend = 0, frame = 0
 1462              		@ frame_needed = 0, uses_anonymous_args = 0
 1463              		@ link register save eliminated.
 1464              	.LVL223:
 623:Drivers/STM32L1xx_HAL_Driver/Src/stm32l1xx_hal_flash_ex.c **** 
 1465              		.loc 1 623 0
 1466 0000 0223     		movs	r3, #2
 1467 0002 0360     		str	r3, [r0]
 626:Drivers/STM32L1xx_HAL_Driver/Src/stm32l1xx_hal_flash_ex.c **** 
 1468              		.loc 1 626 0
 1469 0004 034B     		ldr	r3, .L138
 1470 0006 DB69     		ldr	r3, [r3, #28]
 1471 0008 1B0C     		lsrs	r3, r3, #16
 1472 000a 03F08003 		and	r3, r3, #128
 1473 000e 8380     		strh	r3, [r0, #4]	@ movhi
 1474 0010 7047     		bx	lr
 1475              	.L139:
 1476 0012 00BF     		.align	2
 1477              	.L138:
 1478 0014 003C0240 		.word	1073888256
 1479              		.cfi_endproc
 1480              	.LFE77:
 1482              		.section	.text.HAL_FLASHEx_DATAEEPROM_Unlock,"ax",%progbits
 1483              		.align	1
 1484              		.global	HAL_FLASHEx_DATAEEPROM_Unlock
 1485              		.syntax unified
 1486              		.thumb
 1487              		.thumb_func
 1488              		.fpu softvfp
 1490              	HAL_FLASHEx_DATAEEPROM_Unlock:
 1491              	.LFB78:
 752:Drivers/STM32L1xx_HAL_Driver/Src/stm32l1xx_hal_flash_ex.c ****   if((FLASH->PECR & FLASH_PECR_PELOCK) != RESET)
 1492              		.loc 1 752 0
 1493              		.cfi_startproc
ARM GAS  /tmp/ccAAsIoz.s 			page 61


 1494              		@ args = 0, pretend = 0, frame = 0
 1495              		@ frame_needed = 0, uses_anonymous_args = 0
 1496              		@ link register save eliminated.
 753:Drivers/STM32L1xx_HAL_Driver/Src/stm32l1xx_hal_flash_ex.c ****   {
 1497              		.loc 1 753 0
 1498 0000 064B     		ldr	r3, .L143
 1499 0002 5B68     		ldr	r3, [r3, #4]
 1500 0004 13F0010F 		tst	r3, #1
 1501 0008 06D0     		beq	.L142
 756:Drivers/STM32L1xx_HAL_Driver/Src/stm32l1xx_hal_flash_ex.c ****     FLASH->PEKEYR = FLASH_PEKEY2;
 1502              		.loc 1 756 0
 1503 000a 044B     		ldr	r3, .L143
 1504 000c 044A     		ldr	r2, .L143+4
 1505 000e DA60     		str	r2, [r3, #12]
 757:Drivers/STM32L1xx_HAL_Driver/Src/stm32l1xx_hal_flash_ex.c ****   }
 1506              		.loc 1 757 0
 1507 0010 044A     		ldr	r2, .L143+8
 1508 0012 DA60     		str	r2, [r3, #12]
 763:Drivers/STM32L1xx_HAL_Driver/Src/stm32l1xx_hal_flash_ex.c **** }
 1509              		.loc 1 763 0
 1510 0014 0020     		movs	r0, #0
 1511 0016 7047     		bx	lr
 1512              	.L142:
 761:Drivers/STM32L1xx_HAL_Driver/Src/stm32l1xx_hal_flash_ex.c ****   }
 1513              		.loc 1 761 0
 1514 0018 0120     		movs	r0, #1
 764:Drivers/STM32L1xx_HAL_Driver/Src/stm32l1xx_hal_flash_ex.c **** 
 1515              		.loc 1 764 0
 1516 001a 7047     		bx	lr
 1517              	.L144:
 1518              		.align	2
 1519              	.L143:
 1520 001c 003C0240 		.word	1073888256
 1521 0020 EFCDAB89 		.word	-1985229329
 1522 0024 05040302 		.word	33752069
 1523              		.cfi_endproc
 1524              	.LFE78:
 1526              		.section	.text.HAL_FLASHEx_DATAEEPROM_Lock,"ax",%progbits
 1527              		.align	1
 1528              		.global	HAL_FLASHEx_DATAEEPROM_Lock
 1529              		.syntax unified
 1530              		.thumb
 1531              		.thumb_func
 1532              		.fpu softvfp
 1534              	HAL_FLASHEx_DATAEEPROM_Lock:
 1535              	.LFB79:
 771:Drivers/STM32L1xx_HAL_Driver/Src/stm32l1xx_hal_flash_ex.c ****   /* Set the PELOCK Bit to lock the data memory and FLASH_PECR register access */
 1536              		.loc 1 771 0
 1537              		.cfi_startproc
 1538              		@ args = 0, pretend = 0, frame = 0
 1539              		@ frame_needed = 0, uses_anonymous_args = 0
 1540              		@ link register save eliminated.
 773:Drivers/STM32L1xx_HAL_Driver/Src/stm32l1xx_hal_flash_ex.c **** 
 1541              		.loc 1 773 0
 1542 0000 034A     		ldr	r2, .L146
 1543 0002 5368     		ldr	r3, [r2, #4]
 1544 0004 43F00103 		orr	r3, r3, #1
ARM GAS  /tmp/ccAAsIoz.s 			page 62


 1545 0008 5360     		str	r3, [r2, #4]
 776:Drivers/STM32L1xx_HAL_Driver/Src/stm32l1xx_hal_flash_ex.c **** 
 1546              		.loc 1 776 0
 1547 000a 0020     		movs	r0, #0
 1548 000c 7047     		bx	lr
 1549              	.L147:
 1550 000e 00BF     		.align	2
 1551              	.L146:
 1552 0010 003C0240 		.word	1073888256
 1553              		.cfi_endproc
 1554              	.LFE79:
 1556              		.section	.text.HAL_FLASHEx_DATAEEPROM_Erase,"ax",%progbits
 1557              		.align	1
 1558              		.global	HAL_FLASHEx_DATAEEPROM_Erase
 1559              		.syntax unified
 1560              		.thumb
 1561              		.thumb_func
 1562              		.fpu softvfp
 1564              	HAL_FLASHEx_DATAEEPROM_Erase:
 1565              	.LFB80:
 791:Drivers/STM32L1xx_HAL_Driver/Src/stm32l1xx_hal_flash_ex.c ****   HAL_StatusTypeDef status = HAL_OK;
 1566              		.loc 1 791 0
 1567              		.cfi_startproc
 1568              		@ args = 0, pretend = 0, frame = 0
 1569              		@ frame_needed = 0, uses_anonymous_args = 0
 1570              	.LVL224:
 1571 0000 38B5     		push	{r3, r4, r5, lr}
 1572              	.LCFI17:
 1573              		.cfi_def_cfa_offset 16
 1574              		.cfi_offset 3, -16
 1575              		.cfi_offset 4, -12
 1576              		.cfi_offset 5, -8
 1577              		.cfi_offset 14, -4
 1578 0002 0446     		mov	r4, r0
 1579 0004 0D46     		mov	r5, r1
 1580              	.LVL225:
 799:Drivers/STM32L1xx_HAL_Driver/Src/stm32l1xx_hal_flash_ex.c **** 
 1581              		.loc 1 799 0
 1582 0006 4CF25030 		movw	r0, #50000
 1583              	.LVL226:
 1584 000a FFF7FEFF 		bl	FLASH_WaitForLastOperation
 1585              	.LVL227:
 801:Drivers/STM32L1xx_HAL_Driver/Src/stm32l1xx_hal_flash_ex.c ****   {
 1586              		.loc 1 801 0
 1587 000e 0346     		mov	r3, r0
 1588 0010 70B9     		cbnz	r0, .L149
 804:Drivers/STM32L1xx_HAL_Driver/Src/stm32l1xx_hal_flash_ex.c **** 
 1589              		.loc 1 804 0
 1590 0012 0022     		movs	r2, #0
 1591 0014 0A4B     		ldr	r3, .L156
 1592 0016 5A61     		str	r2, [r3, #20]
 806:Drivers/STM32L1xx_HAL_Driver/Src/stm32l1xx_hal_flash_ex.c ****     {
 1593              		.loc 1 806 0
 1594 0018 022C     		cmp	r4, #2
 1595 001a 0BD0     		beq	.L154
 1596              	.L150:
 812:Drivers/STM32L1xx_HAL_Driver/Src/stm32l1xx_hal_flash_ex.c ****     {
ARM GAS  /tmp/ccAAsIoz.s 			page 63


 1597              		.loc 1 812 0
 1598 001c 012C     		cmp	r4, #1
 1599 001e 0BD0     		beq	.L155
 1600              	.L151:
 818:Drivers/STM32L1xx_HAL_Driver/Src/stm32l1xx_hal_flash_ex.c ****     {
 1601              		.loc 1 818 0
 1602 0020 0CB9     		cbnz	r4, .L152
 821:Drivers/STM32L1xx_HAL_Driver/Src/stm32l1xx_hal_flash_ex.c ****     }
 1603              		.loc 1 821 0
 1604 0022 0023     		movs	r3, #0
 1605 0024 2B70     		strb	r3, [r5]
 1606              	.L152:
 824:Drivers/STM32L1xx_HAL_Driver/Src/stm32l1xx_hal_flash_ex.c ****   }
 1607              		.loc 1 824 0
 1608 0026 4CF25030 		movw	r0, #50000
 1609              	.LVL228:
 1610 002a FFF7FEFF 		bl	FLASH_WaitForLastOperation
 1611              	.LVL229:
 1612 002e 0346     		mov	r3, r0
 1613              	.LVL230:
 1614              	.L149:
 829:Drivers/STM32L1xx_HAL_Driver/Src/stm32l1xx_hal_flash_ex.c **** 
 1615              		.loc 1 829 0
 1616 0030 1846     		mov	r0, r3
 1617 0032 38BD     		pop	{r3, r4, r5, pc}
 1618              	.LVL231:
 1619              	.L154:
 809:Drivers/STM32L1xx_HAL_Driver/Src/stm32l1xx_hal_flash_ex.c ****     }
 1620              		.loc 1 809 0
 1621 0034 2A60     		str	r2, [r5]
 1622 0036 F1E7     		b	.L150
 1623              	.L155:
 815:Drivers/STM32L1xx_HAL_Driver/Src/stm32l1xx_hal_flash_ex.c ****     }
 1624              		.loc 1 815 0
 1625 0038 0023     		movs	r3, #0
 1626 003a 2B80     		strh	r3, [r5]	@ movhi
 1627 003c F0E7     		b	.L151
 1628              	.L157:
 1629 003e 00BF     		.align	2
 1630              	.L156:
 1631 0040 00000000 		.word	pFlash
 1632              		.cfi_endproc
 1633              	.LFE80:
 1635              		.section	.text.HAL_FLASHEx_DATAEEPROM_Program,"ax",%progbits
 1636              		.align	1
 1637              		.global	HAL_FLASHEx_DATAEEPROM_Program
 1638              		.syntax unified
 1639              		.thumb
 1640              		.thumb_func
 1641              		.fpu softvfp
 1643              	HAL_FLASHEx_DATAEEPROM_Program:
 1644              	.LFB81:
 849:Drivers/STM32L1xx_HAL_Driver/Src/stm32l1xx_hal_flash_ex.c ****   HAL_StatusTypeDef status = HAL_ERROR;
 1645              		.loc 1 849 0
 1646              		.cfi_startproc
 1647              		@ args = 0, pretend = 0, frame = 0
 1648              		@ frame_needed = 0, uses_anonymous_args = 0
ARM GAS  /tmp/ccAAsIoz.s 			page 64


 1649              	.LVL232:
 853:Drivers/STM32L1xx_HAL_Driver/Src/stm32l1xx_hal_flash_ex.c **** 
 1650              		.loc 1 853 0
 1651 0000 254B     		ldr	r3, .L179
 1652 0002 1B7C     		ldrb	r3, [r3, #16]	@ zero_extendqisi2
 1653 0004 012B     		cmp	r3, #1
 1654 0006 02D1     		bne	.L172
 1655 0008 0223     		movs	r3, #2
 907:Drivers/STM32L1xx_HAL_Driver/Src/stm32l1xx_hal_flash_ex.c **** 
 1656              		.loc 1 907 0
 1657 000a 1846     		mov	r0, r3
 1658              	.LVL233:
 1659 000c 7047     		bx	lr
 1660              	.LVL234:
 1661              	.L172:
 849:Drivers/STM32L1xx_HAL_Driver/Src/stm32l1xx_hal_flash_ex.c ****   HAL_StatusTypeDef status = HAL_ERROR;
 1662              		.loc 1 849 0 discriminator 2
 1663 000e 70B5     		push	{r4, r5, r6, lr}
 1664              	.LCFI18:
 1665              		.cfi_def_cfa_offset 16
 1666              		.cfi_offset 4, -16
 1667              		.cfi_offset 5, -12
 1668              		.cfi_offset 6, -8
 1669              		.cfi_offset 14, -4
 1670 0010 1646     		mov	r6, r2
 1671 0012 0D46     		mov	r5, r1
 1672 0014 0446     		mov	r4, r0
 853:Drivers/STM32L1xx_HAL_Driver/Src/stm32l1xx_hal_flash_ex.c **** 
 1673              		.loc 1 853 0 discriminator 2
 1674 0016 0122     		movs	r2, #1
 1675              	.LVL235:
 1676 0018 1F4B     		ldr	r3, .L179
 1677 001a 1A74     		strb	r2, [r3, #16]
 859:Drivers/STM32L1xx_HAL_Driver/Src/stm32l1xx_hal_flash_ex.c **** 
 1678              		.loc 1 859 0 discriminator 2
 1679 001c 4CF25030 		movw	r0, #50000
 1680              	.LVL236:
 1681 0020 FFF7FEFF 		bl	FLASH_WaitForLastOperation
 1682              	.LVL237:
 861:Drivers/STM32L1xx_HAL_Driver/Src/stm32l1xx_hal_flash_ex.c ****   {
 1683              		.loc 1 861 0 discriminator 2
 1684 0024 0346     		mov	r3, r0
 1685 0026 70B9     		cbnz	r0, .L160
 864:Drivers/STM32L1xx_HAL_Driver/Src/stm32l1xx_hal_flash_ex.c **** 
 1686              		.loc 1 864 0
 1687 0028 0022     		movs	r2, #0
 1688 002a 1B4B     		ldr	r3, .L179
 1689 002c 5A61     		str	r2, [r3, #20]
 866:Drivers/STM32L1xx_HAL_Driver/Src/stm32l1xx_hal_flash_ex.c ****     {
 1690              		.loc 1 866 0
 1691 002e 022C     		cmp	r4, #2
 1692 0030 0ED0     		beq	.L173
 871:Drivers/STM32L1xx_HAL_Driver/Src/stm32l1xx_hal_flash_ex.c ****     {
 1693              		.loc 1 871 0
 1694 0032 012C     		cmp	r4, #1
 1695 0034 12D0     		beq	.L174
 876:Drivers/STM32L1xx_HAL_Driver/Src/stm32l1xx_hal_flash_ex.c ****     {
ARM GAS  /tmp/ccAAsIoz.s 			page 65


 1696              		.loc 1 876 0
 1697 0036 BCB1     		cbz	r4, .L175
 881:Drivers/STM32L1xx_HAL_Driver/Src/stm32l1xx_hal_flash_ex.c ****     {
 1698              		.loc 1 881 0
 1699 0038 042C     		cmp	r4, #4
 1700 003a 1BD0     		beq	.L176
 886:Drivers/STM32L1xx_HAL_Driver/Src/stm32l1xx_hal_flash_ex.c ****     {
 1701              		.loc 1 886 0
 1702 003c 082C     		cmp	r4, #8
 1703 003e 1FD0     		beq	.L177
 891:Drivers/STM32L1xx_HAL_Driver/Src/stm32l1xx_hal_flash_ex.c ****     {
 1704              		.loc 1 891 0
 1705 0040 102C     		cmp	r4, #16
 1706 0042 23D0     		beq	.L178
 898:Drivers/STM32L1xx_HAL_Driver/Src/stm32l1xx_hal_flash_ex.c ****     }
 1707              		.loc 1 898 0
 1708 0044 0123     		movs	r3, #1
 1709              	.LVL238:
 1710              	.L160:
 904:Drivers/STM32L1xx_HAL_Driver/Src/stm32l1xx_hal_flash_ex.c **** 
 1711              		.loc 1 904 0
 1712 0046 0021     		movs	r1, #0
 1713 0048 134A     		ldr	r2, .L179
 1714 004a 1174     		strb	r1, [r2, #16]
 907:Drivers/STM32L1xx_HAL_Driver/Src/stm32l1xx_hal_flash_ex.c **** 
 1715              		.loc 1 907 0
 1716 004c 1846     		mov	r0, r3
 1717 004e 70BD     		pop	{r4, r5, r6, pc}
 1718              	.LVL239:
 1719              	.L173:
 869:Drivers/STM32L1xx_HAL_Driver/Src/stm32l1xx_hal_flash_ex.c ****     }
 1720              		.loc 1 869 0
 1721 0050 3146     		mov	r1, r6
 1722 0052 2846     		mov	r0, r5
 1723              	.LVL240:
 1724 0054 FFF7FEFF 		bl	FLASH_DATAEEPROM_ProgramWord
 1725              	.LVL241:
 1726 0058 0346     		mov	r3, r0
 1727              	.LVL242:
 1728 005a F4E7     		b	.L160
 1729              	.LVL243:
 1730              	.L174:
 874:Drivers/STM32L1xx_HAL_Driver/Src/stm32l1xx_hal_flash_ex.c ****     }
 1731              		.loc 1 874 0
 1732 005c B1B2     		uxth	r1, r6
 1733 005e 2846     		mov	r0, r5
 1734              	.LVL244:
 1735 0060 FFF7FEFF 		bl	FLASH_DATAEEPROM_ProgramHalfWord
 1736              	.LVL245:
 1737 0064 0346     		mov	r3, r0
 1738              	.LVL246:
 1739 0066 EEE7     		b	.L160
 1740              	.LVL247:
 1741              	.L175:
 879:Drivers/STM32L1xx_HAL_Driver/Src/stm32l1xx_hal_flash_ex.c ****     }
 1742              		.loc 1 879 0
 1743 0068 F1B2     		uxtb	r1, r6
ARM GAS  /tmp/ccAAsIoz.s 			page 66


 1744 006a 2846     		mov	r0, r5
 1745              	.LVL248:
 1746 006c FFF7FEFF 		bl	FLASH_DATAEEPROM_ProgramByte
 1747              	.LVL249:
 1748 0070 0346     		mov	r3, r0
 1749              	.LVL250:
 1750 0072 E8E7     		b	.L160
 1751              	.LVL251:
 1752              	.L176:
 884:Drivers/STM32L1xx_HAL_Driver/Src/stm32l1xx_hal_flash_ex.c ****     }
 1753              		.loc 1 884 0
 1754 0074 F1B2     		uxtb	r1, r6
 1755 0076 2846     		mov	r0, r5
 1756              	.LVL252:
 1757 0078 FFF7FEFF 		bl	FLASH_DATAEEPROM_FastProgramByte
 1758              	.LVL253:
 1759 007c 0346     		mov	r3, r0
 1760              	.LVL254:
 1761 007e E2E7     		b	.L160
 1762              	.LVL255:
 1763              	.L177:
 889:Drivers/STM32L1xx_HAL_Driver/Src/stm32l1xx_hal_flash_ex.c ****     }
 1764              		.loc 1 889 0
 1765 0080 B1B2     		uxth	r1, r6
 1766 0082 2846     		mov	r0, r5
 1767              	.LVL256:
 1768 0084 FFF7FEFF 		bl	FLASH_DATAEEPROM_FastProgramHalfWord
 1769              	.LVL257:
 1770 0088 0346     		mov	r3, r0
 1771              	.LVL258:
 1772 008a DCE7     		b	.L160
 1773              	.LVL259:
 1774              	.L178:
 894:Drivers/STM32L1xx_HAL_Driver/Src/stm32l1xx_hal_flash_ex.c ****     }
 1775              		.loc 1 894 0
 1776 008c 3146     		mov	r1, r6
 1777 008e 2846     		mov	r0, r5
 1778              	.LVL260:
 1779 0090 FFF7FEFF 		bl	FLASH_DATAEEPROM_FastProgramWord
 1780              	.LVL261:
 1781 0094 0346     		mov	r3, r0
 1782              	.LVL262:
 1783 0096 D6E7     		b	.L160
 1784              	.L180:
 1785              		.align	2
 1786              	.L179:
 1787 0098 00000000 		.word	pFlash
 1788              		.cfi_endproc
 1789              	.LFE81:
 1791              		.section	.text.HAL_FLASHEx_DATAEEPROM_EnableFixedTimeProgram,"ax",%progbits
 1792              		.align	1
 1793              		.global	HAL_FLASHEx_DATAEEPROM_EnableFixedTimeProgram
 1794              		.syntax unified
 1795              		.thumb
 1796              		.thumb_func
 1797              		.fpu softvfp
 1799              	HAL_FLASHEx_DATAEEPROM_EnableFixedTimeProgram:
ARM GAS  /tmp/ccAAsIoz.s 			page 67


 1800              	.LFB82:
 914:Drivers/STM32L1xx_HAL_Driver/Src/stm32l1xx_hal_flash_ex.c ****   SET_BIT(FLASH->PECR, FLASH_PECR_FTDW);
 1801              		.loc 1 914 0
 1802              		.cfi_startproc
 1803              		@ args = 0, pretend = 0, frame = 0
 1804              		@ frame_needed = 0, uses_anonymous_args = 0
 1805              		@ link register save eliminated.
 915:Drivers/STM32L1xx_HAL_Driver/Src/stm32l1xx_hal_flash_ex.c **** }
 1806              		.loc 1 915 0
 1807 0000 024A     		ldr	r2, .L182
 1808 0002 5368     		ldr	r3, [r2, #4]
 1809 0004 43F48073 		orr	r3, r3, #256
 1810 0008 5360     		str	r3, [r2, #4]
 1811 000a 7047     		bx	lr
 1812              	.L183:
 1813              		.align	2
 1814              	.L182:
 1815 000c 003C0240 		.word	1073888256
 1816              		.cfi_endproc
 1817              	.LFE82:
 1819              		.section	.text.HAL_FLASHEx_DATAEEPROM_DisableFixedTimeProgram,"ax",%progbits
 1820              		.align	1
 1821              		.global	HAL_FLASHEx_DATAEEPROM_DisableFixedTimeProgram
 1822              		.syntax unified
 1823              		.thumb
 1824              		.thumb_func
 1825              		.fpu softvfp
 1827              	HAL_FLASHEx_DATAEEPROM_DisableFixedTimeProgram:
 1828              	.LFB83:
 923:Drivers/STM32L1xx_HAL_Driver/Src/stm32l1xx_hal_flash_ex.c ****   CLEAR_BIT(FLASH->PECR, FLASH_PECR_FTDW);
 1829              		.loc 1 923 0
 1830              		.cfi_startproc
 1831              		@ args = 0, pretend = 0, frame = 0
 1832              		@ frame_needed = 0, uses_anonymous_args = 0
 1833              		@ link register save eliminated.
 924:Drivers/STM32L1xx_HAL_Driver/Src/stm32l1xx_hal_flash_ex.c **** }
 1834              		.loc 1 924 0
 1835 0000 024A     		ldr	r2, .L185
 1836 0002 5368     		ldr	r3, [r2, #4]
 1837 0004 23F48073 		bic	r3, r3, #256
 1838 0008 5360     		str	r3, [r2, #4]
 1839 000a 7047     		bx	lr
 1840              	.L186:
 1841              		.align	2
 1842              	.L185:
 1843 000c 003C0240 		.word	1073888256
 1844              		.cfi_endproc
 1845              	.LFE83:
 1847              		.section	.text.FLASH_PageErase,"ax",%progbits
 1848              		.align	1
 1849              		.global	FLASH_PageErase
 1850              		.syntax unified
 1851              		.thumb
 1852              		.thumb_func
 1853              		.fpu softvfp
 1855              	FLASH_PageErase:
 1856              	.LFB102:
ARM GAS  /tmp/ccAAsIoz.s 			page 68


1820:Drivers/STM32L1xx_HAL_Driver/Src/stm32l1xx_hal_flash_ex.c **** 
1821:Drivers/STM32L1xx_HAL_Driver/Src/stm32l1xx_hal_flash_ex.c **** /**
1822:Drivers/STM32L1xx_HAL_Driver/Src/stm32l1xx_hal_flash_ex.c ****   * @}
1823:Drivers/STM32L1xx_HAL_Driver/Src/stm32l1xx_hal_flash_ex.c ****   */
1824:Drivers/STM32L1xx_HAL_Driver/Src/stm32l1xx_hal_flash_ex.c **** 
1825:Drivers/STM32L1xx_HAL_Driver/Src/stm32l1xx_hal_flash_ex.c **** /**
1826:Drivers/STM32L1xx_HAL_Driver/Src/stm32l1xx_hal_flash_ex.c ****   * @}
1827:Drivers/STM32L1xx_HAL_Driver/Src/stm32l1xx_hal_flash_ex.c ****   */
1828:Drivers/STM32L1xx_HAL_Driver/Src/stm32l1xx_hal_flash_ex.c **** 
1829:Drivers/STM32L1xx_HAL_Driver/Src/stm32l1xx_hal_flash_ex.c **** /** @addtogroup FLASH
1830:Drivers/STM32L1xx_HAL_Driver/Src/stm32l1xx_hal_flash_ex.c ****   * @{
1831:Drivers/STM32L1xx_HAL_Driver/Src/stm32l1xx_hal_flash_ex.c ****   */
1832:Drivers/STM32L1xx_HAL_Driver/Src/stm32l1xx_hal_flash_ex.c **** 
1833:Drivers/STM32L1xx_HAL_Driver/Src/stm32l1xx_hal_flash_ex.c **** 
1834:Drivers/STM32L1xx_HAL_Driver/Src/stm32l1xx_hal_flash_ex.c **** /** @addtogroup FLASH_Private_Functions
1835:Drivers/STM32L1xx_HAL_Driver/Src/stm32l1xx_hal_flash_ex.c ****  * @{
1836:Drivers/STM32L1xx_HAL_Driver/Src/stm32l1xx_hal_flash_ex.c ****  */
1837:Drivers/STM32L1xx_HAL_Driver/Src/stm32l1xx_hal_flash_ex.c **** 
1838:Drivers/STM32L1xx_HAL_Driver/Src/stm32l1xx_hal_flash_ex.c **** /**
1839:Drivers/STM32L1xx_HAL_Driver/Src/stm32l1xx_hal_flash_ex.c ****   * @brief  Erases a specified page in program memory.
1840:Drivers/STM32L1xx_HAL_Driver/Src/stm32l1xx_hal_flash_ex.c ****   * @param  PageAddress The page address in program memory to be erased.
1841:Drivers/STM32L1xx_HAL_Driver/Src/stm32l1xx_hal_flash_ex.c ****   * @note   A Page is erased in the Program memory only if the address to load
1842:Drivers/STM32L1xx_HAL_Driver/Src/stm32l1xx_hal_flash_ex.c ****   *         is the start address of a page (multiple of @ref FLASH_PAGE_SIZE bytes).
1843:Drivers/STM32L1xx_HAL_Driver/Src/stm32l1xx_hal_flash_ex.c ****   * @retval None
1844:Drivers/STM32L1xx_HAL_Driver/Src/stm32l1xx_hal_flash_ex.c ****   */
1845:Drivers/STM32L1xx_HAL_Driver/Src/stm32l1xx_hal_flash_ex.c **** void FLASH_PageErase(uint32_t PageAddress)
1846:Drivers/STM32L1xx_HAL_Driver/Src/stm32l1xx_hal_flash_ex.c **** {
 1857              		.loc 1 1846 0
 1858              		.cfi_startproc
 1859              		@ args = 0, pretend = 0, frame = 0
 1860              		@ frame_needed = 0, uses_anonymous_args = 0
 1861              		@ link register save eliminated.
 1862              	.LVL263:
1847:Drivers/STM32L1xx_HAL_Driver/Src/stm32l1xx_hal_flash_ex.c ****   /* Clean the error context */
1848:Drivers/STM32L1xx_HAL_Driver/Src/stm32l1xx_hal_flash_ex.c ****   pFlash.ErrorCode = HAL_FLASH_ERROR_NONE;
 1863              		.loc 1 1848 0
 1864 0000 0021     		movs	r1, #0
 1865 0002 074B     		ldr	r3, .L188
 1866 0004 5961     		str	r1, [r3, #20]
1849:Drivers/STM32L1xx_HAL_Driver/Src/stm32l1xx_hal_flash_ex.c **** 
1850:Drivers/STM32L1xx_HAL_Driver/Src/stm32l1xx_hal_flash_ex.c ****   /* Set the ERASE bit */
1851:Drivers/STM32L1xx_HAL_Driver/Src/stm32l1xx_hal_flash_ex.c ****   SET_BIT(FLASH->PECR, FLASH_PECR_ERASE);
 1867              		.loc 1 1851 0
 1868 0006 074B     		ldr	r3, .L188+4
 1869 0008 5A68     		ldr	r2, [r3, #4]
 1870 000a 42F40072 		orr	r2, r2, #512
 1871 000e 5A60     		str	r2, [r3, #4]
1852:Drivers/STM32L1xx_HAL_Driver/Src/stm32l1xx_hal_flash_ex.c **** 
1853:Drivers/STM32L1xx_HAL_Driver/Src/stm32l1xx_hal_flash_ex.c ****   /* Set PROG bit */
1854:Drivers/STM32L1xx_HAL_Driver/Src/stm32l1xx_hal_flash_ex.c ****   SET_BIT(FLASH->PECR, FLASH_PECR_PROG);
 1872              		.loc 1 1854 0
 1873 0010 5A68     		ldr	r2, [r3, #4]
 1874 0012 42F00802 		orr	r2, r2, #8
 1875 0016 5A60     		str	r2, [r3, #4]
1855:Drivers/STM32L1xx_HAL_Driver/Src/stm32l1xx_hal_flash_ex.c **** 
1856:Drivers/STM32L1xx_HAL_Driver/Src/stm32l1xx_hal_flash_ex.c ****   /* Write 00000000h to the first word of the program page to erase */
1857:Drivers/STM32L1xx_HAL_Driver/Src/stm32l1xx_hal_flash_ex.c ****   *(__IO uint32_t *)(uint32_t)(PageAddress & ~(FLASH_PAGE_SIZE - 1)) = 0x00000000;
ARM GAS  /tmp/ccAAsIoz.s 			page 69


 1876              		.loc 1 1857 0
 1877 0018 20F0FF00 		bic	r0, r0, #255
 1878              	.LVL264:
 1879 001c 0160     		str	r1, [r0]
 1880 001e 7047     		bx	lr
 1881              	.L189:
 1882              		.align	2
 1883              	.L188:
 1884 0020 00000000 		.word	pFlash
 1885 0024 003C0240 		.word	1073888256
 1886              		.cfi_endproc
 1887              	.LFE102:
 1889              		.section	.text.HAL_FLASHEx_Erase,"ax",%progbits
 1890              		.align	1
 1891              		.global	HAL_FLASHEx_Erase
 1892              		.syntax unified
 1893              		.thumb
 1894              		.thumb_func
 1895              		.fpu softvfp
 1897              	HAL_FLASHEx_Erase:
 1898              	.LFB72:
 188:Drivers/STM32L1xx_HAL_Driver/Src/stm32l1xx_hal_flash_ex.c ****   HAL_StatusTypeDef status = HAL_ERROR;
 1899              		.loc 1 188 0
 1900              		.cfi_startproc
 1901              		@ args = 0, pretend = 0, frame = 0
 1902              		@ frame_needed = 0, uses_anonymous_args = 0
 1903              	.LVL265:
 193:Drivers/STM32L1xx_HAL_Driver/Src/stm32l1xx_hal_flash_ex.c **** 
 1904              		.loc 1 193 0
 1905 0000 1B4B     		ldr	r3, .L203
 1906 0002 1B7C     		ldrb	r3, [r3, #16]	@ zero_extendqisi2
 1907 0004 012B     		cmp	r3, #1
 1908 0006 02D1     		bne	.L201
 1909 0008 0221     		movs	r1, #2
 1910              	.LVL266:
 266:Drivers/STM32L1xx_HAL_Driver/Src/stm32l1xx_hal_flash_ex.c **** 
 1911              		.loc 1 266 0
 1912 000a 0846     		mov	r0, r1
 1913              	.LVL267:
 1914 000c 7047     		bx	lr
 1915              	.LVL268:
 1916              	.L201:
 188:Drivers/STM32L1xx_HAL_Driver/Src/stm32l1xx_hal_flash_ex.c ****   HAL_StatusTypeDef status = HAL_ERROR;
 1917              		.loc 1 188 0 discriminator 2
 1918 000e 70B5     		push	{r4, r5, r6, lr}
 1919              	.LCFI19:
 1920              		.cfi_def_cfa_offset 16
 1921              		.cfi_offset 4, -16
 1922              		.cfi_offset 5, -12
 1923              		.cfi_offset 6, -8
 1924              		.cfi_offset 14, -4
 1925 0010 0E46     		mov	r6, r1
 1926 0012 0546     		mov	r5, r0
 193:Drivers/STM32L1xx_HAL_Driver/Src/stm32l1xx_hal_flash_ex.c **** 
 1927              		.loc 1 193 0 discriminator 2
 1928 0014 0122     		movs	r2, #1
 1929 0016 164B     		ldr	r3, .L203
ARM GAS  /tmp/ccAAsIoz.s 			page 70


 1930 0018 1A74     		strb	r2, [r3, #16]
 196:Drivers/STM32L1xx_HAL_Driver/Src/stm32l1xx_hal_flash_ex.c **** 
 1931              		.loc 1 196 0 discriminator 2
 1932 001a 4CF25030 		movw	r0, #50000
 1933              	.LVL269:
 1934 001e FFF7FEFF 		bl	FLASH_WaitForLastOperation
 1935              	.LVL270:
 198:Drivers/STM32L1xx_HAL_Driver/Src/stm32l1xx_hal_flash_ex.c ****   {
 1936              		.loc 1 198 0 discriminator 2
 1937 0022 0146     		mov	r1, r0
 1938 0024 F8B9     		cbnz	r0, .L192
 201:Drivers/STM32L1xx_HAL_Driver/Src/stm32l1xx_hal_flash_ex.c **** 
 1939              		.loc 1 201 0
 1940 0026 4FF0FF33 		mov	r3, #-1
 1941 002a 3360     		str	r3, [r6]
 240:Drivers/STM32L1xx_HAL_Driver/Src/stm32l1xx_hal_flash_ex.c ****         address < ((pEraseInit->NbPages * FLASH_PAGE_SIZE) + pEraseInit->PageAddress);
 1942              		.loc 1 240 0
 1943 002c 6C68     		ldr	r4, [r5, #4]
 1944              	.LVL271:
 1945              	.L193:
 241:Drivers/STM32L1xx_HAL_Driver/Src/stm32l1xx_hal_flash_ex.c ****         address += FLASH_PAGE_SIZE)
 1946              		.loc 1 241 0 discriminator 1
 1947 002e AA68     		ldr	r2, [r5, #8]
 1948 0030 6B68     		ldr	r3, [r5, #4]
 1949 0032 03EB0223 		add	r3, r3, r2, lsl #8
 240:Drivers/STM32L1xx_HAL_Driver/Src/stm32l1xx_hal_flash_ex.c ****         address < ((pEraseInit->NbPages * FLASH_PAGE_SIZE) + pEraseInit->PageAddress);
 1950              		.loc 1 240 0 discriminator 1
 1951 0036 9C42     		cmp	r4, r3
 1952 0038 15D2     		bcs	.L192
 244:Drivers/STM32L1xx_HAL_Driver/Src/stm32l1xx_hal_flash_ex.c **** 
 1953              		.loc 1 244 0
 1954 003a 2046     		mov	r0, r4
 1955 003c FFF7FEFF 		bl	FLASH_PageErase
 1956              	.LVL272:
 247:Drivers/STM32L1xx_HAL_Driver/Src/stm32l1xx_hal_flash_ex.c **** 
 1957              		.loc 1 247 0
 1958 0040 4CF25030 		movw	r0, #50000
 1959 0044 FFF7FEFF 		bl	FLASH_WaitForLastOperation
 1960              	.LVL273:
 250:Drivers/STM32L1xx_HAL_Driver/Src/stm32l1xx_hal_flash_ex.c ****       CLEAR_BIT(FLASH->PECR, FLASH_PECR_ERASE);
 1961              		.loc 1 250 0
 1962 0048 0A4B     		ldr	r3, .L203+4
 1963 004a 5A68     		ldr	r2, [r3, #4]
 1964 004c 22F00802 		bic	r2, r2, #8
 1965 0050 5A60     		str	r2, [r3, #4]
 251:Drivers/STM32L1xx_HAL_Driver/Src/stm32l1xx_hal_flash_ex.c **** 
 1966              		.loc 1 251 0
 1967 0052 5A68     		ldr	r2, [r3, #4]
 1968 0054 22F40072 		bic	r2, r2, #512
 1969 0058 5A60     		str	r2, [r3, #4]
 253:Drivers/STM32L1xx_HAL_Driver/Src/stm32l1xx_hal_flash_ex.c ****       {
 1970              		.loc 1 253 0
 1971 005a 0146     		mov	r1, r0
 1972 005c 10B9     		cbnz	r0, .L202
 242:Drivers/STM32L1xx_HAL_Driver/Src/stm32l1xx_hal_flash_ex.c ****     {
 1973              		.loc 1 242 0
 1974 005e 04F58074 		add	r4, r4, #256
ARM GAS  /tmp/ccAAsIoz.s 			page 71


 1975              	.LVL274:
 1976 0062 E4E7     		b	.L193
 1977              	.L202:
 256:Drivers/STM32L1xx_HAL_Driver/Src/stm32l1xx_hal_flash_ex.c ****         break;
 1978              		.loc 1 256 0
 1979 0064 3460     		str	r4, [r6]
 1980              	.LVL275:
 1981              	.L192:
 263:Drivers/STM32L1xx_HAL_Driver/Src/stm32l1xx_hal_flash_ex.c **** 
 1982              		.loc 1 263 0
 1983 0066 0022     		movs	r2, #0
 1984 0068 014B     		ldr	r3, .L203
 1985 006a 1A74     		strb	r2, [r3, #16]
 266:Drivers/STM32L1xx_HAL_Driver/Src/stm32l1xx_hal_flash_ex.c **** 
 1986              		.loc 1 266 0
 1987 006c 0846     		mov	r0, r1
 1988 006e 70BD     		pop	{r4, r5, r6, pc}
 1989              	.LVL276:
 1990              	.L204:
 1991              		.align	2
 1992              	.L203:
 1993 0070 00000000 		.word	pFlash
 1994 0074 003C0240 		.word	1073888256
 1995              		.cfi_endproc
 1996              	.LFE72:
 1998              		.section	.text.HAL_FLASHEx_Erase_IT,"ax",%progbits
 1999              		.align	1
 2000              		.global	HAL_FLASHEx_Erase_IT
 2001              		.syntax unified
 2002              		.thumb
 2003              		.thumb_func
 2004              		.fpu softvfp
 2006              	HAL_FLASHEx_Erase_IT:
 2007              	.LFB73:
 284:Drivers/STM32L1xx_HAL_Driver/Src/stm32l1xx_hal_flash_ex.c ****   HAL_StatusTypeDef status = HAL_ERROR;
 2008              		.loc 1 284 0
 2009              		.cfi_startproc
 2010              		@ args = 0, pretend = 0, frame = 0
 2011              		@ frame_needed = 0, uses_anonymous_args = 0
 2012              	.LVL277:
 2013 0000 38B5     		push	{r3, r4, r5, lr}
 2014              	.LCFI20:
 2015              		.cfi_def_cfa_offset 16
 2016              		.cfi_offset 3, -16
 2017              		.cfi_offset 4, -12
 2018              		.cfi_offset 5, -8
 2019              		.cfi_offset 14, -4
 2020              	.LVL278:
 288:Drivers/STM32L1xx_HAL_Driver/Src/stm32l1xx_hal_flash_ex.c ****   {
 2021              		.loc 1 288 0
 2022 0002 154B     		ldr	r3, .L213
 2023 0004 1B78     		ldrb	r3, [r3]	@ zero_extendqisi2
 2024 0006 23BB     		cbnz	r3, .L208
 300:Drivers/STM32L1xx_HAL_Driver/Src/stm32l1xx_hal_flash_ex.c **** 
 2025              		.loc 1 300 0
 2026 0008 134B     		ldr	r3, .L213
 2027 000a 1B7C     		ldrb	r3, [r3, #16]	@ zero_extendqisi2
ARM GAS  /tmp/ccAAsIoz.s 			page 72


 2028 000c 012B     		cmp	r3, #1
 2029 000e 02D1     		bne	.L211
 2030 0010 0224     		movs	r4, #2
 2031              	.LVL279:
 2032              	.L206:
 354:Drivers/STM32L1xx_HAL_Driver/Src/stm32l1xx_hal_flash_ex.c **** 
 2033              		.loc 1 354 0
 2034 0012 2046     		mov	r0, r4
 2035 0014 38BD     		pop	{r3, r4, r5, pc}
 2036              	.LVL280:
 2037              	.L211:
 2038 0016 0546     		mov	r5, r0
 300:Drivers/STM32L1xx_HAL_Driver/Src/stm32l1xx_hal_flash_ex.c **** 
 2039              		.loc 1 300 0 discriminator 2
 2040 0018 0122     		movs	r2, #1
 2041 001a 0F4B     		ldr	r3, .L213
 2042 001c 1A74     		strb	r2, [r3, #16]
 333:Drivers/STM32L1xx_HAL_Driver/Src/stm32l1xx_hal_flash_ex.c **** 
 2043              		.loc 1 333 0 discriminator 2
 2044 001e 4CF25030 		movw	r0, #50000
 2045              	.LVL281:
 2046 0022 FFF7FEFF 		bl	FLASH_WaitForLastOperation
 2047              	.LVL282:
 335:Drivers/STM32L1xx_HAL_Driver/Src/stm32l1xx_hal_flash_ex.c ****   {
 2048              		.loc 1 335 0 discriminator 2
 2049 0026 0446     		mov	r4, r0
 2050 0028 18B1     		cbz	r0, .L212
 350:Drivers/STM32L1xx_HAL_Driver/Src/stm32l1xx_hal_flash_ex.c ****   }
 2051              		.loc 1 350 0
 2052 002a 0022     		movs	r2, #0
 2053 002c 0A4B     		ldr	r3, .L213
 2054 002e 1A74     		strb	r2, [r3, #16]
 2055 0030 EFE7     		b	.L206
 2056              	.L212:
 338:Drivers/STM32L1xx_HAL_Driver/Src/stm32l1xx_hal_flash_ex.c **** 
 2057              		.loc 1 338 0
 2058 0032 0A4A     		ldr	r2, .L213+4
 2059 0034 5368     		ldr	r3, [r2, #4]
 2060 0036 43F44033 		orr	r3, r3, #196608
 2061 003a 5360     		str	r3, [r2, #4]
 340:Drivers/STM32L1xx_HAL_Driver/Src/stm32l1xx_hal_flash_ex.c ****     pFlash.NbPagesToErase = pEraseInit->NbPages;
 2062              		.loc 1 340 0
 2063 003c 064B     		ldr	r3, .L213
 2064 003e 0122     		movs	r2, #1
 2065 0040 1A70     		strb	r2, [r3]
 341:Drivers/STM32L1xx_HAL_Driver/Src/stm32l1xx_hal_flash_ex.c ****     pFlash.Page = pEraseInit->PageAddress;
 2066              		.loc 1 341 0
 2067 0042 AA68     		ldr	r2, [r5, #8]
 2068 0044 5A60     		str	r2, [r3, #4]
 342:Drivers/STM32L1xx_HAL_Driver/Src/stm32l1xx_hal_flash_ex.c **** 
 2069              		.loc 1 342 0
 2070 0046 6A68     		ldr	r2, [r5, #4]
 2071 0048 DA60     		str	r2, [r3, #12]
 345:Drivers/STM32L1xx_HAL_Driver/Src/stm32l1xx_hal_flash_ex.c ****   }
 2072              		.loc 1 345 0
 2073 004a 6868     		ldr	r0, [r5, #4]
 2074              	.LVL283:
ARM GAS  /tmp/ccAAsIoz.s 			page 73


 2075 004c FFF7FEFF 		bl	FLASH_PageErase
 2076              	.LVL284:
 2077 0050 DFE7     		b	.L206
 2078              	.LVL285:
 2079              	.L208:
 290:Drivers/STM32L1xx_HAL_Driver/Src/stm32l1xx_hal_flash_ex.c ****   }
 2080              		.loc 1 290 0
 2081 0052 0124     		movs	r4, #1
 2082 0054 DDE7     		b	.L206
 2083              	.L214:
 2084 0056 00BF     		.align	2
 2085              	.L213:
 2086 0058 00000000 		.word	pFlash
 2087 005c 003C0240 		.word	1073888256
 2088              		.cfi_endproc
 2089              	.LFE73:
 2091              		.text
 2092              	.Letext0:
 2093              		.file 2 "/opt/gcc4mbed/gcc-arm-none-eabi/arm-none-eabi/include/machine/_default_types.h"
 2094              		.file 3 "/opt/gcc4mbed/gcc-arm-none-eabi/arm-none-eabi/include/sys/_stdint.h"
 2095              		.file 4 "Drivers/CMSIS/Include/core_cm3.h"
 2096              		.file 5 "Drivers/CMSIS/Device/ST/STM32L1xx/Include/system_stm32l1xx.h"
 2097              		.file 6 "Drivers/CMSIS/Device/ST/STM32L1xx/Include/stm32l152xe.h"
 2098              		.file 7 "Drivers/CMSIS/Device/ST/STM32L1xx/Include/stm32l1xx.h"
 2099              		.file 8 "Drivers/STM32L1xx_HAL_Driver/Inc/stm32l1xx_hal_def.h"
 2100              		.file 9 "Drivers/STM32L1xx_HAL_Driver/Inc/stm32l1xx_hal_flash.h"
 2101              		.file 10 "Drivers/STM32L1xx_HAL_Driver/Inc/stm32l1xx_hal_flash_ex.h"
 2102              		.file 11 "Drivers/STM32L1xx_HAL_Driver/Inc/stm32l1xx_hal.h"
ARM GAS  /tmp/ccAAsIoz.s 			page 74


DEFINED SYMBOLS
                            *ABS*:0000000000000000 stm32l1xx_hal_flash_ex.c
     /tmp/ccAAsIoz.s:16     .text.FLASH_OB_GetUser:0000000000000000 $t
     /tmp/ccAAsIoz.s:22     .text.FLASH_OB_GetUser:0000000000000000 FLASH_OB_GetUser
     /tmp/ccAAsIoz.s:40     .text.FLASH_OB_GetUser:000000000000000c $d
     /tmp/ccAAsIoz.s:45     .text.FLASH_OB_GetRDP:0000000000000000 $t
     /tmp/ccAAsIoz.s:51     .text.FLASH_OB_GetRDP:0000000000000000 FLASH_OB_GetRDP
     /tmp/ccAAsIoz.s:78     .text.FLASH_OB_GetRDP:0000000000000014 $d
     /tmp/ccAAsIoz.s:83     .text.FLASH_OB_GetBOR:0000000000000000 $t
     /tmp/ccAAsIoz.s:89     .text.FLASH_OB_GetBOR:0000000000000000 FLASH_OB_GetBOR
     /tmp/ccAAsIoz.s:105    .text.FLASH_OB_GetBOR:000000000000000c $d
     /tmp/ccAAsIoz.s:110    .text.FLASH_OB_WRPConfigWRP1OrPCROP1:0000000000000000 $t
     /tmp/ccAAsIoz.s:116    .text.FLASH_OB_WRPConfigWRP1OrPCROP1:0000000000000000 FLASH_OB_WRPConfigWRP1OrPCROP1
     /tmp/ccAAsIoz.s:187    .text.FLASH_OB_WRPConfigWRP1OrPCROP1:0000000000000048 $d
     /tmp/ccAAsIoz.s:192    .text.FLASH_OB_WRPConfigWRP2OrPCROP2:0000000000000000 $t
     /tmp/ccAAsIoz.s:198    .text.FLASH_OB_WRPConfigWRP2OrPCROP2:0000000000000000 FLASH_OB_WRPConfigWRP2OrPCROP2
     /tmp/ccAAsIoz.s:269    .text.FLASH_OB_WRPConfigWRP2OrPCROP2:0000000000000048 $d
     /tmp/ccAAsIoz.s:274    .text.FLASH_OB_WRPConfigWRP3:0000000000000000 $t
     /tmp/ccAAsIoz.s:280    .text.FLASH_OB_WRPConfigWRP3:0000000000000000 FLASH_OB_WRPConfigWRP3
     /tmp/ccAAsIoz.s:351    .text.FLASH_OB_WRPConfigWRP3:0000000000000048 $d
     /tmp/ccAAsIoz.s:356    .text.FLASH_OB_WRPConfigWRP4:0000000000000000 $t
     /tmp/ccAAsIoz.s:362    .text.FLASH_OB_WRPConfigWRP4:0000000000000000 FLASH_OB_WRPConfigWRP4
     /tmp/ccAAsIoz.s:433    .text.FLASH_OB_WRPConfigWRP4:0000000000000058 $d
     /tmp/ccAAsIoz.s:438    .text.FLASH_OB_WRPConfig:0000000000000000 $t
     /tmp/ccAAsIoz.s:444    .text.FLASH_OB_WRPConfig:0000000000000000 FLASH_OB_WRPConfig
     /tmp/ccAAsIoz.s:528    .text.FLASH_OB_WRPConfig:0000000000000058 $d
     /tmp/ccAAsIoz.s:533    .text.FLASH_OB_RDPConfig:0000000000000000 $t
     /tmp/ccAAsIoz.s:539    .text.FLASH_OB_RDPConfig:0000000000000000 FLASH_OB_RDPConfig
     /tmp/ccAAsIoz.s:620    .text.FLASH_OB_RDPConfig:0000000000000044 $d
     /tmp/ccAAsIoz.s:626    .text.FLASH_OB_UserConfig:0000000000000000 $t
     /tmp/ccAAsIoz.s:632    .text.FLASH_OB_UserConfig:0000000000000000 FLASH_OB_UserConfig
     /tmp/ccAAsIoz.s:696    .text.FLASH_OB_UserConfig:0000000000000040 $d
     /tmp/ccAAsIoz.s:702    .text.FLASH_OB_BORConfig:0000000000000000 $t
     /tmp/ccAAsIoz.s:708    .text.FLASH_OB_BORConfig:0000000000000000 FLASH_OB_BORConfig
     /tmp/ccAAsIoz.s:768    .text.FLASH_OB_BORConfig:000000000000003c $d
     /tmp/ccAAsIoz.s:774    .text.FLASH_OB_BootConfig:0000000000000000 $t
     /tmp/ccAAsIoz.s:780    .text.FLASH_OB_BootConfig:0000000000000000 FLASH_OB_BootConfig
     /tmp/ccAAsIoz.s:840    .text.FLASH_OB_BootConfig:000000000000003c $d
     /tmp/ccAAsIoz.s:846    .text.FLASH_DATAEEPROM_ProgramWord:0000000000000000 $t
     /tmp/ccAAsIoz.s:852    .text.FLASH_DATAEEPROM_ProgramWord:0000000000000000 FLASH_DATAEEPROM_ProgramWord
     /tmp/ccAAsIoz.s:898    .text.FLASH_DATAEEPROM_ProgramHalfWord:0000000000000000 $t
     /tmp/ccAAsIoz.s:904    .text.FLASH_DATAEEPROM_ProgramHalfWord:0000000000000000 FLASH_DATAEEPROM_ProgramHalfWord
     /tmp/ccAAsIoz.s:950    .text.FLASH_DATAEEPROM_ProgramByte:0000000000000000 $t
     /tmp/ccAAsIoz.s:956    .text.FLASH_DATAEEPROM_ProgramByte:0000000000000000 FLASH_DATAEEPROM_ProgramByte
     /tmp/ccAAsIoz.s:1002   .text.FLASH_DATAEEPROM_FastProgramByte:0000000000000000 $t
     /tmp/ccAAsIoz.s:1008   .text.FLASH_DATAEEPROM_FastProgramByte:0000000000000000 FLASH_DATAEEPROM_FastProgramByte
     /tmp/ccAAsIoz.s:1058   .text.FLASH_DATAEEPROM_FastProgramByte:0000000000000030 $d
     /tmp/ccAAsIoz.s:1063   .text.FLASH_DATAEEPROM_FastProgramHalfWord:0000000000000000 $t
     /tmp/ccAAsIoz.s:1069   .text.FLASH_DATAEEPROM_FastProgramHalfWord:0000000000000000 FLASH_DATAEEPROM_FastProgramHalfWord
     /tmp/ccAAsIoz.s:1119   .text.FLASH_DATAEEPROM_FastProgramHalfWord:0000000000000030 $d
     /tmp/ccAAsIoz.s:1124   .text.FLASH_DATAEEPROM_FastProgramWord:0000000000000000 $t
     /tmp/ccAAsIoz.s:1130   .text.FLASH_DATAEEPROM_FastProgramWord:0000000000000000 FLASH_DATAEEPROM_FastProgramWord
     /tmp/ccAAsIoz.s:1180   .text.FLASH_DATAEEPROM_FastProgramWord:0000000000000030 $d
     /tmp/ccAAsIoz.s:1185   .text.HAL_FLASHEx_OBProgram:0000000000000000 $t
     /tmp/ccAAsIoz.s:1192   .text.HAL_FLASHEx_OBProgram:0000000000000000 HAL_FLASHEx_OBProgram
     /tmp/ccAAsIoz.s:1346   .text.HAL_FLASHEx_OBProgram:00000000000000b0 $d
     /tmp/ccAAsIoz.s:1351   .text.HAL_FLASHEx_OBGetConfig:0000000000000000 $t
ARM GAS  /tmp/ccAAsIoz.s 			page 75


     /tmp/ccAAsIoz.s:1358   .text.HAL_FLASHEx_OBGetConfig:0000000000000000 HAL_FLASHEx_OBGetConfig
     /tmp/ccAAsIoz.s:1404   .text.HAL_FLASHEx_OBGetConfig:0000000000000034 $d
     /tmp/ccAAsIoz.s:1409   .text.HAL_FLASHEx_AdvOBProgram:0000000000000000 $t
     /tmp/ccAAsIoz.s:1416   .text.HAL_FLASHEx_AdvOBProgram:0000000000000000 HAL_FLASHEx_AdvOBProgram
     /tmp/ccAAsIoz.s:1450   .text.HAL_FLASHEx_AdvOBGetConfig:0000000000000000 $t
     /tmp/ccAAsIoz.s:1457   .text.HAL_FLASHEx_AdvOBGetConfig:0000000000000000 HAL_FLASHEx_AdvOBGetConfig
     /tmp/ccAAsIoz.s:1478   .text.HAL_FLASHEx_AdvOBGetConfig:0000000000000014 $d
     /tmp/ccAAsIoz.s:1483   .text.HAL_FLASHEx_DATAEEPROM_Unlock:0000000000000000 $t
     /tmp/ccAAsIoz.s:1490   .text.HAL_FLASHEx_DATAEEPROM_Unlock:0000000000000000 HAL_FLASHEx_DATAEEPROM_Unlock
     /tmp/ccAAsIoz.s:1520   .text.HAL_FLASHEx_DATAEEPROM_Unlock:000000000000001c $d
     /tmp/ccAAsIoz.s:1527   .text.HAL_FLASHEx_DATAEEPROM_Lock:0000000000000000 $t
     /tmp/ccAAsIoz.s:1534   .text.HAL_FLASHEx_DATAEEPROM_Lock:0000000000000000 HAL_FLASHEx_DATAEEPROM_Lock
     /tmp/ccAAsIoz.s:1552   .text.HAL_FLASHEx_DATAEEPROM_Lock:0000000000000010 $d
     /tmp/ccAAsIoz.s:1557   .text.HAL_FLASHEx_DATAEEPROM_Erase:0000000000000000 $t
     /tmp/ccAAsIoz.s:1564   .text.HAL_FLASHEx_DATAEEPROM_Erase:0000000000000000 HAL_FLASHEx_DATAEEPROM_Erase
     /tmp/ccAAsIoz.s:1631   .text.HAL_FLASHEx_DATAEEPROM_Erase:0000000000000040 $d
     /tmp/ccAAsIoz.s:1636   .text.HAL_FLASHEx_DATAEEPROM_Program:0000000000000000 $t
     /tmp/ccAAsIoz.s:1643   .text.HAL_FLASHEx_DATAEEPROM_Program:0000000000000000 HAL_FLASHEx_DATAEEPROM_Program
     /tmp/ccAAsIoz.s:1787   .text.HAL_FLASHEx_DATAEEPROM_Program:0000000000000098 $d
     /tmp/ccAAsIoz.s:1792   .text.HAL_FLASHEx_DATAEEPROM_EnableFixedTimeProgram:0000000000000000 $t
     /tmp/ccAAsIoz.s:1799   .text.HAL_FLASHEx_DATAEEPROM_EnableFixedTimeProgram:0000000000000000 HAL_FLASHEx_DATAEEPROM_EnableFixedTimeProgram
     /tmp/ccAAsIoz.s:1815   .text.HAL_FLASHEx_DATAEEPROM_EnableFixedTimeProgram:000000000000000c $d
     /tmp/ccAAsIoz.s:1820   .text.HAL_FLASHEx_DATAEEPROM_DisableFixedTimeProgram:0000000000000000 $t
     /tmp/ccAAsIoz.s:1827   .text.HAL_FLASHEx_DATAEEPROM_DisableFixedTimeProgram:0000000000000000 HAL_FLASHEx_DATAEEPROM_DisableFixedTimeProgram
     /tmp/ccAAsIoz.s:1843   .text.HAL_FLASHEx_DATAEEPROM_DisableFixedTimeProgram:000000000000000c $d
     /tmp/ccAAsIoz.s:1848   .text.FLASH_PageErase:0000000000000000 $t
     /tmp/ccAAsIoz.s:1855   .text.FLASH_PageErase:0000000000000000 FLASH_PageErase
     /tmp/ccAAsIoz.s:1884   .text.FLASH_PageErase:0000000000000020 $d
     /tmp/ccAAsIoz.s:1890   .text.HAL_FLASHEx_Erase:0000000000000000 $t
     /tmp/ccAAsIoz.s:1897   .text.HAL_FLASHEx_Erase:0000000000000000 HAL_FLASHEx_Erase
     /tmp/ccAAsIoz.s:1993   .text.HAL_FLASHEx_Erase:0000000000000070 $d
     /tmp/ccAAsIoz.s:1999   .text.HAL_FLASHEx_Erase_IT:0000000000000000 $t
     /tmp/ccAAsIoz.s:2006   .text.HAL_FLASHEx_Erase_IT:0000000000000000 HAL_FLASHEx_Erase_IT
     /tmp/ccAAsIoz.s:2086   .text.HAL_FLASHEx_Erase_IT:0000000000000058 $d
                     .debug_frame:0000000000000010 $d

UNDEFINED SYMBOLS
FLASH_WaitForLastOperation
pFlash
