ARM GAS  /tmp/ccfbgGae.s 			page 1


   1              		.cpu cortex-m3
   2              		.eabi_attribute 20, 1
   3              		.eabi_attribute 21, 1
   4              		.eabi_attribute 23, 3
   5              		.eabi_attribute 24, 1
   6              		.eabi_attribute 25, 1
   7              		.eabi_attribute 26, 1
   8              		.eabi_attribute 30, 1
   9              		.eabi_attribute 34, 1
  10              		.eabi_attribute 18, 4
  11              		.file	"usbd_dfu.c"
  12              		.text
  13              	.Ltext0:
  14              		.cfi_sections	.debug_frame
  15              		.section	.text.USBD_DFU_GetCfgDesc,"ax",%progbits
  16              		.align	1
  17              		.syntax unified
  18              		.thumb
  19              		.thumb_func
  20              		.fpu softvfp
  22              	USBD_DFU_GetCfgDesc:
  23              	.LFB76:
  24              		.file 1 "Middlewares/ST/STM32_USB_Device_Library/Class/DFU/Src/usbd_dfu.c"
   1:Middlewares/ST/STM32_USB_Device_Library/Class/DFU/Src/usbd_dfu.c **** /**
   2:Middlewares/ST/STM32_USB_Device_Library/Class/DFU/Src/usbd_dfu.c ****   ******************************************************************************
   3:Middlewares/ST/STM32_USB_Device_Library/Class/DFU/Src/usbd_dfu.c ****   * @file    usbd_dfu.c
   4:Middlewares/ST/STM32_USB_Device_Library/Class/DFU/Src/usbd_dfu.c ****   * @author  MCD Application Team
   5:Middlewares/ST/STM32_USB_Device_Library/Class/DFU/Src/usbd_dfu.c ****   * @brief   This file provides the DFU core functions.
   6:Middlewares/ST/STM32_USB_Device_Library/Class/DFU/Src/usbd_dfu.c ****   *
   7:Middlewares/ST/STM32_USB_Device_Library/Class/DFU/Src/usbd_dfu.c ****   * @verbatim
   8:Middlewares/ST/STM32_USB_Device_Library/Class/DFU/Src/usbd_dfu.c ****   *
   9:Middlewares/ST/STM32_USB_Device_Library/Class/DFU/Src/usbd_dfu.c ****   *          ===================================================================
  10:Middlewares/ST/STM32_USB_Device_Library/Class/DFU/Src/usbd_dfu.c ****   *                                DFU Class Driver Description
  11:Middlewares/ST/STM32_USB_Device_Library/Class/DFU/Src/usbd_dfu.c ****   *          ===================================================================
  12:Middlewares/ST/STM32_USB_Device_Library/Class/DFU/Src/usbd_dfu.c ****   *           This driver manages the DFU class V1.1 following the "Device Class Specification for
  13:Middlewares/ST/STM32_USB_Device_Library/Class/DFU/Src/usbd_dfu.c ****   *           Device Firmware Upgrade Version 1.1 Aug 5, 2004".
  14:Middlewares/ST/STM32_USB_Device_Library/Class/DFU/Src/usbd_dfu.c ****   *           This driver implements the following aspects of the specification:
  15:Middlewares/ST/STM32_USB_Device_Library/Class/DFU/Src/usbd_dfu.c ****   *             - Device descriptor management
  16:Middlewares/ST/STM32_USB_Device_Library/Class/DFU/Src/usbd_dfu.c ****   *             - Configuration descriptor management
  17:Middlewares/ST/STM32_USB_Device_Library/Class/DFU/Src/usbd_dfu.c ****   *             - Enumeration as DFU device (in DFU mode only)
  18:Middlewares/ST/STM32_USB_Device_Library/Class/DFU/Src/usbd_dfu.c ****   *             - Requests management (supporting ST DFU sub-protocol)
  19:Middlewares/ST/STM32_USB_Device_Library/Class/DFU/Src/usbd_dfu.c ****   *             - Memory operations management (Download/Upload/Erase/Detach/GetState/GetStatus)
  20:Middlewares/ST/STM32_USB_Device_Library/Class/DFU/Src/usbd_dfu.c ****   *             - DFU state machine implementation.
  21:Middlewares/ST/STM32_USB_Device_Library/Class/DFU/Src/usbd_dfu.c ****   *
  22:Middlewares/ST/STM32_USB_Device_Library/Class/DFU/Src/usbd_dfu.c ****   *           @note
  23:Middlewares/ST/STM32_USB_Device_Library/Class/DFU/Src/usbd_dfu.c ****   *            ST DFU sub-protocol is compliant with DFU protocol and use sub-requests to manage
  24:Middlewares/ST/STM32_USB_Device_Library/Class/DFU/Src/usbd_dfu.c ****   *            memory addressing, commands processing, specific memories operations (ie. Erase) ...
  25:Middlewares/ST/STM32_USB_Device_Library/Class/DFU/Src/usbd_dfu.c ****   *            As required by the DFU specification, only endpoint 0 is used in this application.
  26:Middlewares/ST/STM32_USB_Device_Library/Class/DFU/Src/usbd_dfu.c ****   *            Other endpoints and functions may be added to the application (ie. DFU ...)
  27:Middlewares/ST/STM32_USB_Device_Library/Class/DFU/Src/usbd_dfu.c ****   *
  28:Middlewares/ST/STM32_USB_Device_Library/Class/DFU/Src/usbd_dfu.c ****   *           These aspects may be enriched or modified for a specific user application.
  29:Middlewares/ST/STM32_USB_Device_Library/Class/DFU/Src/usbd_dfu.c ****   *
  30:Middlewares/ST/STM32_USB_Device_Library/Class/DFU/Src/usbd_dfu.c ****   *           This driver doesn't implement the following aspects of the specification
  31:Middlewares/ST/STM32_USB_Device_Library/Class/DFU/Src/usbd_dfu.c ****   *           (but it is possible to manage these features with some modifications on this driver):
  32:Middlewares/ST/STM32_USB_Device_Library/Class/DFU/Src/usbd_dfu.c ****   *             - Manifestation Tolerant mode
  33:Middlewares/ST/STM32_USB_Device_Library/Class/DFU/Src/usbd_dfu.c ****   *
  34:Middlewares/ST/STM32_USB_Device_Library/Class/DFU/Src/usbd_dfu.c ****   *  @endverbatim
ARM GAS  /tmp/ccfbgGae.s 			page 2


  35:Middlewares/ST/STM32_USB_Device_Library/Class/DFU/Src/usbd_dfu.c ****   *
  36:Middlewares/ST/STM32_USB_Device_Library/Class/DFU/Src/usbd_dfu.c ****   ******************************************************************************
  37:Middlewares/ST/STM32_USB_Device_Library/Class/DFU/Src/usbd_dfu.c ****   * @attention
  38:Middlewares/ST/STM32_USB_Device_Library/Class/DFU/Src/usbd_dfu.c ****   *
  39:Middlewares/ST/STM32_USB_Device_Library/Class/DFU/Src/usbd_dfu.c ****   * <h2><center>&copy; Copyright (c) 2015 STMicroelectronics.
  40:Middlewares/ST/STM32_USB_Device_Library/Class/DFU/Src/usbd_dfu.c ****   * All rights reserved.</center></h2>
  41:Middlewares/ST/STM32_USB_Device_Library/Class/DFU/Src/usbd_dfu.c ****   *
  42:Middlewares/ST/STM32_USB_Device_Library/Class/DFU/Src/usbd_dfu.c ****   * This software component is licensed by ST under Ultimate Liberty license
  43:Middlewares/ST/STM32_USB_Device_Library/Class/DFU/Src/usbd_dfu.c ****   * SLA0044, the "License"; You may not use this file except in compliance with
  44:Middlewares/ST/STM32_USB_Device_Library/Class/DFU/Src/usbd_dfu.c ****   * the License. You may obtain a copy of the License at:
  45:Middlewares/ST/STM32_USB_Device_Library/Class/DFU/Src/usbd_dfu.c ****   *                      http://www.st.com/SLA0044
  46:Middlewares/ST/STM32_USB_Device_Library/Class/DFU/Src/usbd_dfu.c ****   *
  47:Middlewares/ST/STM32_USB_Device_Library/Class/DFU/Src/usbd_dfu.c ****   ******************************************************************************
  48:Middlewares/ST/STM32_USB_Device_Library/Class/DFU/Src/usbd_dfu.c ****   */
  49:Middlewares/ST/STM32_USB_Device_Library/Class/DFU/Src/usbd_dfu.c **** 
  50:Middlewares/ST/STM32_USB_Device_Library/Class/DFU/Src/usbd_dfu.c ****   /* BSPDependencies
  51:Middlewares/ST/STM32_USB_Device_Library/Class/DFU/Src/usbd_dfu.c ****   - "stm32xxxxx_{eval}{discovery}{nucleo_144}.c"
  52:Middlewares/ST/STM32_USB_Device_Library/Class/DFU/Src/usbd_dfu.c ****   - "stm32xxxxx_{eval}{discovery}_io.c"
  53:Middlewares/ST/STM32_USB_Device_Library/Class/DFU/Src/usbd_dfu.c ****   EndBSPDependencies */
  54:Middlewares/ST/STM32_USB_Device_Library/Class/DFU/Src/usbd_dfu.c **** 
  55:Middlewares/ST/STM32_USB_Device_Library/Class/DFU/Src/usbd_dfu.c **** /* Includes ------------------------------------------------------------------*/
  56:Middlewares/ST/STM32_USB_Device_Library/Class/DFU/Src/usbd_dfu.c **** #include "usbd_dfu.h"
  57:Middlewares/ST/STM32_USB_Device_Library/Class/DFU/Src/usbd_dfu.c **** #include "usbd_ctlreq.h"
  58:Middlewares/ST/STM32_USB_Device_Library/Class/DFU/Src/usbd_dfu.c **** 
  59:Middlewares/ST/STM32_USB_Device_Library/Class/DFU/Src/usbd_dfu.c **** 
  60:Middlewares/ST/STM32_USB_Device_Library/Class/DFU/Src/usbd_dfu.c **** /** @addtogroup STM32_USB_DEVICE_LIBRARY
  61:Middlewares/ST/STM32_USB_Device_Library/Class/DFU/Src/usbd_dfu.c ****   * @{
  62:Middlewares/ST/STM32_USB_Device_Library/Class/DFU/Src/usbd_dfu.c ****   */
  63:Middlewares/ST/STM32_USB_Device_Library/Class/DFU/Src/usbd_dfu.c **** 
  64:Middlewares/ST/STM32_USB_Device_Library/Class/DFU/Src/usbd_dfu.c **** 
  65:Middlewares/ST/STM32_USB_Device_Library/Class/DFU/Src/usbd_dfu.c **** /** @defgroup USBD_DFU
  66:Middlewares/ST/STM32_USB_Device_Library/Class/DFU/Src/usbd_dfu.c ****   * @brief usbd core module
  67:Middlewares/ST/STM32_USB_Device_Library/Class/DFU/Src/usbd_dfu.c ****   * @{
  68:Middlewares/ST/STM32_USB_Device_Library/Class/DFU/Src/usbd_dfu.c ****   */
  69:Middlewares/ST/STM32_USB_Device_Library/Class/DFU/Src/usbd_dfu.c **** 
  70:Middlewares/ST/STM32_USB_Device_Library/Class/DFU/Src/usbd_dfu.c **** /** @defgroup USBD_DFU_Private_TypesDefinitions
  71:Middlewares/ST/STM32_USB_Device_Library/Class/DFU/Src/usbd_dfu.c ****   * @{
  72:Middlewares/ST/STM32_USB_Device_Library/Class/DFU/Src/usbd_dfu.c ****   */
  73:Middlewares/ST/STM32_USB_Device_Library/Class/DFU/Src/usbd_dfu.c **** /**
  74:Middlewares/ST/STM32_USB_Device_Library/Class/DFU/Src/usbd_dfu.c ****   * @}
  75:Middlewares/ST/STM32_USB_Device_Library/Class/DFU/Src/usbd_dfu.c ****   */
  76:Middlewares/ST/STM32_USB_Device_Library/Class/DFU/Src/usbd_dfu.c **** 
  77:Middlewares/ST/STM32_USB_Device_Library/Class/DFU/Src/usbd_dfu.c **** 
  78:Middlewares/ST/STM32_USB_Device_Library/Class/DFU/Src/usbd_dfu.c **** /** @defgroup USBD_DFU_Private_Defines
  79:Middlewares/ST/STM32_USB_Device_Library/Class/DFU/Src/usbd_dfu.c ****   * @{
  80:Middlewares/ST/STM32_USB_Device_Library/Class/DFU/Src/usbd_dfu.c ****   */
  81:Middlewares/ST/STM32_USB_Device_Library/Class/DFU/Src/usbd_dfu.c **** 
  82:Middlewares/ST/STM32_USB_Device_Library/Class/DFU/Src/usbd_dfu.c **** /**
  83:Middlewares/ST/STM32_USB_Device_Library/Class/DFU/Src/usbd_dfu.c ****   * @}
  84:Middlewares/ST/STM32_USB_Device_Library/Class/DFU/Src/usbd_dfu.c ****   */
  85:Middlewares/ST/STM32_USB_Device_Library/Class/DFU/Src/usbd_dfu.c **** 
  86:Middlewares/ST/STM32_USB_Device_Library/Class/DFU/Src/usbd_dfu.c **** 
  87:Middlewares/ST/STM32_USB_Device_Library/Class/DFU/Src/usbd_dfu.c **** /** @defgroup USBD_DFU_Private_Macros
  88:Middlewares/ST/STM32_USB_Device_Library/Class/DFU/Src/usbd_dfu.c ****   * @{
  89:Middlewares/ST/STM32_USB_Device_Library/Class/DFU/Src/usbd_dfu.c ****   */
  90:Middlewares/ST/STM32_USB_Device_Library/Class/DFU/Src/usbd_dfu.c **** 
  91:Middlewares/ST/STM32_USB_Device_Library/Class/DFU/Src/usbd_dfu.c **** /**
ARM GAS  /tmp/ccfbgGae.s 			page 3


  92:Middlewares/ST/STM32_USB_Device_Library/Class/DFU/Src/usbd_dfu.c ****   * @}
  93:Middlewares/ST/STM32_USB_Device_Library/Class/DFU/Src/usbd_dfu.c ****   */
  94:Middlewares/ST/STM32_USB_Device_Library/Class/DFU/Src/usbd_dfu.c **** 
  95:Middlewares/ST/STM32_USB_Device_Library/Class/DFU/Src/usbd_dfu.c **** 
  96:Middlewares/ST/STM32_USB_Device_Library/Class/DFU/Src/usbd_dfu.c **** 
  97:Middlewares/ST/STM32_USB_Device_Library/Class/DFU/Src/usbd_dfu.c **** 
  98:Middlewares/ST/STM32_USB_Device_Library/Class/DFU/Src/usbd_dfu.c **** /** @defgroup USBD_DFU_Private_FunctionPrototypes
  99:Middlewares/ST/STM32_USB_Device_Library/Class/DFU/Src/usbd_dfu.c ****   * @{
 100:Middlewares/ST/STM32_USB_Device_Library/Class/DFU/Src/usbd_dfu.c ****   */
 101:Middlewares/ST/STM32_USB_Device_Library/Class/DFU/Src/usbd_dfu.c **** 
 102:Middlewares/ST/STM32_USB_Device_Library/Class/DFU/Src/usbd_dfu.c **** 
 103:Middlewares/ST/STM32_USB_Device_Library/Class/DFU/Src/usbd_dfu.c **** static uint8_t  USBD_DFU_Init (USBD_HandleTypeDef *pdev,
 104:Middlewares/ST/STM32_USB_Device_Library/Class/DFU/Src/usbd_dfu.c ****                                uint8_t cfgidx);
 105:Middlewares/ST/STM32_USB_Device_Library/Class/DFU/Src/usbd_dfu.c **** 
 106:Middlewares/ST/STM32_USB_Device_Library/Class/DFU/Src/usbd_dfu.c **** static uint8_t  USBD_DFU_DeInit (USBD_HandleTypeDef *pdev,
 107:Middlewares/ST/STM32_USB_Device_Library/Class/DFU/Src/usbd_dfu.c ****                                  uint8_t cfgidx);
 108:Middlewares/ST/STM32_USB_Device_Library/Class/DFU/Src/usbd_dfu.c **** 
 109:Middlewares/ST/STM32_USB_Device_Library/Class/DFU/Src/usbd_dfu.c **** static uint8_t  USBD_DFU_Setup (USBD_HandleTypeDef *pdev,
 110:Middlewares/ST/STM32_USB_Device_Library/Class/DFU/Src/usbd_dfu.c ****                                 USBD_SetupReqTypedef *req);
 111:Middlewares/ST/STM32_USB_Device_Library/Class/DFU/Src/usbd_dfu.c **** 
 112:Middlewares/ST/STM32_USB_Device_Library/Class/DFU/Src/usbd_dfu.c **** static uint8_t  *USBD_DFU_GetCfgDesc (uint16_t *length);
 113:Middlewares/ST/STM32_USB_Device_Library/Class/DFU/Src/usbd_dfu.c **** 
 114:Middlewares/ST/STM32_USB_Device_Library/Class/DFU/Src/usbd_dfu.c **** static uint8_t  *USBD_DFU_GetDeviceQualifierDesc (uint16_t *length);
 115:Middlewares/ST/STM32_USB_Device_Library/Class/DFU/Src/usbd_dfu.c **** 
 116:Middlewares/ST/STM32_USB_Device_Library/Class/DFU/Src/usbd_dfu.c **** static uint8_t  USBD_DFU_DataIn (USBD_HandleTypeDef *pdev, uint8_t epnum);
 117:Middlewares/ST/STM32_USB_Device_Library/Class/DFU/Src/usbd_dfu.c **** 
 118:Middlewares/ST/STM32_USB_Device_Library/Class/DFU/Src/usbd_dfu.c **** static uint8_t  USBD_DFU_DataOut (USBD_HandleTypeDef *pdev, uint8_t epnum);
 119:Middlewares/ST/STM32_USB_Device_Library/Class/DFU/Src/usbd_dfu.c **** 
 120:Middlewares/ST/STM32_USB_Device_Library/Class/DFU/Src/usbd_dfu.c **** static uint8_t  USBD_DFU_EP0_RxReady (USBD_HandleTypeDef *pdev);
 121:Middlewares/ST/STM32_USB_Device_Library/Class/DFU/Src/usbd_dfu.c **** 
 122:Middlewares/ST/STM32_USB_Device_Library/Class/DFU/Src/usbd_dfu.c **** static uint8_t  USBD_DFU_EP0_TxReady (USBD_HandleTypeDef *pdev);
 123:Middlewares/ST/STM32_USB_Device_Library/Class/DFU/Src/usbd_dfu.c **** 
 124:Middlewares/ST/STM32_USB_Device_Library/Class/DFU/Src/usbd_dfu.c **** static uint8_t  USBD_DFU_SOF (USBD_HandleTypeDef *pdev);
 125:Middlewares/ST/STM32_USB_Device_Library/Class/DFU/Src/usbd_dfu.c **** 
 126:Middlewares/ST/STM32_USB_Device_Library/Class/DFU/Src/usbd_dfu.c **** static uint8_t  USBD_DFU_IsoINIncomplete (USBD_HandleTypeDef *pdev, uint8_t epnum);
 127:Middlewares/ST/STM32_USB_Device_Library/Class/DFU/Src/usbd_dfu.c **** 
 128:Middlewares/ST/STM32_USB_Device_Library/Class/DFU/Src/usbd_dfu.c **** static uint8_t  USBD_DFU_IsoOutIncomplete (USBD_HandleTypeDef *pdev, uint8_t epnum);
 129:Middlewares/ST/STM32_USB_Device_Library/Class/DFU/Src/usbd_dfu.c **** 
 130:Middlewares/ST/STM32_USB_Device_Library/Class/DFU/Src/usbd_dfu.c **** #if (USBD_SUPPORT_USER_STRING == 1U)
 131:Middlewares/ST/STM32_USB_Device_Library/Class/DFU/Src/usbd_dfu.c **** static uint8_t* USBD_DFU_GetUsrStringDesc ( USBD_HandleTypeDef *pdev, uint8_t index , uint16_t *len
 132:Middlewares/ST/STM32_USB_Device_Library/Class/DFU/Src/usbd_dfu.c **** #endif
 133:Middlewares/ST/STM32_USB_Device_Library/Class/DFU/Src/usbd_dfu.c **** 
 134:Middlewares/ST/STM32_USB_Device_Library/Class/DFU/Src/usbd_dfu.c **** static void DFU_Detach    (USBD_HandleTypeDef *pdev, USBD_SetupReqTypedef *req);
 135:Middlewares/ST/STM32_USB_Device_Library/Class/DFU/Src/usbd_dfu.c **** 
 136:Middlewares/ST/STM32_USB_Device_Library/Class/DFU/Src/usbd_dfu.c **** static void DFU_Download  (USBD_HandleTypeDef *pdev, USBD_SetupReqTypedef *req);
 137:Middlewares/ST/STM32_USB_Device_Library/Class/DFU/Src/usbd_dfu.c **** 
 138:Middlewares/ST/STM32_USB_Device_Library/Class/DFU/Src/usbd_dfu.c **** static void DFU_Upload    (USBD_HandleTypeDef *pdev, USBD_SetupReqTypedef *req);
 139:Middlewares/ST/STM32_USB_Device_Library/Class/DFU/Src/usbd_dfu.c **** 
 140:Middlewares/ST/STM32_USB_Device_Library/Class/DFU/Src/usbd_dfu.c **** static void DFU_GetStatus (USBD_HandleTypeDef *pdev);
 141:Middlewares/ST/STM32_USB_Device_Library/Class/DFU/Src/usbd_dfu.c **** 
 142:Middlewares/ST/STM32_USB_Device_Library/Class/DFU/Src/usbd_dfu.c **** static void DFU_ClearStatus (USBD_HandleTypeDef *pdev);
 143:Middlewares/ST/STM32_USB_Device_Library/Class/DFU/Src/usbd_dfu.c **** 
 144:Middlewares/ST/STM32_USB_Device_Library/Class/DFU/Src/usbd_dfu.c **** static void DFU_GetState  (USBD_HandleTypeDef *pdev);
 145:Middlewares/ST/STM32_USB_Device_Library/Class/DFU/Src/usbd_dfu.c **** 
 146:Middlewares/ST/STM32_USB_Device_Library/Class/DFU/Src/usbd_dfu.c **** static void DFU_Abort     (USBD_HandleTypeDef *pdev);
 147:Middlewares/ST/STM32_USB_Device_Library/Class/DFU/Src/usbd_dfu.c **** 
 148:Middlewares/ST/STM32_USB_Device_Library/Class/DFU/Src/usbd_dfu.c **** static void DFU_Leave  (USBD_HandleTypeDef *pdev);
ARM GAS  /tmp/ccfbgGae.s 			page 4


 149:Middlewares/ST/STM32_USB_Device_Library/Class/DFU/Src/usbd_dfu.c **** 
 150:Middlewares/ST/STM32_USB_Device_Library/Class/DFU/Src/usbd_dfu.c **** 
 151:Middlewares/ST/STM32_USB_Device_Library/Class/DFU/Src/usbd_dfu.c **** /**
 152:Middlewares/ST/STM32_USB_Device_Library/Class/DFU/Src/usbd_dfu.c ****   * @}
 153:Middlewares/ST/STM32_USB_Device_Library/Class/DFU/Src/usbd_dfu.c ****   */
 154:Middlewares/ST/STM32_USB_Device_Library/Class/DFU/Src/usbd_dfu.c **** 
 155:Middlewares/ST/STM32_USB_Device_Library/Class/DFU/Src/usbd_dfu.c **** /** @defgroup USBD_DFU_Private_Variables
 156:Middlewares/ST/STM32_USB_Device_Library/Class/DFU/Src/usbd_dfu.c ****   * @{
 157:Middlewares/ST/STM32_USB_Device_Library/Class/DFU/Src/usbd_dfu.c ****   */
 158:Middlewares/ST/STM32_USB_Device_Library/Class/DFU/Src/usbd_dfu.c **** 
 159:Middlewares/ST/STM32_USB_Device_Library/Class/DFU/Src/usbd_dfu.c **** USBD_ClassTypeDef  USBD_DFU =
 160:Middlewares/ST/STM32_USB_Device_Library/Class/DFU/Src/usbd_dfu.c **** {
 161:Middlewares/ST/STM32_USB_Device_Library/Class/DFU/Src/usbd_dfu.c ****   USBD_DFU_Init,
 162:Middlewares/ST/STM32_USB_Device_Library/Class/DFU/Src/usbd_dfu.c ****   USBD_DFU_DeInit,
 163:Middlewares/ST/STM32_USB_Device_Library/Class/DFU/Src/usbd_dfu.c ****   USBD_DFU_Setup,
 164:Middlewares/ST/STM32_USB_Device_Library/Class/DFU/Src/usbd_dfu.c ****   USBD_DFU_EP0_TxReady,
 165:Middlewares/ST/STM32_USB_Device_Library/Class/DFU/Src/usbd_dfu.c ****   USBD_DFU_EP0_RxReady,
 166:Middlewares/ST/STM32_USB_Device_Library/Class/DFU/Src/usbd_dfu.c ****   USBD_DFU_DataIn,
 167:Middlewares/ST/STM32_USB_Device_Library/Class/DFU/Src/usbd_dfu.c ****   USBD_DFU_DataOut,
 168:Middlewares/ST/STM32_USB_Device_Library/Class/DFU/Src/usbd_dfu.c ****   USBD_DFU_SOF,
 169:Middlewares/ST/STM32_USB_Device_Library/Class/DFU/Src/usbd_dfu.c ****   USBD_DFU_IsoINIncomplete,
 170:Middlewares/ST/STM32_USB_Device_Library/Class/DFU/Src/usbd_dfu.c ****   USBD_DFU_IsoOutIncomplete,
 171:Middlewares/ST/STM32_USB_Device_Library/Class/DFU/Src/usbd_dfu.c ****   USBD_DFU_GetCfgDesc,
 172:Middlewares/ST/STM32_USB_Device_Library/Class/DFU/Src/usbd_dfu.c ****   USBD_DFU_GetCfgDesc,
 173:Middlewares/ST/STM32_USB_Device_Library/Class/DFU/Src/usbd_dfu.c ****   USBD_DFU_GetCfgDesc,
 174:Middlewares/ST/STM32_USB_Device_Library/Class/DFU/Src/usbd_dfu.c ****   USBD_DFU_GetDeviceQualifierDesc,
 175:Middlewares/ST/STM32_USB_Device_Library/Class/DFU/Src/usbd_dfu.c **** #if (USBD_SUPPORT_USER_STRING == 1U)
 176:Middlewares/ST/STM32_USB_Device_Library/Class/DFU/Src/usbd_dfu.c ****   USBD_DFU_GetUsrStringDesc
 177:Middlewares/ST/STM32_USB_Device_Library/Class/DFU/Src/usbd_dfu.c **** #endif
 178:Middlewares/ST/STM32_USB_Device_Library/Class/DFU/Src/usbd_dfu.c **** };
 179:Middlewares/ST/STM32_USB_Device_Library/Class/DFU/Src/usbd_dfu.c **** 
 180:Middlewares/ST/STM32_USB_Device_Library/Class/DFU/Src/usbd_dfu.c **** /* USB DFU device Configuration Descriptor */
 181:Middlewares/ST/STM32_USB_Device_Library/Class/DFU/Src/usbd_dfu.c **** __ALIGN_BEGIN static uint8_t USBD_DFU_CfgDesc[USB_DFU_CONFIG_DESC_SIZ] __ALIGN_END =
 182:Middlewares/ST/STM32_USB_Device_Library/Class/DFU/Src/usbd_dfu.c **** {
 183:Middlewares/ST/STM32_USB_Device_Library/Class/DFU/Src/usbd_dfu.c ****   0x09, /* bLength: Configuation Descriptor size */
 184:Middlewares/ST/STM32_USB_Device_Library/Class/DFU/Src/usbd_dfu.c ****   USB_DESC_TYPE_CONFIGURATION, /* bDescriptorType: Configuration */
 185:Middlewares/ST/STM32_USB_Device_Library/Class/DFU/Src/usbd_dfu.c ****   USB_DFU_CONFIG_DESC_SIZ,
 186:Middlewares/ST/STM32_USB_Device_Library/Class/DFU/Src/usbd_dfu.c ****   /* wTotalLength: Bytes returned */
 187:Middlewares/ST/STM32_USB_Device_Library/Class/DFU/Src/usbd_dfu.c ****   0x00,
 188:Middlewares/ST/STM32_USB_Device_Library/Class/DFU/Src/usbd_dfu.c ****   0x01,         /*bNumInterfaces: 1 interface*/
 189:Middlewares/ST/STM32_USB_Device_Library/Class/DFU/Src/usbd_dfu.c ****   0x01,         /*bConfigurationValue: Configuration value*/
 190:Middlewares/ST/STM32_USB_Device_Library/Class/DFU/Src/usbd_dfu.c ****   0x02,         /*iConfiguration: Index of string descriptor describing the configuration*/
 191:Middlewares/ST/STM32_USB_Device_Library/Class/DFU/Src/usbd_dfu.c ****   0xC0,         /*bmAttributes: bus powered and Supprts Remote Wakeup */
 192:Middlewares/ST/STM32_USB_Device_Library/Class/DFU/Src/usbd_dfu.c ****   0x32,         /*MaxPower 100 mA: this current is used for detecting Vbus*/
 193:Middlewares/ST/STM32_USB_Device_Library/Class/DFU/Src/usbd_dfu.c ****   /* 09 */
 194:Middlewares/ST/STM32_USB_Device_Library/Class/DFU/Src/usbd_dfu.c **** 
 195:Middlewares/ST/STM32_USB_Device_Library/Class/DFU/Src/usbd_dfu.c ****   /**********  Descriptor of DFU interface 0 Alternate setting 0 **************/
 196:Middlewares/ST/STM32_USB_Device_Library/Class/DFU/Src/usbd_dfu.c ****   USBD_DFU_IF_DESC(0U), /* This interface is mandatory for all devices */
 197:Middlewares/ST/STM32_USB_Device_Library/Class/DFU/Src/usbd_dfu.c **** 
 198:Middlewares/ST/STM32_USB_Device_Library/Class/DFU/Src/usbd_dfu.c **** #if (USBD_DFU_MAX_ITF_NUM > 1U)
 199:Middlewares/ST/STM32_USB_Device_Library/Class/DFU/Src/usbd_dfu.c ****   /**********  Descriptor of DFU interface 0 Alternate setting 1 **************/
 200:Middlewares/ST/STM32_USB_Device_Library/Class/DFU/Src/usbd_dfu.c ****   USBD_DFU_IF_DESC(1),
 201:Middlewares/ST/STM32_USB_Device_Library/Class/DFU/Src/usbd_dfu.c **** #endif /* (USBD_DFU_MAX_ITF_NUM > 1) */
 202:Middlewares/ST/STM32_USB_Device_Library/Class/DFU/Src/usbd_dfu.c **** 
 203:Middlewares/ST/STM32_USB_Device_Library/Class/DFU/Src/usbd_dfu.c **** #if (USBD_DFU_MAX_ITF_NUM > 2U)
 204:Middlewares/ST/STM32_USB_Device_Library/Class/DFU/Src/usbd_dfu.c ****   /**********  Descriptor of DFU interface 0 Alternate setting 2 **************/
 205:Middlewares/ST/STM32_USB_Device_Library/Class/DFU/Src/usbd_dfu.c ****   USBD_DFU_IF_DESC(2),
ARM GAS  /tmp/ccfbgGae.s 			page 5


 206:Middlewares/ST/STM32_USB_Device_Library/Class/DFU/Src/usbd_dfu.c **** #endif /* (USBD_DFU_MAX_ITF_NUM > 2) */
 207:Middlewares/ST/STM32_USB_Device_Library/Class/DFU/Src/usbd_dfu.c **** 
 208:Middlewares/ST/STM32_USB_Device_Library/Class/DFU/Src/usbd_dfu.c **** #if (USBD_DFU_MAX_ITF_NUM > 3U)
 209:Middlewares/ST/STM32_USB_Device_Library/Class/DFU/Src/usbd_dfu.c ****   /**********  Descriptor of DFU interface 0 Alternate setting 3 **************/
 210:Middlewares/ST/STM32_USB_Device_Library/Class/DFU/Src/usbd_dfu.c ****   USBD_DFU_IF_DESC(3),
 211:Middlewares/ST/STM32_USB_Device_Library/Class/DFU/Src/usbd_dfu.c **** #endif /* (USBD_DFU_MAX_ITF_NUM > 3) */
 212:Middlewares/ST/STM32_USB_Device_Library/Class/DFU/Src/usbd_dfu.c **** 
 213:Middlewares/ST/STM32_USB_Device_Library/Class/DFU/Src/usbd_dfu.c **** #if (USBD_DFU_MAX_ITF_NUM > 4U)
 214:Middlewares/ST/STM32_USB_Device_Library/Class/DFU/Src/usbd_dfu.c ****   /**********  Descriptor of DFU interface 0 Alternate setting 4 **************/
 215:Middlewares/ST/STM32_USB_Device_Library/Class/DFU/Src/usbd_dfu.c ****   USBD_DFU_IF_DESC(4),
 216:Middlewares/ST/STM32_USB_Device_Library/Class/DFU/Src/usbd_dfu.c **** #endif /* (USBD_DFU_MAX_ITF_NUM > 4) */
 217:Middlewares/ST/STM32_USB_Device_Library/Class/DFU/Src/usbd_dfu.c **** 
 218:Middlewares/ST/STM32_USB_Device_Library/Class/DFU/Src/usbd_dfu.c **** #if (USBD_DFU_MAX_ITF_NUM > 5U)
 219:Middlewares/ST/STM32_USB_Device_Library/Class/DFU/Src/usbd_dfu.c ****   /**********  Descriptor of DFU interface 0 Alternate setting 5 **************/
 220:Middlewares/ST/STM32_USB_Device_Library/Class/DFU/Src/usbd_dfu.c ****   USBD_DFU_IF_DESC(5),
 221:Middlewares/ST/STM32_USB_Device_Library/Class/DFU/Src/usbd_dfu.c **** #endif /* (USBD_DFU_MAX_ITF_NUM > 5) */
 222:Middlewares/ST/STM32_USB_Device_Library/Class/DFU/Src/usbd_dfu.c **** 
 223:Middlewares/ST/STM32_USB_Device_Library/Class/DFU/Src/usbd_dfu.c **** #if (USBD_DFU_MAX_ITF_NUM > 6U)
 224:Middlewares/ST/STM32_USB_Device_Library/Class/DFU/Src/usbd_dfu.c **** #error "ERROR: usbd_dfu_core.c: Modify the file to support more descriptors!"
 225:Middlewares/ST/STM32_USB_Device_Library/Class/DFU/Src/usbd_dfu.c **** #endif /* (USBD_DFU_MAX_ITF_NUM > 6) */
 226:Middlewares/ST/STM32_USB_Device_Library/Class/DFU/Src/usbd_dfu.c **** 
 227:Middlewares/ST/STM32_USB_Device_Library/Class/DFU/Src/usbd_dfu.c ****   /******************** DFU Functional Descriptor********************/
 228:Middlewares/ST/STM32_USB_Device_Library/Class/DFU/Src/usbd_dfu.c ****   0x09,   /*blength = 9 Bytes*/
 229:Middlewares/ST/STM32_USB_Device_Library/Class/DFU/Src/usbd_dfu.c ****   DFU_DESCRIPTOR_TYPE,   /* DFU Functional Descriptor*/
 230:Middlewares/ST/STM32_USB_Device_Library/Class/DFU/Src/usbd_dfu.c ****   0x0B,   /*bmAttribute
 231:Middlewares/ST/STM32_USB_Device_Library/Class/DFU/Src/usbd_dfu.c ****                 bitCanDnload             = 1      (bit 0)
 232:Middlewares/ST/STM32_USB_Device_Library/Class/DFU/Src/usbd_dfu.c ****                 bitCanUpload             = 1      (bit 1)
 233:Middlewares/ST/STM32_USB_Device_Library/Class/DFU/Src/usbd_dfu.c ****                 bitManifestationTolerant = 0      (bit 2)
 234:Middlewares/ST/STM32_USB_Device_Library/Class/DFU/Src/usbd_dfu.c ****                 bitWillDetach            = 1      (bit 3)
 235:Middlewares/ST/STM32_USB_Device_Library/Class/DFU/Src/usbd_dfu.c ****                 Reserved                          (bit4-6)
 236:Middlewares/ST/STM32_USB_Device_Library/Class/DFU/Src/usbd_dfu.c ****                 bitAcceleratedST         = 0      (bit 7)*/
 237:Middlewares/ST/STM32_USB_Device_Library/Class/DFU/Src/usbd_dfu.c ****   0xFF,   /*DetachTimeOut= 255 ms*/
 238:Middlewares/ST/STM32_USB_Device_Library/Class/DFU/Src/usbd_dfu.c ****   0x00,
 239:Middlewares/ST/STM32_USB_Device_Library/Class/DFU/Src/usbd_dfu.c ****   /*WARNING: In DMA mode the multiple MPS packets feature is still not supported
 240:Middlewares/ST/STM32_USB_Device_Library/Class/DFU/Src/usbd_dfu.c ****    ==> In this case, when using DMA USBD_DFU_XFER_SIZE should be set to 64 in usbd_conf.h */
 241:Middlewares/ST/STM32_USB_Device_Library/Class/DFU/Src/usbd_dfu.c ****   TRANSFER_SIZE_BYTES(USBD_DFU_XFER_SIZE),       /* TransferSize = 1024 Byte*/
 242:Middlewares/ST/STM32_USB_Device_Library/Class/DFU/Src/usbd_dfu.c ****   0x1A,                                /* bcdDFUVersion*/
 243:Middlewares/ST/STM32_USB_Device_Library/Class/DFU/Src/usbd_dfu.c ****   0x01
 244:Middlewares/ST/STM32_USB_Device_Library/Class/DFU/Src/usbd_dfu.c ****   /***********************************************************/
 245:Middlewares/ST/STM32_USB_Device_Library/Class/DFU/Src/usbd_dfu.c ****   /* 9*/
 246:Middlewares/ST/STM32_USB_Device_Library/Class/DFU/Src/usbd_dfu.c **** };
 247:Middlewares/ST/STM32_USB_Device_Library/Class/DFU/Src/usbd_dfu.c **** 
 248:Middlewares/ST/STM32_USB_Device_Library/Class/DFU/Src/usbd_dfu.c **** /* USB Standard Device Descriptor */
 249:Middlewares/ST/STM32_USB_Device_Library/Class/DFU/Src/usbd_dfu.c **** __ALIGN_BEGIN static uint8_t USBD_DFU_DeviceQualifierDesc[USB_LEN_DEV_QUALIFIER_DESC] __ALIGN_END =
 250:Middlewares/ST/STM32_USB_Device_Library/Class/DFU/Src/usbd_dfu.c **** {
 251:Middlewares/ST/STM32_USB_Device_Library/Class/DFU/Src/usbd_dfu.c ****   USB_LEN_DEV_QUALIFIER_DESC,
 252:Middlewares/ST/STM32_USB_Device_Library/Class/DFU/Src/usbd_dfu.c ****   USB_DESC_TYPE_DEVICE_QUALIFIER,
 253:Middlewares/ST/STM32_USB_Device_Library/Class/DFU/Src/usbd_dfu.c ****   0x00,
 254:Middlewares/ST/STM32_USB_Device_Library/Class/DFU/Src/usbd_dfu.c ****   0x02,
 255:Middlewares/ST/STM32_USB_Device_Library/Class/DFU/Src/usbd_dfu.c ****   0x00,
 256:Middlewares/ST/STM32_USB_Device_Library/Class/DFU/Src/usbd_dfu.c ****   0x00,
 257:Middlewares/ST/STM32_USB_Device_Library/Class/DFU/Src/usbd_dfu.c ****   0x00,
 258:Middlewares/ST/STM32_USB_Device_Library/Class/DFU/Src/usbd_dfu.c ****   0x40,
 259:Middlewares/ST/STM32_USB_Device_Library/Class/DFU/Src/usbd_dfu.c ****   0x01,
 260:Middlewares/ST/STM32_USB_Device_Library/Class/DFU/Src/usbd_dfu.c ****   0x00,
 261:Middlewares/ST/STM32_USB_Device_Library/Class/DFU/Src/usbd_dfu.c **** };
 262:Middlewares/ST/STM32_USB_Device_Library/Class/DFU/Src/usbd_dfu.c **** 
ARM GAS  /tmp/ccfbgGae.s 			page 6


 263:Middlewares/ST/STM32_USB_Device_Library/Class/DFU/Src/usbd_dfu.c **** /**
 264:Middlewares/ST/STM32_USB_Device_Library/Class/DFU/Src/usbd_dfu.c ****   * @}
 265:Middlewares/ST/STM32_USB_Device_Library/Class/DFU/Src/usbd_dfu.c ****   */
 266:Middlewares/ST/STM32_USB_Device_Library/Class/DFU/Src/usbd_dfu.c **** 
 267:Middlewares/ST/STM32_USB_Device_Library/Class/DFU/Src/usbd_dfu.c **** /** @defgroup USBD_DFU_Private_Functions
 268:Middlewares/ST/STM32_USB_Device_Library/Class/DFU/Src/usbd_dfu.c ****   * @{
 269:Middlewares/ST/STM32_USB_Device_Library/Class/DFU/Src/usbd_dfu.c ****   */
 270:Middlewares/ST/STM32_USB_Device_Library/Class/DFU/Src/usbd_dfu.c **** 
 271:Middlewares/ST/STM32_USB_Device_Library/Class/DFU/Src/usbd_dfu.c **** /**
 272:Middlewares/ST/STM32_USB_Device_Library/Class/DFU/Src/usbd_dfu.c ****   * @brief  USBD_DFU_Init
 273:Middlewares/ST/STM32_USB_Device_Library/Class/DFU/Src/usbd_dfu.c ****   *         Initialize the DFU interface
 274:Middlewares/ST/STM32_USB_Device_Library/Class/DFU/Src/usbd_dfu.c ****   * @param  pdev: device instance
 275:Middlewares/ST/STM32_USB_Device_Library/Class/DFU/Src/usbd_dfu.c ****   * @param  cfgidx: Configuration index
 276:Middlewares/ST/STM32_USB_Device_Library/Class/DFU/Src/usbd_dfu.c ****   * @retval status
 277:Middlewares/ST/STM32_USB_Device_Library/Class/DFU/Src/usbd_dfu.c ****   */
 278:Middlewares/ST/STM32_USB_Device_Library/Class/DFU/Src/usbd_dfu.c **** static uint8_t  USBD_DFU_Init (USBD_HandleTypeDef *pdev,
 279:Middlewares/ST/STM32_USB_Device_Library/Class/DFU/Src/usbd_dfu.c ****                                uint8_t cfgidx)
 280:Middlewares/ST/STM32_USB_Device_Library/Class/DFU/Src/usbd_dfu.c **** {
 281:Middlewares/ST/STM32_USB_Device_Library/Class/DFU/Src/usbd_dfu.c ****   USBD_DFU_HandleTypeDef   *hdfu;
 282:Middlewares/ST/STM32_USB_Device_Library/Class/DFU/Src/usbd_dfu.c **** 
 283:Middlewares/ST/STM32_USB_Device_Library/Class/DFU/Src/usbd_dfu.c ****  /* Allocate Audio structure */
 284:Middlewares/ST/STM32_USB_Device_Library/Class/DFU/Src/usbd_dfu.c ****   pdev->pClassData = USBD_malloc(sizeof (USBD_DFU_HandleTypeDef));
 285:Middlewares/ST/STM32_USB_Device_Library/Class/DFU/Src/usbd_dfu.c **** 
 286:Middlewares/ST/STM32_USB_Device_Library/Class/DFU/Src/usbd_dfu.c ****   if(pdev->pClassData == NULL)
 287:Middlewares/ST/STM32_USB_Device_Library/Class/DFU/Src/usbd_dfu.c ****   {
 288:Middlewares/ST/STM32_USB_Device_Library/Class/DFU/Src/usbd_dfu.c ****     return USBD_FAIL;
 289:Middlewares/ST/STM32_USB_Device_Library/Class/DFU/Src/usbd_dfu.c ****   }
 290:Middlewares/ST/STM32_USB_Device_Library/Class/DFU/Src/usbd_dfu.c ****   else
 291:Middlewares/ST/STM32_USB_Device_Library/Class/DFU/Src/usbd_dfu.c ****   {
 292:Middlewares/ST/STM32_USB_Device_Library/Class/DFU/Src/usbd_dfu.c ****     hdfu = (USBD_DFU_HandleTypeDef*) pdev->pClassData;
 293:Middlewares/ST/STM32_USB_Device_Library/Class/DFU/Src/usbd_dfu.c **** 
 294:Middlewares/ST/STM32_USB_Device_Library/Class/DFU/Src/usbd_dfu.c ****     hdfu->alt_setting = 0U;
 295:Middlewares/ST/STM32_USB_Device_Library/Class/DFU/Src/usbd_dfu.c ****     hdfu->data_ptr = USBD_DFU_APP_DEFAULT_ADD;
 296:Middlewares/ST/STM32_USB_Device_Library/Class/DFU/Src/usbd_dfu.c ****     hdfu->wblock_num = 0U;
 297:Middlewares/ST/STM32_USB_Device_Library/Class/DFU/Src/usbd_dfu.c ****     hdfu->wlength = 0U;
 298:Middlewares/ST/STM32_USB_Device_Library/Class/DFU/Src/usbd_dfu.c **** 
 299:Middlewares/ST/STM32_USB_Device_Library/Class/DFU/Src/usbd_dfu.c ****     hdfu->manif_state = DFU_MANIFEST_COMPLETE;
 300:Middlewares/ST/STM32_USB_Device_Library/Class/DFU/Src/usbd_dfu.c ****     hdfu->dev_state = DFU_STATE_IDLE;
 301:Middlewares/ST/STM32_USB_Device_Library/Class/DFU/Src/usbd_dfu.c **** 
 302:Middlewares/ST/STM32_USB_Device_Library/Class/DFU/Src/usbd_dfu.c ****     hdfu->dev_status[0] = DFU_ERROR_NONE;
 303:Middlewares/ST/STM32_USB_Device_Library/Class/DFU/Src/usbd_dfu.c ****     hdfu->dev_status[1] = 0U;
 304:Middlewares/ST/STM32_USB_Device_Library/Class/DFU/Src/usbd_dfu.c ****     hdfu->dev_status[2] = 0U;
 305:Middlewares/ST/STM32_USB_Device_Library/Class/DFU/Src/usbd_dfu.c ****     hdfu->dev_status[3] = 0U;
 306:Middlewares/ST/STM32_USB_Device_Library/Class/DFU/Src/usbd_dfu.c ****     hdfu->dev_status[4] = DFU_STATE_IDLE;
 307:Middlewares/ST/STM32_USB_Device_Library/Class/DFU/Src/usbd_dfu.c ****     hdfu->dev_status[5] = 0U;
 308:Middlewares/ST/STM32_USB_Device_Library/Class/DFU/Src/usbd_dfu.c **** 
 309:Middlewares/ST/STM32_USB_Device_Library/Class/DFU/Src/usbd_dfu.c ****     /* Initialize Hardware layer */
 310:Middlewares/ST/STM32_USB_Device_Library/Class/DFU/Src/usbd_dfu.c ****     if (((USBD_DFU_MediaTypeDef *)pdev->pUserData)->Init() != USBD_OK)
 311:Middlewares/ST/STM32_USB_Device_Library/Class/DFU/Src/usbd_dfu.c ****     {
 312:Middlewares/ST/STM32_USB_Device_Library/Class/DFU/Src/usbd_dfu.c ****       return USBD_FAIL;
 313:Middlewares/ST/STM32_USB_Device_Library/Class/DFU/Src/usbd_dfu.c ****     }
 314:Middlewares/ST/STM32_USB_Device_Library/Class/DFU/Src/usbd_dfu.c ****   }
 315:Middlewares/ST/STM32_USB_Device_Library/Class/DFU/Src/usbd_dfu.c ****   return USBD_OK;
 316:Middlewares/ST/STM32_USB_Device_Library/Class/DFU/Src/usbd_dfu.c **** }
 317:Middlewares/ST/STM32_USB_Device_Library/Class/DFU/Src/usbd_dfu.c **** 
 318:Middlewares/ST/STM32_USB_Device_Library/Class/DFU/Src/usbd_dfu.c **** /**
 319:Middlewares/ST/STM32_USB_Device_Library/Class/DFU/Src/usbd_dfu.c ****   * @brief  USBD_DFU_Init
ARM GAS  /tmp/ccfbgGae.s 			page 7


 320:Middlewares/ST/STM32_USB_Device_Library/Class/DFU/Src/usbd_dfu.c ****   *         De-Initialize the DFU layer
 321:Middlewares/ST/STM32_USB_Device_Library/Class/DFU/Src/usbd_dfu.c ****   * @param  pdev: device instance
 322:Middlewares/ST/STM32_USB_Device_Library/Class/DFU/Src/usbd_dfu.c ****   * @param  cfgidx: Configuration index
 323:Middlewares/ST/STM32_USB_Device_Library/Class/DFU/Src/usbd_dfu.c ****   * @retval status
 324:Middlewares/ST/STM32_USB_Device_Library/Class/DFU/Src/usbd_dfu.c ****   */
 325:Middlewares/ST/STM32_USB_Device_Library/Class/DFU/Src/usbd_dfu.c **** static uint8_t  USBD_DFU_DeInit (USBD_HandleTypeDef *pdev,
 326:Middlewares/ST/STM32_USB_Device_Library/Class/DFU/Src/usbd_dfu.c ****                                  uint8_t cfgidx)
 327:Middlewares/ST/STM32_USB_Device_Library/Class/DFU/Src/usbd_dfu.c **** {
 328:Middlewares/ST/STM32_USB_Device_Library/Class/DFU/Src/usbd_dfu.c ****   USBD_DFU_HandleTypeDef   *hdfu;
 329:Middlewares/ST/STM32_USB_Device_Library/Class/DFU/Src/usbd_dfu.c ****   hdfu = (USBD_DFU_HandleTypeDef*) pdev->pClassData;
 330:Middlewares/ST/STM32_USB_Device_Library/Class/DFU/Src/usbd_dfu.c **** 
 331:Middlewares/ST/STM32_USB_Device_Library/Class/DFU/Src/usbd_dfu.c ****   hdfu->wblock_num = 0U;
 332:Middlewares/ST/STM32_USB_Device_Library/Class/DFU/Src/usbd_dfu.c ****   hdfu->wlength = 0U;
 333:Middlewares/ST/STM32_USB_Device_Library/Class/DFU/Src/usbd_dfu.c **** 
 334:Middlewares/ST/STM32_USB_Device_Library/Class/DFU/Src/usbd_dfu.c ****   hdfu->dev_state = DFU_STATE_IDLE;
 335:Middlewares/ST/STM32_USB_Device_Library/Class/DFU/Src/usbd_dfu.c ****   hdfu->dev_status[0] = DFU_ERROR_NONE;
 336:Middlewares/ST/STM32_USB_Device_Library/Class/DFU/Src/usbd_dfu.c ****   hdfu->dev_status[4] = DFU_STATE_IDLE;
 337:Middlewares/ST/STM32_USB_Device_Library/Class/DFU/Src/usbd_dfu.c **** 
 338:Middlewares/ST/STM32_USB_Device_Library/Class/DFU/Src/usbd_dfu.c ****   /* DeInit  physical Interface components */
 339:Middlewares/ST/STM32_USB_Device_Library/Class/DFU/Src/usbd_dfu.c ****   if(pdev->pClassData != NULL)
 340:Middlewares/ST/STM32_USB_Device_Library/Class/DFU/Src/usbd_dfu.c ****   {
 341:Middlewares/ST/STM32_USB_Device_Library/Class/DFU/Src/usbd_dfu.c ****     /* De-Initialize Hardware layer */
 342:Middlewares/ST/STM32_USB_Device_Library/Class/DFU/Src/usbd_dfu.c ****     ((USBD_DFU_MediaTypeDef *)pdev->pUserData)->DeInit();
 343:Middlewares/ST/STM32_USB_Device_Library/Class/DFU/Src/usbd_dfu.c ****     USBD_free(pdev->pClassData);
 344:Middlewares/ST/STM32_USB_Device_Library/Class/DFU/Src/usbd_dfu.c ****     pdev->pClassData = NULL;
 345:Middlewares/ST/STM32_USB_Device_Library/Class/DFU/Src/usbd_dfu.c ****   }
 346:Middlewares/ST/STM32_USB_Device_Library/Class/DFU/Src/usbd_dfu.c **** 
 347:Middlewares/ST/STM32_USB_Device_Library/Class/DFU/Src/usbd_dfu.c ****   return USBD_OK;
 348:Middlewares/ST/STM32_USB_Device_Library/Class/DFU/Src/usbd_dfu.c **** }
 349:Middlewares/ST/STM32_USB_Device_Library/Class/DFU/Src/usbd_dfu.c **** 
 350:Middlewares/ST/STM32_USB_Device_Library/Class/DFU/Src/usbd_dfu.c **** /**
 351:Middlewares/ST/STM32_USB_Device_Library/Class/DFU/Src/usbd_dfu.c ****   * @brief  USBD_DFU_Setup
 352:Middlewares/ST/STM32_USB_Device_Library/Class/DFU/Src/usbd_dfu.c ****   *         Handle the DFU specific requests
 353:Middlewares/ST/STM32_USB_Device_Library/Class/DFU/Src/usbd_dfu.c ****   * @param  pdev: instance
 354:Middlewares/ST/STM32_USB_Device_Library/Class/DFU/Src/usbd_dfu.c ****   * @param  req: usb requests
 355:Middlewares/ST/STM32_USB_Device_Library/Class/DFU/Src/usbd_dfu.c ****   * @retval status
 356:Middlewares/ST/STM32_USB_Device_Library/Class/DFU/Src/usbd_dfu.c ****   */
 357:Middlewares/ST/STM32_USB_Device_Library/Class/DFU/Src/usbd_dfu.c **** static uint8_t  USBD_DFU_Setup (USBD_HandleTypeDef *pdev,
 358:Middlewares/ST/STM32_USB_Device_Library/Class/DFU/Src/usbd_dfu.c ****                                 USBD_SetupReqTypedef *req)
 359:Middlewares/ST/STM32_USB_Device_Library/Class/DFU/Src/usbd_dfu.c **** {
 360:Middlewares/ST/STM32_USB_Device_Library/Class/DFU/Src/usbd_dfu.c ****   USBD_DFU_HandleTypeDef   *hdfu;
 361:Middlewares/ST/STM32_USB_Device_Library/Class/DFU/Src/usbd_dfu.c ****   uint8_t *pbuf = 0U;
 362:Middlewares/ST/STM32_USB_Device_Library/Class/DFU/Src/usbd_dfu.c ****   uint16_t len = 0U;
 363:Middlewares/ST/STM32_USB_Device_Library/Class/DFU/Src/usbd_dfu.c ****   uint16_t status_info = 0U;
 364:Middlewares/ST/STM32_USB_Device_Library/Class/DFU/Src/usbd_dfu.c ****   uint8_t ret = USBD_OK;
 365:Middlewares/ST/STM32_USB_Device_Library/Class/DFU/Src/usbd_dfu.c **** 
 366:Middlewares/ST/STM32_USB_Device_Library/Class/DFU/Src/usbd_dfu.c ****   hdfu = (USBD_DFU_HandleTypeDef*) pdev->pClassData;
 367:Middlewares/ST/STM32_USB_Device_Library/Class/DFU/Src/usbd_dfu.c **** 
 368:Middlewares/ST/STM32_USB_Device_Library/Class/DFU/Src/usbd_dfu.c ****   switch (req->bmRequest & USB_REQ_TYPE_MASK)
 369:Middlewares/ST/STM32_USB_Device_Library/Class/DFU/Src/usbd_dfu.c ****   {
 370:Middlewares/ST/STM32_USB_Device_Library/Class/DFU/Src/usbd_dfu.c ****   case USB_REQ_TYPE_CLASS:
 371:Middlewares/ST/STM32_USB_Device_Library/Class/DFU/Src/usbd_dfu.c ****     switch (req->bRequest)
 372:Middlewares/ST/STM32_USB_Device_Library/Class/DFU/Src/usbd_dfu.c ****     {
 373:Middlewares/ST/STM32_USB_Device_Library/Class/DFU/Src/usbd_dfu.c ****     case DFU_DNLOAD:
 374:Middlewares/ST/STM32_USB_Device_Library/Class/DFU/Src/usbd_dfu.c ****       DFU_Download(pdev, req);
 375:Middlewares/ST/STM32_USB_Device_Library/Class/DFU/Src/usbd_dfu.c ****       break;
 376:Middlewares/ST/STM32_USB_Device_Library/Class/DFU/Src/usbd_dfu.c **** 
ARM GAS  /tmp/ccfbgGae.s 			page 8


 377:Middlewares/ST/STM32_USB_Device_Library/Class/DFU/Src/usbd_dfu.c ****     case DFU_UPLOAD:
 378:Middlewares/ST/STM32_USB_Device_Library/Class/DFU/Src/usbd_dfu.c ****       DFU_Upload(pdev, req);
 379:Middlewares/ST/STM32_USB_Device_Library/Class/DFU/Src/usbd_dfu.c ****       break;
 380:Middlewares/ST/STM32_USB_Device_Library/Class/DFU/Src/usbd_dfu.c **** 
 381:Middlewares/ST/STM32_USB_Device_Library/Class/DFU/Src/usbd_dfu.c ****     case DFU_GETSTATUS:
 382:Middlewares/ST/STM32_USB_Device_Library/Class/DFU/Src/usbd_dfu.c ****       DFU_GetStatus(pdev);
 383:Middlewares/ST/STM32_USB_Device_Library/Class/DFU/Src/usbd_dfu.c ****       break;
 384:Middlewares/ST/STM32_USB_Device_Library/Class/DFU/Src/usbd_dfu.c **** 
 385:Middlewares/ST/STM32_USB_Device_Library/Class/DFU/Src/usbd_dfu.c ****     case DFU_CLRSTATUS:
 386:Middlewares/ST/STM32_USB_Device_Library/Class/DFU/Src/usbd_dfu.c ****       DFU_ClearStatus(pdev);
 387:Middlewares/ST/STM32_USB_Device_Library/Class/DFU/Src/usbd_dfu.c ****       break;
 388:Middlewares/ST/STM32_USB_Device_Library/Class/DFU/Src/usbd_dfu.c **** 
 389:Middlewares/ST/STM32_USB_Device_Library/Class/DFU/Src/usbd_dfu.c ****     case DFU_GETSTATE:
 390:Middlewares/ST/STM32_USB_Device_Library/Class/DFU/Src/usbd_dfu.c ****       DFU_GetState(pdev);
 391:Middlewares/ST/STM32_USB_Device_Library/Class/DFU/Src/usbd_dfu.c ****       break;
 392:Middlewares/ST/STM32_USB_Device_Library/Class/DFU/Src/usbd_dfu.c **** 
 393:Middlewares/ST/STM32_USB_Device_Library/Class/DFU/Src/usbd_dfu.c ****     case DFU_ABORT:
 394:Middlewares/ST/STM32_USB_Device_Library/Class/DFU/Src/usbd_dfu.c ****       DFU_Abort(pdev);
 395:Middlewares/ST/STM32_USB_Device_Library/Class/DFU/Src/usbd_dfu.c ****       break;
 396:Middlewares/ST/STM32_USB_Device_Library/Class/DFU/Src/usbd_dfu.c **** 
 397:Middlewares/ST/STM32_USB_Device_Library/Class/DFU/Src/usbd_dfu.c ****     case DFU_DETACH:
 398:Middlewares/ST/STM32_USB_Device_Library/Class/DFU/Src/usbd_dfu.c ****       DFU_Detach(pdev, req);
 399:Middlewares/ST/STM32_USB_Device_Library/Class/DFU/Src/usbd_dfu.c ****       break;
 400:Middlewares/ST/STM32_USB_Device_Library/Class/DFU/Src/usbd_dfu.c **** 
 401:Middlewares/ST/STM32_USB_Device_Library/Class/DFU/Src/usbd_dfu.c ****     default:
 402:Middlewares/ST/STM32_USB_Device_Library/Class/DFU/Src/usbd_dfu.c ****       USBD_CtlError (pdev, req);
 403:Middlewares/ST/STM32_USB_Device_Library/Class/DFU/Src/usbd_dfu.c ****       ret = USBD_FAIL;
 404:Middlewares/ST/STM32_USB_Device_Library/Class/DFU/Src/usbd_dfu.c ****       break;
 405:Middlewares/ST/STM32_USB_Device_Library/Class/DFU/Src/usbd_dfu.c ****     }
 406:Middlewares/ST/STM32_USB_Device_Library/Class/DFU/Src/usbd_dfu.c ****     break;
 407:Middlewares/ST/STM32_USB_Device_Library/Class/DFU/Src/usbd_dfu.c **** 
 408:Middlewares/ST/STM32_USB_Device_Library/Class/DFU/Src/usbd_dfu.c ****   case USB_REQ_TYPE_STANDARD:
 409:Middlewares/ST/STM32_USB_Device_Library/Class/DFU/Src/usbd_dfu.c ****     switch (req->bRequest)
 410:Middlewares/ST/STM32_USB_Device_Library/Class/DFU/Src/usbd_dfu.c ****     {
 411:Middlewares/ST/STM32_USB_Device_Library/Class/DFU/Src/usbd_dfu.c ****     case USB_REQ_GET_STATUS:
 412:Middlewares/ST/STM32_USB_Device_Library/Class/DFU/Src/usbd_dfu.c ****       if (pdev->dev_state == USBD_STATE_CONFIGURED)
 413:Middlewares/ST/STM32_USB_Device_Library/Class/DFU/Src/usbd_dfu.c ****       {
 414:Middlewares/ST/STM32_USB_Device_Library/Class/DFU/Src/usbd_dfu.c ****         USBD_CtlSendData (pdev, (uint8_t *)(void *)&status_info, 2U);
 415:Middlewares/ST/STM32_USB_Device_Library/Class/DFU/Src/usbd_dfu.c ****       }
 416:Middlewares/ST/STM32_USB_Device_Library/Class/DFU/Src/usbd_dfu.c ****       else
 417:Middlewares/ST/STM32_USB_Device_Library/Class/DFU/Src/usbd_dfu.c ****       {
 418:Middlewares/ST/STM32_USB_Device_Library/Class/DFU/Src/usbd_dfu.c ****         USBD_CtlError (pdev, req);
 419:Middlewares/ST/STM32_USB_Device_Library/Class/DFU/Src/usbd_dfu.c **** 			  ret = USBD_FAIL;
 420:Middlewares/ST/STM32_USB_Device_Library/Class/DFU/Src/usbd_dfu.c ****       }
 421:Middlewares/ST/STM32_USB_Device_Library/Class/DFU/Src/usbd_dfu.c ****       break;
 422:Middlewares/ST/STM32_USB_Device_Library/Class/DFU/Src/usbd_dfu.c **** 
 423:Middlewares/ST/STM32_USB_Device_Library/Class/DFU/Src/usbd_dfu.c ****     case USB_REQ_GET_DESCRIPTOR:
 424:Middlewares/ST/STM32_USB_Device_Library/Class/DFU/Src/usbd_dfu.c ****       if( (req->wValue >> 8) == DFU_DESCRIPTOR_TYPE)
 425:Middlewares/ST/STM32_USB_Device_Library/Class/DFU/Src/usbd_dfu.c ****       {
 426:Middlewares/ST/STM32_USB_Device_Library/Class/DFU/Src/usbd_dfu.c ****         pbuf = USBD_DFU_CfgDesc + (9U * (USBD_DFU_MAX_ITF_NUM + 1U));
 427:Middlewares/ST/STM32_USB_Device_Library/Class/DFU/Src/usbd_dfu.c ****         len = MIN(USB_DFU_DESC_SIZ , req->wLength);
 428:Middlewares/ST/STM32_USB_Device_Library/Class/DFU/Src/usbd_dfu.c ****       }
 429:Middlewares/ST/STM32_USB_Device_Library/Class/DFU/Src/usbd_dfu.c **** 
 430:Middlewares/ST/STM32_USB_Device_Library/Class/DFU/Src/usbd_dfu.c ****       USBD_CtlSendData (pdev, pbuf, len);
 431:Middlewares/ST/STM32_USB_Device_Library/Class/DFU/Src/usbd_dfu.c ****       break;
 432:Middlewares/ST/STM32_USB_Device_Library/Class/DFU/Src/usbd_dfu.c **** 
 433:Middlewares/ST/STM32_USB_Device_Library/Class/DFU/Src/usbd_dfu.c ****     case USB_REQ_GET_INTERFACE:
ARM GAS  /tmp/ccfbgGae.s 			page 9


 434:Middlewares/ST/STM32_USB_Device_Library/Class/DFU/Src/usbd_dfu.c ****       if (pdev->dev_state == USBD_STATE_CONFIGURED)
 435:Middlewares/ST/STM32_USB_Device_Library/Class/DFU/Src/usbd_dfu.c ****       {
 436:Middlewares/ST/STM32_USB_Device_Library/Class/DFU/Src/usbd_dfu.c ****         USBD_CtlSendData (pdev, (uint8_t *)(void *)&hdfu->alt_setting, 1U);
 437:Middlewares/ST/STM32_USB_Device_Library/Class/DFU/Src/usbd_dfu.c ****       }
 438:Middlewares/ST/STM32_USB_Device_Library/Class/DFU/Src/usbd_dfu.c ****       else
 439:Middlewares/ST/STM32_USB_Device_Library/Class/DFU/Src/usbd_dfu.c ****       {
 440:Middlewares/ST/STM32_USB_Device_Library/Class/DFU/Src/usbd_dfu.c ****         USBD_CtlError (pdev, req);
 441:Middlewares/ST/STM32_USB_Device_Library/Class/DFU/Src/usbd_dfu.c **** 			  ret = USBD_FAIL;
 442:Middlewares/ST/STM32_USB_Device_Library/Class/DFU/Src/usbd_dfu.c ****       }
 443:Middlewares/ST/STM32_USB_Device_Library/Class/DFU/Src/usbd_dfu.c ****       break;
 444:Middlewares/ST/STM32_USB_Device_Library/Class/DFU/Src/usbd_dfu.c **** 
 445:Middlewares/ST/STM32_USB_Device_Library/Class/DFU/Src/usbd_dfu.c ****     case USB_REQ_SET_INTERFACE:
 446:Middlewares/ST/STM32_USB_Device_Library/Class/DFU/Src/usbd_dfu.c ****       if ((uint8_t)(req->wValue) < USBD_DFU_MAX_ITF_NUM)
 447:Middlewares/ST/STM32_USB_Device_Library/Class/DFU/Src/usbd_dfu.c ****       {
 448:Middlewares/ST/STM32_USB_Device_Library/Class/DFU/Src/usbd_dfu.c ****         if (pdev->dev_state == USBD_STATE_CONFIGURED)
 449:Middlewares/ST/STM32_USB_Device_Library/Class/DFU/Src/usbd_dfu.c ****         {
 450:Middlewares/ST/STM32_USB_Device_Library/Class/DFU/Src/usbd_dfu.c ****           hdfu->alt_setting = (uint8_t)(req->wValue);
 451:Middlewares/ST/STM32_USB_Device_Library/Class/DFU/Src/usbd_dfu.c ****         }
 452:Middlewares/ST/STM32_USB_Device_Library/Class/DFU/Src/usbd_dfu.c ****         else
 453:Middlewares/ST/STM32_USB_Device_Library/Class/DFU/Src/usbd_dfu.c ****         {
 454:Middlewares/ST/STM32_USB_Device_Library/Class/DFU/Src/usbd_dfu.c ****           USBD_CtlError (pdev, req);
 455:Middlewares/ST/STM32_USB_Device_Library/Class/DFU/Src/usbd_dfu.c ****           ret = USBD_FAIL;
 456:Middlewares/ST/STM32_USB_Device_Library/Class/DFU/Src/usbd_dfu.c ****         }
 457:Middlewares/ST/STM32_USB_Device_Library/Class/DFU/Src/usbd_dfu.c ****       }
 458:Middlewares/ST/STM32_USB_Device_Library/Class/DFU/Src/usbd_dfu.c ****       else
 459:Middlewares/ST/STM32_USB_Device_Library/Class/DFU/Src/usbd_dfu.c ****       {
 460:Middlewares/ST/STM32_USB_Device_Library/Class/DFU/Src/usbd_dfu.c ****         /* Call the error management function (command will be nacked */
 461:Middlewares/ST/STM32_USB_Device_Library/Class/DFU/Src/usbd_dfu.c ****         USBD_CtlError (pdev, req);
 462:Middlewares/ST/STM32_USB_Device_Library/Class/DFU/Src/usbd_dfu.c ****         ret = USBD_FAIL;
 463:Middlewares/ST/STM32_USB_Device_Library/Class/DFU/Src/usbd_dfu.c ****       }
 464:Middlewares/ST/STM32_USB_Device_Library/Class/DFU/Src/usbd_dfu.c ****       break;
 465:Middlewares/ST/STM32_USB_Device_Library/Class/DFU/Src/usbd_dfu.c **** 
 466:Middlewares/ST/STM32_USB_Device_Library/Class/DFU/Src/usbd_dfu.c ****     default:
 467:Middlewares/ST/STM32_USB_Device_Library/Class/DFU/Src/usbd_dfu.c ****       USBD_CtlError (pdev, req);
 468:Middlewares/ST/STM32_USB_Device_Library/Class/DFU/Src/usbd_dfu.c ****       ret = USBD_FAIL;
 469:Middlewares/ST/STM32_USB_Device_Library/Class/DFU/Src/usbd_dfu.c ****       break;
 470:Middlewares/ST/STM32_USB_Device_Library/Class/DFU/Src/usbd_dfu.c ****     }
 471:Middlewares/ST/STM32_USB_Device_Library/Class/DFU/Src/usbd_dfu.c ****     break;
 472:Middlewares/ST/STM32_USB_Device_Library/Class/DFU/Src/usbd_dfu.c **** 
 473:Middlewares/ST/STM32_USB_Device_Library/Class/DFU/Src/usbd_dfu.c ****   default:
 474:Middlewares/ST/STM32_USB_Device_Library/Class/DFU/Src/usbd_dfu.c ****     USBD_CtlError (pdev, req);
 475:Middlewares/ST/STM32_USB_Device_Library/Class/DFU/Src/usbd_dfu.c ****     ret = USBD_FAIL;
 476:Middlewares/ST/STM32_USB_Device_Library/Class/DFU/Src/usbd_dfu.c ****     break;
 477:Middlewares/ST/STM32_USB_Device_Library/Class/DFU/Src/usbd_dfu.c ****   }
 478:Middlewares/ST/STM32_USB_Device_Library/Class/DFU/Src/usbd_dfu.c **** 
 479:Middlewares/ST/STM32_USB_Device_Library/Class/DFU/Src/usbd_dfu.c ****   return ret;
 480:Middlewares/ST/STM32_USB_Device_Library/Class/DFU/Src/usbd_dfu.c **** }
 481:Middlewares/ST/STM32_USB_Device_Library/Class/DFU/Src/usbd_dfu.c **** 
 482:Middlewares/ST/STM32_USB_Device_Library/Class/DFU/Src/usbd_dfu.c **** 
 483:Middlewares/ST/STM32_USB_Device_Library/Class/DFU/Src/usbd_dfu.c **** /**
 484:Middlewares/ST/STM32_USB_Device_Library/Class/DFU/Src/usbd_dfu.c ****   * @brief  USBD_DFU_GetCfgDesc
 485:Middlewares/ST/STM32_USB_Device_Library/Class/DFU/Src/usbd_dfu.c ****   *         return configuration descriptor
 486:Middlewares/ST/STM32_USB_Device_Library/Class/DFU/Src/usbd_dfu.c ****   * @param  speed : current device speed
 487:Middlewares/ST/STM32_USB_Device_Library/Class/DFU/Src/usbd_dfu.c ****   * @param  length : pointer data length
 488:Middlewares/ST/STM32_USB_Device_Library/Class/DFU/Src/usbd_dfu.c ****   * @retval pointer to descriptor buffer
 489:Middlewares/ST/STM32_USB_Device_Library/Class/DFU/Src/usbd_dfu.c ****   */
 490:Middlewares/ST/STM32_USB_Device_Library/Class/DFU/Src/usbd_dfu.c **** static uint8_t  *USBD_DFU_GetCfgDesc (uint16_t *length)
ARM GAS  /tmp/ccfbgGae.s 			page 10


 491:Middlewares/ST/STM32_USB_Device_Library/Class/DFU/Src/usbd_dfu.c **** {
  25              		.loc 1 491 0
  26              		.cfi_startproc
  27              		@ args = 0, pretend = 0, frame = 0
  28              		@ frame_needed = 0, uses_anonymous_args = 0
  29              		@ link register save eliminated.
  30              	.LVL0:
 492:Middlewares/ST/STM32_USB_Device_Library/Class/DFU/Src/usbd_dfu.c ****   *length = sizeof (USBD_DFU_CfgDesc);
  31              		.loc 1 492 0
  32 0000 1B23     		movs	r3, #27
  33 0002 0380     		strh	r3, [r0]	@ movhi
 493:Middlewares/ST/STM32_USB_Device_Library/Class/DFU/Src/usbd_dfu.c ****   return USBD_DFU_CfgDesc;
 494:Middlewares/ST/STM32_USB_Device_Library/Class/DFU/Src/usbd_dfu.c **** }
  34              		.loc 1 494 0
  35 0004 0048     		ldr	r0, .L2
  36              	.LVL1:
  37 0006 7047     		bx	lr
  38              	.L3:
  39              		.align	2
  40              	.L2:
  41 0008 00000000 		.word	.LANCHOR0
  42              		.cfi_endproc
  43              	.LFE76:
  45              		.section	.text.USBD_DFU_DataIn,"ax",%progbits
  46              		.align	1
  47              		.syntax unified
  48              		.thumb
  49              		.thumb_func
  50              		.fpu softvfp
  52              	USBD_DFU_DataIn:
  53              	.LFB77:
 495:Middlewares/ST/STM32_USB_Device_Library/Class/DFU/Src/usbd_dfu.c **** 
 496:Middlewares/ST/STM32_USB_Device_Library/Class/DFU/Src/usbd_dfu.c **** /**
 497:Middlewares/ST/STM32_USB_Device_Library/Class/DFU/Src/usbd_dfu.c ****   * @brief  USBD_DFU_DataIn
 498:Middlewares/ST/STM32_USB_Device_Library/Class/DFU/Src/usbd_dfu.c ****   *         handle data IN Stage
 499:Middlewares/ST/STM32_USB_Device_Library/Class/DFU/Src/usbd_dfu.c ****   * @param  pdev: device instance
 500:Middlewares/ST/STM32_USB_Device_Library/Class/DFU/Src/usbd_dfu.c ****   * @param  epnum: endpoint index
 501:Middlewares/ST/STM32_USB_Device_Library/Class/DFU/Src/usbd_dfu.c ****   * @retval status
 502:Middlewares/ST/STM32_USB_Device_Library/Class/DFU/Src/usbd_dfu.c ****   */
 503:Middlewares/ST/STM32_USB_Device_Library/Class/DFU/Src/usbd_dfu.c **** static uint8_t  USBD_DFU_DataIn (USBD_HandleTypeDef *pdev,
 504:Middlewares/ST/STM32_USB_Device_Library/Class/DFU/Src/usbd_dfu.c ****                               uint8_t epnum)
 505:Middlewares/ST/STM32_USB_Device_Library/Class/DFU/Src/usbd_dfu.c **** {
  54              		.loc 1 505 0
  55              		.cfi_startproc
  56              		@ args = 0, pretend = 0, frame = 0
  57              		@ frame_needed = 0, uses_anonymous_args = 0
  58              		@ link register save eliminated.
  59              	.LVL2:
 506:Middlewares/ST/STM32_USB_Device_Library/Class/DFU/Src/usbd_dfu.c **** 
 507:Middlewares/ST/STM32_USB_Device_Library/Class/DFU/Src/usbd_dfu.c ****   return USBD_OK;
 508:Middlewares/ST/STM32_USB_Device_Library/Class/DFU/Src/usbd_dfu.c **** }
  60              		.loc 1 508 0
  61 0000 0020     		movs	r0, #0
  62              	.LVL3:
  63 0002 7047     		bx	lr
  64              		.cfi_endproc
  65              	.LFE77:
ARM GAS  /tmp/ccfbgGae.s 			page 11


  67              		.section	.text.USBD_DFU_EP0_RxReady,"ax",%progbits
  68              		.align	1
  69              		.syntax unified
  70              		.thumb
  71              		.thumb_func
  72              		.fpu softvfp
  74              	USBD_DFU_EP0_RxReady:
  75              	.LFB78:
 509:Middlewares/ST/STM32_USB_Device_Library/Class/DFU/Src/usbd_dfu.c **** 
 510:Middlewares/ST/STM32_USB_Device_Library/Class/DFU/Src/usbd_dfu.c **** /**
 511:Middlewares/ST/STM32_USB_Device_Library/Class/DFU/Src/usbd_dfu.c ****   * @brief  USBD_DFU_EP0_RxReady
 512:Middlewares/ST/STM32_USB_Device_Library/Class/DFU/Src/usbd_dfu.c ****   *         handle EP0 Rx Ready event
 513:Middlewares/ST/STM32_USB_Device_Library/Class/DFU/Src/usbd_dfu.c ****   * @param  pdev: device instance
 514:Middlewares/ST/STM32_USB_Device_Library/Class/DFU/Src/usbd_dfu.c ****   * @retval status
 515:Middlewares/ST/STM32_USB_Device_Library/Class/DFU/Src/usbd_dfu.c ****   */
 516:Middlewares/ST/STM32_USB_Device_Library/Class/DFU/Src/usbd_dfu.c **** static uint8_t  USBD_DFU_EP0_RxReady (USBD_HandleTypeDef *pdev)
 517:Middlewares/ST/STM32_USB_Device_Library/Class/DFU/Src/usbd_dfu.c **** {
  76              		.loc 1 517 0
  77              		.cfi_startproc
  78              		@ args = 0, pretend = 0, frame = 0
  79              		@ frame_needed = 0, uses_anonymous_args = 0
  80              		@ link register save eliminated.
  81              	.LVL4:
 518:Middlewares/ST/STM32_USB_Device_Library/Class/DFU/Src/usbd_dfu.c **** 
 519:Middlewares/ST/STM32_USB_Device_Library/Class/DFU/Src/usbd_dfu.c ****   return USBD_OK;
 520:Middlewares/ST/STM32_USB_Device_Library/Class/DFU/Src/usbd_dfu.c **** }
  82              		.loc 1 520 0
  83 0000 0020     		movs	r0, #0
  84              	.LVL5:
  85 0002 7047     		bx	lr
  86              		.cfi_endproc
  87              	.LFE78:
  89              		.section	.text.USBD_DFU_SOF,"ax",%progbits
  90              		.align	1
  91              		.syntax unified
  92              		.thumb
  93              		.thumb_func
  94              		.fpu softvfp
  96              	USBD_DFU_SOF:
  97              	.LFB80:
 521:Middlewares/ST/STM32_USB_Device_Library/Class/DFU/Src/usbd_dfu.c **** /**
 522:Middlewares/ST/STM32_USB_Device_Library/Class/DFU/Src/usbd_dfu.c ****   * @brief  USBD_DFU_EP0_TxReady
 523:Middlewares/ST/STM32_USB_Device_Library/Class/DFU/Src/usbd_dfu.c ****   *         handle EP0 TRx Ready event
 524:Middlewares/ST/STM32_USB_Device_Library/Class/DFU/Src/usbd_dfu.c ****   * @param  pdev: device instance
 525:Middlewares/ST/STM32_USB_Device_Library/Class/DFU/Src/usbd_dfu.c ****   * @retval status
 526:Middlewares/ST/STM32_USB_Device_Library/Class/DFU/Src/usbd_dfu.c ****   */
 527:Middlewares/ST/STM32_USB_Device_Library/Class/DFU/Src/usbd_dfu.c **** static uint8_t  USBD_DFU_EP0_TxReady (USBD_HandleTypeDef *pdev)
 528:Middlewares/ST/STM32_USB_Device_Library/Class/DFU/Src/usbd_dfu.c **** {
 529:Middlewares/ST/STM32_USB_Device_Library/Class/DFU/Src/usbd_dfu.c ****  uint32_t addr;
 530:Middlewares/ST/STM32_USB_Device_Library/Class/DFU/Src/usbd_dfu.c ****  USBD_SetupReqTypedef     req;
 531:Middlewares/ST/STM32_USB_Device_Library/Class/DFU/Src/usbd_dfu.c ****  USBD_DFU_HandleTypeDef   *hdfu;
 532:Middlewares/ST/STM32_USB_Device_Library/Class/DFU/Src/usbd_dfu.c **** 
 533:Middlewares/ST/STM32_USB_Device_Library/Class/DFU/Src/usbd_dfu.c ****  hdfu = (USBD_DFU_HandleTypeDef*) pdev->pClassData;
 534:Middlewares/ST/STM32_USB_Device_Library/Class/DFU/Src/usbd_dfu.c **** 
 535:Middlewares/ST/STM32_USB_Device_Library/Class/DFU/Src/usbd_dfu.c ****   if (hdfu->dev_state == DFU_STATE_DNLOAD_BUSY)
 536:Middlewares/ST/STM32_USB_Device_Library/Class/DFU/Src/usbd_dfu.c ****   {
 537:Middlewares/ST/STM32_USB_Device_Library/Class/DFU/Src/usbd_dfu.c ****     /* Decode the Special Command*/
ARM GAS  /tmp/ccfbgGae.s 			page 12


 538:Middlewares/ST/STM32_USB_Device_Library/Class/DFU/Src/usbd_dfu.c ****     if (hdfu->wblock_num == 0U)
 539:Middlewares/ST/STM32_USB_Device_Library/Class/DFU/Src/usbd_dfu.c ****     {
 540:Middlewares/ST/STM32_USB_Device_Library/Class/DFU/Src/usbd_dfu.c ****       if ((hdfu->buffer.d8[0] == DFU_CMD_GETCOMMANDS) && (hdfu->wlength == 1U))
 541:Middlewares/ST/STM32_USB_Device_Library/Class/DFU/Src/usbd_dfu.c ****       {
 542:Middlewares/ST/STM32_USB_Device_Library/Class/DFU/Src/usbd_dfu.c **** 
 543:Middlewares/ST/STM32_USB_Device_Library/Class/DFU/Src/usbd_dfu.c ****       }
 544:Middlewares/ST/STM32_USB_Device_Library/Class/DFU/Src/usbd_dfu.c ****       else if ((hdfu->buffer.d8[0] == DFU_CMD_SETADDRESSPOINTER) && (hdfu->wlength == 5U))
 545:Middlewares/ST/STM32_USB_Device_Library/Class/DFU/Src/usbd_dfu.c ****       {
 546:Middlewares/ST/STM32_USB_Device_Library/Class/DFU/Src/usbd_dfu.c ****         hdfu->data_ptr = hdfu->buffer.d8[1];
 547:Middlewares/ST/STM32_USB_Device_Library/Class/DFU/Src/usbd_dfu.c ****         hdfu->data_ptr += (uint32_t)hdfu->buffer.d8[2] << 8;
 548:Middlewares/ST/STM32_USB_Device_Library/Class/DFU/Src/usbd_dfu.c ****         hdfu->data_ptr += (uint32_t)hdfu->buffer.d8[3] << 16;
 549:Middlewares/ST/STM32_USB_Device_Library/Class/DFU/Src/usbd_dfu.c ****         hdfu->data_ptr += (uint32_t)hdfu->buffer.d8[4] << 24;
 550:Middlewares/ST/STM32_USB_Device_Library/Class/DFU/Src/usbd_dfu.c ****       }
 551:Middlewares/ST/STM32_USB_Device_Library/Class/DFU/Src/usbd_dfu.c ****       else if ((hdfu->buffer.d8[0] == DFU_CMD_ERASE) && (hdfu->wlength == 5U))
 552:Middlewares/ST/STM32_USB_Device_Library/Class/DFU/Src/usbd_dfu.c ****       {
 553:Middlewares/ST/STM32_USB_Device_Library/Class/DFU/Src/usbd_dfu.c ****         hdfu->data_ptr = hdfu->buffer.d8[1];
 554:Middlewares/ST/STM32_USB_Device_Library/Class/DFU/Src/usbd_dfu.c ****         hdfu->data_ptr += (uint32_t)hdfu->buffer.d8[2] << 8;
 555:Middlewares/ST/STM32_USB_Device_Library/Class/DFU/Src/usbd_dfu.c ****         hdfu->data_ptr += (uint32_t)hdfu->buffer.d8[3] << 16;
 556:Middlewares/ST/STM32_USB_Device_Library/Class/DFU/Src/usbd_dfu.c ****         hdfu->data_ptr += (uint32_t)hdfu->buffer.d8[4] << 24;
 557:Middlewares/ST/STM32_USB_Device_Library/Class/DFU/Src/usbd_dfu.c **** 
 558:Middlewares/ST/STM32_USB_Device_Library/Class/DFU/Src/usbd_dfu.c ****         if (((USBD_DFU_MediaTypeDef *)pdev->pUserData)->Erase(hdfu->data_ptr) != USBD_OK)
 559:Middlewares/ST/STM32_USB_Device_Library/Class/DFU/Src/usbd_dfu.c ****         {
 560:Middlewares/ST/STM32_USB_Device_Library/Class/DFU/Src/usbd_dfu.c ****           return USBD_FAIL;
 561:Middlewares/ST/STM32_USB_Device_Library/Class/DFU/Src/usbd_dfu.c ****         }
 562:Middlewares/ST/STM32_USB_Device_Library/Class/DFU/Src/usbd_dfu.c ****       }
 563:Middlewares/ST/STM32_USB_Device_Library/Class/DFU/Src/usbd_dfu.c ****       else
 564:Middlewares/ST/STM32_USB_Device_Library/Class/DFU/Src/usbd_dfu.c ****       {
 565:Middlewares/ST/STM32_USB_Device_Library/Class/DFU/Src/usbd_dfu.c ****         /* Reset the global length and block number */
 566:Middlewares/ST/STM32_USB_Device_Library/Class/DFU/Src/usbd_dfu.c ****         hdfu->wlength = 0U;
 567:Middlewares/ST/STM32_USB_Device_Library/Class/DFU/Src/usbd_dfu.c ****         hdfu->wblock_num = 0U;
 568:Middlewares/ST/STM32_USB_Device_Library/Class/DFU/Src/usbd_dfu.c ****         /* Call the error management function (command will be nacked) */
 569:Middlewares/ST/STM32_USB_Device_Library/Class/DFU/Src/usbd_dfu.c ****         req.bmRequest = 0U;
 570:Middlewares/ST/STM32_USB_Device_Library/Class/DFU/Src/usbd_dfu.c ****         req.wLength = 1U;
 571:Middlewares/ST/STM32_USB_Device_Library/Class/DFU/Src/usbd_dfu.c ****         USBD_CtlError (pdev, &req);
 572:Middlewares/ST/STM32_USB_Device_Library/Class/DFU/Src/usbd_dfu.c ****       }
 573:Middlewares/ST/STM32_USB_Device_Library/Class/DFU/Src/usbd_dfu.c ****     }
 574:Middlewares/ST/STM32_USB_Device_Library/Class/DFU/Src/usbd_dfu.c ****     /* Regular Download Command */
 575:Middlewares/ST/STM32_USB_Device_Library/Class/DFU/Src/usbd_dfu.c ****     else
 576:Middlewares/ST/STM32_USB_Device_Library/Class/DFU/Src/usbd_dfu.c ****     {
 577:Middlewares/ST/STM32_USB_Device_Library/Class/DFU/Src/usbd_dfu.c ****       if (hdfu->wblock_num > 1U)
 578:Middlewares/ST/STM32_USB_Device_Library/Class/DFU/Src/usbd_dfu.c ****       {
 579:Middlewares/ST/STM32_USB_Device_Library/Class/DFU/Src/usbd_dfu.c ****         /* Decode the required address */
 580:Middlewares/ST/STM32_USB_Device_Library/Class/DFU/Src/usbd_dfu.c ****         addr = ((hdfu->wblock_num - 2U) * USBD_DFU_XFER_SIZE) + hdfu->data_ptr;
 581:Middlewares/ST/STM32_USB_Device_Library/Class/DFU/Src/usbd_dfu.c **** 
 582:Middlewares/ST/STM32_USB_Device_Library/Class/DFU/Src/usbd_dfu.c ****         /* Preform the write operation */
 583:Middlewares/ST/STM32_USB_Device_Library/Class/DFU/Src/usbd_dfu.c ****         if (((USBD_DFU_MediaTypeDef *)pdev->pUserData)->Write(hdfu->buffer.d8,
 584:Middlewares/ST/STM32_USB_Device_Library/Class/DFU/Src/usbd_dfu.c ****                                      (uint8_t *)addr, hdfu->wlength) != USBD_OK)
 585:Middlewares/ST/STM32_USB_Device_Library/Class/DFU/Src/usbd_dfu.c ****         {
 586:Middlewares/ST/STM32_USB_Device_Library/Class/DFU/Src/usbd_dfu.c ****           return USBD_FAIL;
 587:Middlewares/ST/STM32_USB_Device_Library/Class/DFU/Src/usbd_dfu.c ****         }
 588:Middlewares/ST/STM32_USB_Device_Library/Class/DFU/Src/usbd_dfu.c ****       }
 589:Middlewares/ST/STM32_USB_Device_Library/Class/DFU/Src/usbd_dfu.c ****     }
 590:Middlewares/ST/STM32_USB_Device_Library/Class/DFU/Src/usbd_dfu.c **** 
 591:Middlewares/ST/STM32_USB_Device_Library/Class/DFU/Src/usbd_dfu.c ****     /* Reset the global length and block number */
 592:Middlewares/ST/STM32_USB_Device_Library/Class/DFU/Src/usbd_dfu.c ****     hdfu->wlength = 0U;
 593:Middlewares/ST/STM32_USB_Device_Library/Class/DFU/Src/usbd_dfu.c ****     hdfu->wblock_num = 0U;
 594:Middlewares/ST/STM32_USB_Device_Library/Class/DFU/Src/usbd_dfu.c **** 
ARM GAS  /tmp/ccfbgGae.s 			page 13


 595:Middlewares/ST/STM32_USB_Device_Library/Class/DFU/Src/usbd_dfu.c ****     /* Update the state machine */
 596:Middlewares/ST/STM32_USB_Device_Library/Class/DFU/Src/usbd_dfu.c ****     hdfu->dev_state =  DFU_STATE_DNLOAD_SYNC;
 597:Middlewares/ST/STM32_USB_Device_Library/Class/DFU/Src/usbd_dfu.c **** 
 598:Middlewares/ST/STM32_USB_Device_Library/Class/DFU/Src/usbd_dfu.c ****     hdfu->dev_status[1] = 0U;
 599:Middlewares/ST/STM32_USB_Device_Library/Class/DFU/Src/usbd_dfu.c ****     hdfu->dev_status[2] = 0U;
 600:Middlewares/ST/STM32_USB_Device_Library/Class/DFU/Src/usbd_dfu.c ****     hdfu->dev_status[3] = 0U;
 601:Middlewares/ST/STM32_USB_Device_Library/Class/DFU/Src/usbd_dfu.c ****     hdfu->dev_status[4] = hdfu->dev_state;
 602:Middlewares/ST/STM32_USB_Device_Library/Class/DFU/Src/usbd_dfu.c ****     return USBD_OK;
 603:Middlewares/ST/STM32_USB_Device_Library/Class/DFU/Src/usbd_dfu.c ****   }
 604:Middlewares/ST/STM32_USB_Device_Library/Class/DFU/Src/usbd_dfu.c ****   else
 605:Middlewares/ST/STM32_USB_Device_Library/Class/DFU/Src/usbd_dfu.c ****   {
 606:Middlewares/ST/STM32_USB_Device_Library/Class/DFU/Src/usbd_dfu.c ****     if (hdfu->dev_state == DFU_STATE_MANIFEST)/* Manifestation in progress */
 607:Middlewares/ST/STM32_USB_Device_Library/Class/DFU/Src/usbd_dfu.c ****     {
 608:Middlewares/ST/STM32_USB_Device_Library/Class/DFU/Src/usbd_dfu.c ****       /* Start leaving DFU mode */
 609:Middlewares/ST/STM32_USB_Device_Library/Class/DFU/Src/usbd_dfu.c ****       DFU_Leave(pdev);
 610:Middlewares/ST/STM32_USB_Device_Library/Class/DFU/Src/usbd_dfu.c ****     }
 611:Middlewares/ST/STM32_USB_Device_Library/Class/DFU/Src/usbd_dfu.c ****   }
 612:Middlewares/ST/STM32_USB_Device_Library/Class/DFU/Src/usbd_dfu.c **** 
 613:Middlewares/ST/STM32_USB_Device_Library/Class/DFU/Src/usbd_dfu.c ****   return USBD_OK;
 614:Middlewares/ST/STM32_USB_Device_Library/Class/DFU/Src/usbd_dfu.c **** }
 615:Middlewares/ST/STM32_USB_Device_Library/Class/DFU/Src/usbd_dfu.c **** /**
 616:Middlewares/ST/STM32_USB_Device_Library/Class/DFU/Src/usbd_dfu.c ****   * @brief  USBD_DFU_SOF
 617:Middlewares/ST/STM32_USB_Device_Library/Class/DFU/Src/usbd_dfu.c ****   *         handle SOF event
 618:Middlewares/ST/STM32_USB_Device_Library/Class/DFU/Src/usbd_dfu.c ****   * @param  pdev: device instance
 619:Middlewares/ST/STM32_USB_Device_Library/Class/DFU/Src/usbd_dfu.c ****   * @retval status
 620:Middlewares/ST/STM32_USB_Device_Library/Class/DFU/Src/usbd_dfu.c ****   */
 621:Middlewares/ST/STM32_USB_Device_Library/Class/DFU/Src/usbd_dfu.c **** static uint8_t  USBD_DFU_SOF (USBD_HandleTypeDef *pdev)
 622:Middlewares/ST/STM32_USB_Device_Library/Class/DFU/Src/usbd_dfu.c **** {
  98              		.loc 1 622 0
  99              		.cfi_startproc
 100              		@ args = 0, pretend = 0, frame = 0
 101              		@ frame_needed = 0, uses_anonymous_args = 0
 102              		@ link register save eliminated.
 103              	.LVL6:
 623:Middlewares/ST/STM32_USB_Device_Library/Class/DFU/Src/usbd_dfu.c **** 
 624:Middlewares/ST/STM32_USB_Device_Library/Class/DFU/Src/usbd_dfu.c ****   return USBD_OK;
 625:Middlewares/ST/STM32_USB_Device_Library/Class/DFU/Src/usbd_dfu.c **** }
 104              		.loc 1 625 0
 105 0000 0020     		movs	r0, #0
 106              	.LVL7:
 107 0002 7047     		bx	lr
 108              		.cfi_endproc
 109              	.LFE80:
 111              		.section	.text.USBD_DFU_IsoINIncomplete,"ax",%progbits
 112              		.align	1
 113              		.syntax unified
 114              		.thumb
 115              		.thumb_func
 116              		.fpu softvfp
 118              	USBD_DFU_IsoINIncomplete:
 119              	.LFB81:
 626:Middlewares/ST/STM32_USB_Device_Library/Class/DFU/Src/usbd_dfu.c **** /**
 627:Middlewares/ST/STM32_USB_Device_Library/Class/DFU/Src/usbd_dfu.c ****   * @brief  USBD_DFU_IsoINIncomplete
 628:Middlewares/ST/STM32_USB_Device_Library/Class/DFU/Src/usbd_dfu.c ****   *         handle data ISO IN Incomplete event
 629:Middlewares/ST/STM32_USB_Device_Library/Class/DFU/Src/usbd_dfu.c ****   * @param  pdev: device instance
 630:Middlewares/ST/STM32_USB_Device_Library/Class/DFU/Src/usbd_dfu.c ****   * @param  epnum: endpoint index
 631:Middlewares/ST/STM32_USB_Device_Library/Class/DFU/Src/usbd_dfu.c ****   * @retval status
ARM GAS  /tmp/ccfbgGae.s 			page 14


 632:Middlewares/ST/STM32_USB_Device_Library/Class/DFU/Src/usbd_dfu.c ****   */
 633:Middlewares/ST/STM32_USB_Device_Library/Class/DFU/Src/usbd_dfu.c **** static uint8_t  USBD_DFU_IsoINIncomplete (USBD_HandleTypeDef *pdev, uint8_t epnum)
 634:Middlewares/ST/STM32_USB_Device_Library/Class/DFU/Src/usbd_dfu.c **** {
 120              		.loc 1 634 0
 121              		.cfi_startproc
 122              		@ args = 0, pretend = 0, frame = 0
 123              		@ frame_needed = 0, uses_anonymous_args = 0
 124              		@ link register save eliminated.
 125              	.LVL8:
 635:Middlewares/ST/STM32_USB_Device_Library/Class/DFU/Src/usbd_dfu.c **** 
 636:Middlewares/ST/STM32_USB_Device_Library/Class/DFU/Src/usbd_dfu.c ****   return USBD_OK;
 637:Middlewares/ST/STM32_USB_Device_Library/Class/DFU/Src/usbd_dfu.c **** }
 126              		.loc 1 637 0
 127 0000 0020     		movs	r0, #0
 128              	.LVL9:
 129 0002 7047     		bx	lr
 130              		.cfi_endproc
 131              	.LFE81:
 133              		.section	.text.USBD_DFU_IsoOutIncomplete,"ax",%progbits
 134              		.align	1
 135              		.syntax unified
 136              		.thumb
 137              		.thumb_func
 138              		.fpu softvfp
 140              	USBD_DFU_IsoOutIncomplete:
 141              	.LFB82:
 638:Middlewares/ST/STM32_USB_Device_Library/Class/DFU/Src/usbd_dfu.c **** /**
 639:Middlewares/ST/STM32_USB_Device_Library/Class/DFU/Src/usbd_dfu.c ****   * @brief  USBD_DFU_IsoOutIncomplete
 640:Middlewares/ST/STM32_USB_Device_Library/Class/DFU/Src/usbd_dfu.c ****   *         handle data ISO OUT Incomplete event
 641:Middlewares/ST/STM32_USB_Device_Library/Class/DFU/Src/usbd_dfu.c ****   * @param  pdev: device instance
 642:Middlewares/ST/STM32_USB_Device_Library/Class/DFU/Src/usbd_dfu.c ****   * @param  epnum: endpoint index
 643:Middlewares/ST/STM32_USB_Device_Library/Class/DFU/Src/usbd_dfu.c ****   * @retval status
 644:Middlewares/ST/STM32_USB_Device_Library/Class/DFU/Src/usbd_dfu.c ****   */
 645:Middlewares/ST/STM32_USB_Device_Library/Class/DFU/Src/usbd_dfu.c **** static uint8_t  USBD_DFU_IsoOutIncomplete (USBD_HandleTypeDef *pdev, uint8_t epnum)
 646:Middlewares/ST/STM32_USB_Device_Library/Class/DFU/Src/usbd_dfu.c **** {
 142              		.loc 1 646 0
 143              		.cfi_startproc
 144              		@ args = 0, pretend = 0, frame = 0
 145              		@ frame_needed = 0, uses_anonymous_args = 0
 146              		@ link register save eliminated.
 147              	.LVL10:
 647:Middlewares/ST/STM32_USB_Device_Library/Class/DFU/Src/usbd_dfu.c **** 
 648:Middlewares/ST/STM32_USB_Device_Library/Class/DFU/Src/usbd_dfu.c ****   return USBD_OK;
 649:Middlewares/ST/STM32_USB_Device_Library/Class/DFU/Src/usbd_dfu.c **** }
 148              		.loc 1 649 0
 149 0000 0020     		movs	r0, #0
 150              	.LVL11:
 151 0002 7047     		bx	lr
 152              		.cfi_endproc
 153              	.LFE82:
 155              		.section	.text.USBD_DFU_DataOut,"ax",%progbits
 156              		.align	1
 157              		.syntax unified
 158              		.thumb
 159              		.thumb_func
 160              		.fpu softvfp
 162              	USBD_DFU_DataOut:
ARM GAS  /tmp/ccfbgGae.s 			page 15


 163              	.LFB83:
 650:Middlewares/ST/STM32_USB_Device_Library/Class/DFU/Src/usbd_dfu.c **** /**
 651:Middlewares/ST/STM32_USB_Device_Library/Class/DFU/Src/usbd_dfu.c ****   * @brief  USBD_DFU_DataOut
 652:Middlewares/ST/STM32_USB_Device_Library/Class/DFU/Src/usbd_dfu.c ****   *         handle data OUT Stage
 653:Middlewares/ST/STM32_USB_Device_Library/Class/DFU/Src/usbd_dfu.c ****   * @param  pdev: device instance
 654:Middlewares/ST/STM32_USB_Device_Library/Class/DFU/Src/usbd_dfu.c ****   * @param  epnum: endpoint index
 655:Middlewares/ST/STM32_USB_Device_Library/Class/DFU/Src/usbd_dfu.c ****   * @retval status
 656:Middlewares/ST/STM32_USB_Device_Library/Class/DFU/Src/usbd_dfu.c ****   */
 657:Middlewares/ST/STM32_USB_Device_Library/Class/DFU/Src/usbd_dfu.c **** static uint8_t  USBD_DFU_DataOut (USBD_HandleTypeDef *pdev,
 658:Middlewares/ST/STM32_USB_Device_Library/Class/DFU/Src/usbd_dfu.c ****                               uint8_t epnum)
 659:Middlewares/ST/STM32_USB_Device_Library/Class/DFU/Src/usbd_dfu.c **** {
 164              		.loc 1 659 0
 165              		.cfi_startproc
 166              		@ args = 0, pretend = 0, frame = 0
 167              		@ frame_needed = 0, uses_anonymous_args = 0
 168              		@ link register save eliminated.
 169              	.LVL12:
 660:Middlewares/ST/STM32_USB_Device_Library/Class/DFU/Src/usbd_dfu.c **** 
 661:Middlewares/ST/STM32_USB_Device_Library/Class/DFU/Src/usbd_dfu.c ****   return USBD_OK;
 662:Middlewares/ST/STM32_USB_Device_Library/Class/DFU/Src/usbd_dfu.c **** }
 170              		.loc 1 662 0
 171 0000 0020     		movs	r0, #0
 172              	.LVL13:
 173 0002 7047     		bx	lr
 174              		.cfi_endproc
 175              	.LFE83:
 177              		.section	.text.USBD_DFU_GetDeviceQualifierDesc,"ax",%progbits
 178              		.align	1
 179              		.syntax unified
 180              		.thumb
 181              		.thumb_func
 182              		.fpu softvfp
 184              	USBD_DFU_GetDeviceQualifierDesc:
 185              	.LFB84:
 663:Middlewares/ST/STM32_USB_Device_Library/Class/DFU/Src/usbd_dfu.c **** 
 664:Middlewares/ST/STM32_USB_Device_Library/Class/DFU/Src/usbd_dfu.c **** /**
 665:Middlewares/ST/STM32_USB_Device_Library/Class/DFU/Src/usbd_dfu.c **** * @brief  DeviceQualifierDescriptor
 666:Middlewares/ST/STM32_USB_Device_Library/Class/DFU/Src/usbd_dfu.c **** *         return Device Qualifier descriptor
 667:Middlewares/ST/STM32_USB_Device_Library/Class/DFU/Src/usbd_dfu.c **** * @param  length : pointer data length
 668:Middlewares/ST/STM32_USB_Device_Library/Class/DFU/Src/usbd_dfu.c **** * @retval pointer to descriptor buffer
 669:Middlewares/ST/STM32_USB_Device_Library/Class/DFU/Src/usbd_dfu.c **** */
 670:Middlewares/ST/STM32_USB_Device_Library/Class/DFU/Src/usbd_dfu.c **** static uint8_t  *USBD_DFU_GetDeviceQualifierDesc (uint16_t *length)
 671:Middlewares/ST/STM32_USB_Device_Library/Class/DFU/Src/usbd_dfu.c **** {
 186              		.loc 1 671 0
 187              		.cfi_startproc
 188              		@ args = 0, pretend = 0, frame = 0
 189              		@ frame_needed = 0, uses_anonymous_args = 0
 190              		@ link register save eliminated.
 191              	.LVL14:
 672:Middlewares/ST/STM32_USB_Device_Library/Class/DFU/Src/usbd_dfu.c ****   *length = sizeof (USBD_DFU_DeviceQualifierDesc);
 192              		.loc 1 672 0
 193 0000 0A23     		movs	r3, #10
 194 0002 0380     		strh	r3, [r0]	@ movhi
 673:Middlewares/ST/STM32_USB_Device_Library/Class/DFU/Src/usbd_dfu.c ****   return USBD_DFU_DeviceQualifierDesc;
 674:Middlewares/ST/STM32_USB_Device_Library/Class/DFU/Src/usbd_dfu.c **** }
 195              		.loc 1 674 0
 196 0004 0048     		ldr	r0, .L11
ARM GAS  /tmp/ccfbgGae.s 			page 16


 197              	.LVL15:
 198 0006 7047     		bx	lr
 199              	.L12:
 200              		.align	2
 201              	.L11:
 202 0008 00000000 		.word	.LANCHOR1
 203              		.cfi_endproc
 204              	.LFE84:
 206              		.section	.text.DFU_ClearStatus,"ax",%progbits
 207              		.align	1
 208              		.syntax unified
 209              		.thumb
 210              		.thumb_func
 211              		.fpu softvfp
 213              	DFU_ClearStatus:
 214              	.LFB91:
 675:Middlewares/ST/STM32_USB_Device_Library/Class/DFU/Src/usbd_dfu.c **** 
 676:Middlewares/ST/STM32_USB_Device_Library/Class/DFU/Src/usbd_dfu.c **** /**
 677:Middlewares/ST/STM32_USB_Device_Library/Class/DFU/Src/usbd_dfu.c ****   * @brief  USBD_DFU_GetUsrStringDesc
 678:Middlewares/ST/STM32_USB_Device_Library/Class/DFU/Src/usbd_dfu.c ****   *         Manages the transfer of memory interfaces string descriptors.
 679:Middlewares/ST/STM32_USB_Device_Library/Class/DFU/Src/usbd_dfu.c ****   * @param  speed : current device speed
 680:Middlewares/ST/STM32_USB_Device_Library/Class/DFU/Src/usbd_dfu.c ****   * @param  index: desciptor index
 681:Middlewares/ST/STM32_USB_Device_Library/Class/DFU/Src/usbd_dfu.c ****   * @param  length : pointer data length
 682:Middlewares/ST/STM32_USB_Device_Library/Class/DFU/Src/usbd_dfu.c ****   * @retval pointer to the descriptor table or NULL if the descriptor is not supported.
 683:Middlewares/ST/STM32_USB_Device_Library/Class/DFU/Src/usbd_dfu.c ****   */
 684:Middlewares/ST/STM32_USB_Device_Library/Class/DFU/Src/usbd_dfu.c **** #if (USBD_SUPPORT_USER_STRING == 1U)
 685:Middlewares/ST/STM32_USB_Device_Library/Class/DFU/Src/usbd_dfu.c **** static uint8_t* USBD_DFU_GetUsrStringDesc (USBD_HandleTypeDef *pdev, uint8_t index , uint16_t *leng
 686:Middlewares/ST/STM32_USB_Device_Library/Class/DFU/Src/usbd_dfu.c **** {
 687:Middlewares/ST/STM32_USB_Device_Library/Class/DFU/Src/usbd_dfu.c ****   static uint8_t USBD_StrDesc[255];
 688:Middlewares/ST/STM32_USB_Device_Library/Class/DFU/Src/usbd_dfu.c ****   /* Check if the requested string interface is supported */
 689:Middlewares/ST/STM32_USB_Device_Library/Class/DFU/Src/usbd_dfu.c ****   if (index <= (USBD_IDX_INTERFACE_STR + USBD_DFU_MAX_ITF_NUM))
 690:Middlewares/ST/STM32_USB_Device_Library/Class/DFU/Src/usbd_dfu.c ****   {
 691:Middlewares/ST/STM32_USB_Device_Library/Class/DFU/Src/usbd_dfu.c ****     USBD_GetString ((uint8_t *)((USBD_DFU_MediaTypeDef *)pdev->pUserData)->pStrDesc, USBD_StrDesc, 
 692:Middlewares/ST/STM32_USB_Device_Library/Class/DFU/Src/usbd_dfu.c ****     return USBD_StrDesc;
 693:Middlewares/ST/STM32_USB_Device_Library/Class/DFU/Src/usbd_dfu.c ****   }
 694:Middlewares/ST/STM32_USB_Device_Library/Class/DFU/Src/usbd_dfu.c ****   /* Not supported Interface Descriptor index */
 695:Middlewares/ST/STM32_USB_Device_Library/Class/DFU/Src/usbd_dfu.c ****   else
 696:Middlewares/ST/STM32_USB_Device_Library/Class/DFU/Src/usbd_dfu.c ****   {
 697:Middlewares/ST/STM32_USB_Device_Library/Class/DFU/Src/usbd_dfu.c ****     return NULL;
 698:Middlewares/ST/STM32_USB_Device_Library/Class/DFU/Src/usbd_dfu.c ****   }
 699:Middlewares/ST/STM32_USB_Device_Library/Class/DFU/Src/usbd_dfu.c **** }
 700:Middlewares/ST/STM32_USB_Device_Library/Class/DFU/Src/usbd_dfu.c **** #endif
 701:Middlewares/ST/STM32_USB_Device_Library/Class/DFU/Src/usbd_dfu.c **** 
 702:Middlewares/ST/STM32_USB_Device_Library/Class/DFU/Src/usbd_dfu.c **** /**
 703:Middlewares/ST/STM32_USB_Device_Library/Class/DFU/Src/usbd_dfu.c **** * @brief  USBD_MSC_RegisterStorage
 704:Middlewares/ST/STM32_USB_Device_Library/Class/DFU/Src/usbd_dfu.c **** * @param  fops: storage callback
 705:Middlewares/ST/STM32_USB_Device_Library/Class/DFU/Src/usbd_dfu.c **** * @retval status
 706:Middlewares/ST/STM32_USB_Device_Library/Class/DFU/Src/usbd_dfu.c **** */
 707:Middlewares/ST/STM32_USB_Device_Library/Class/DFU/Src/usbd_dfu.c **** uint8_t  USBD_DFU_RegisterMedia    (USBD_HandleTypeDef   *pdev,
 708:Middlewares/ST/STM32_USB_Device_Library/Class/DFU/Src/usbd_dfu.c ****                                     USBD_DFU_MediaTypeDef *fops)
 709:Middlewares/ST/STM32_USB_Device_Library/Class/DFU/Src/usbd_dfu.c **** {
 710:Middlewares/ST/STM32_USB_Device_Library/Class/DFU/Src/usbd_dfu.c ****   if(fops != NULL)
 711:Middlewares/ST/STM32_USB_Device_Library/Class/DFU/Src/usbd_dfu.c ****   {
 712:Middlewares/ST/STM32_USB_Device_Library/Class/DFU/Src/usbd_dfu.c ****     pdev->pUserData= fops;
 713:Middlewares/ST/STM32_USB_Device_Library/Class/DFU/Src/usbd_dfu.c ****   }
 714:Middlewares/ST/STM32_USB_Device_Library/Class/DFU/Src/usbd_dfu.c ****   return 0U;
 715:Middlewares/ST/STM32_USB_Device_Library/Class/DFU/Src/usbd_dfu.c **** }
ARM GAS  /tmp/ccfbgGae.s 			page 17


 716:Middlewares/ST/STM32_USB_Device_Library/Class/DFU/Src/usbd_dfu.c **** 
 717:Middlewares/ST/STM32_USB_Device_Library/Class/DFU/Src/usbd_dfu.c **** /******************************************************************************
 718:Middlewares/ST/STM32_USB_Device_Library/Class/DFU/Src/usbd_dfu.c ****      DFU Class requests management
 719:Middlewares/ST/STM32_USB_Device_Library/Class/DFU/Src/usbd_dfu.c **** ******************************************************************************/
 720:Middlewares/ST/STM32_USB_Device_Library/Class/DFU/Src/usbd_dfu.c **** /**
 721:Middlewares/ST/STM32_USB_Device_Library/Class/DFU/Src/usbd_dfu.c ****   * @brief  DFU_Detach
 722:Middlewares/ST/STM32_USB_Device_Library/Class/DFU/Src/usbd_dfu.c ****   *         Handles the DFU DETACH request.
 723:Middlewares/ST/STM32_USB_Device_Library/Class/DFU/Src/usbd_dfu.c ****   * @param  pdev: device instance
 724:Middlewares/ST/STM32_USB_Device_Library/Class/DFU/Src/usbd_dfu.c ****   * @param  req: pointer to the request structure.
 725:Middlewares/ST/STM32_USB_Device_Library/Class/DFU/Src/usbd_dfu.c ****   * @retval None.
 726:Middlewares/ST/STM32_USB_Device_Library/Class/DFU/Src/usbd_dfu.c ****   */
 727:Middlewares/ST/STM32_USB_Device_Library/Class/DFU/Src/usbd_dfu.c **** static void DFU_Detach(USBD_HandleTypeDef *pdev, USBD_SetupReqTypedef *req)
 728:Middlewares/ST/STM32_USB_Device_Library/Class/DFU/Src/usbd_dfu.c **** {
 729:Middlewares/ST/STM32_USB_Device_Library/Class/DFU/Src/usbd_dfu.c ****  USBD_DFU_HandleTypeDef   *hdfu;
 730:Middlewares/ST/STM32_USB_Device_Library/Class/DFU/Src/usbd_dfu.c **** 
 731:Middlewares/ST/STM32_USB_Device_Library/Class/DFU/Src/usbd_dfu.c ****  hdfu = (USBD_DFU_HandleTypeDef*) pdev->pClassData;
 732:Middlewares/ST/STM32_USB_Device_Library/Class/DFU/Src/usbd_dfu.c **** 
 733:Middlewares/ST/STM32_USB_Device_Library/Class/DFU/Src/usbd_dfu.c ****   if (hdfu->dev_state == DFU_STATE_IDLE || hdfu->dev_state == DFU_STATE_DNLOAD_SYNC
 734:Middlewares/ST/STM32_USB_Device_Library/Class/DFU/Src/usbd_dfu.c ****       || hdfu->dev_state == DFU_STATE_DNLOAD_IDLE || hdfu->dev_state == DFU_STATE_MANIFEST_SYNC
 735:Middlewares/ST/STM32_USB_Device_Library/Class/DFU/Src/usbd_dfu.c ****         || hdfu->dev_state == DFU_STATE_UPLOAD_IDLE )
 736:Middlewares/ST/STM32_USB_Device_Library/Class/DFU/Src/usbd_dfu.c ****   {
 737:Middlewares/ST/STM32_USB_Device_Library/Class/DFU/Src/usbd_dfu.c ****     /* Update the state machine */
 738:Middlewares/ST/STM32_USB_Device_Library/Class/DFU/Src/usbd_dfu.c ****     hdfu->dev_state = DFU_STATE_IDLE;
 739:Middlewares/ST/STM32_USB_Device_Library/Class/DFU/Src/usbd_dfu.c ****     hdfu->dev_status[0] = DFU_ERROR_NONE;
 740:Middlewares/ST/STM32_USB_Device_Library/Class/DFU/Src/usbd_dfu.c ****     hdfu->dev_status[1] = 0U;
 741:Middlewares/ST/STM32_USB_Device_Library/Class/DFU/Src/usbd_dfu.c ****     hdfu->dev_status[2] = 0U;
 742:Middlewares/ST/STM32_USB_Device_Library/Class/DFU/Src/usbd_dfu.c ****     hdfu->dev_status[3] = 0U; /*bwPollTimeout=0ms*/
 743:Middlewares/ST/STM32_USB_Device_Library/Class/DFU/Src/usbd_dfu.c ****     hdfu->dev_status[4] = hdfu->dev_state;
 744:Middlewares/ST/STM32_USB_Device_Library/Class/DFU/Src/usbd_dfu.c ****     hdfu->dev_status[5] = 0U; /*iString*/
 745:Middlewares/ST/STM32_USB_Device_Library/Class/DFU/Src/usbd_dfu.c ****     hdfu->wblock_num = 0U;
 746:Middlewares/ST/STM32_USB_Device_Library/Class/DFU/Src/usbd_dfu.c ****     hdfu->wlength = 0U;
 747:Middlewares/ST/STM32_USB_Device_Library/Class/DFU/Src/usbd_dfu.c ****   }
 748:Middlewares/ST/STM32_USB_Device_Library/Class/DFU/Src/usbd_dfu.c **** 
 749:Middlewares/ST/STM32_USB_Device_Library/Class/DFU/Src/usbd_dfu.c ****   /* Check the detach capability in the DFU functional descriptor */
 750:Middlewares/ST/STM32_USB_Device_Library/Class/DFU/Src/usbd_dfu.c ****   if ((USBD_DFU_CfgDesc[12U + (9U * USBD_DFU_MAX_ITF_NUM)]) & DFU_DETACH_MASK)
 751:Middlewares/ST/STM32_USB_Device_Library/Class/DFU/Src/usbd_dfu.c ****   {
 752:Middlewares/ST/STM32_USB_Device_Library/Class/DFU/Src/usbd_dfu.c ****     /* Perform an Attach-Detach operation on USB bus */
 753:Middlewares/ST/STM32_USB_Device_Library/Class/DFU/Src/usbd_dfu.c ****     USBD_Stop (pdev);
 754:Middlewares/ST/STM32_USB_Device_Library/Class/DFU/Src/usbd_dfu.c ****     USBD_Start (pdev);
 755:Middlewares/ST/STM32_USB_Device_Library/Class/DFU/Src/usbd_dfu.c ****   }
 756:Middlewares/ST/STM32_USB_Device_Library/Class/DFU/Src/usbd_dfu.c ****   else
 757:Middlewares/ST/STM32_USB_Device_Library/Class/DFU/Src/usbd_dfu.c ****   {
 758:Middlewares/ST/STM32_USB_Device_Library/Class/DFU/Src/usbd_dfu.c ****     /* Wait for the period of time specified in Detach request */
 759:Middlewares/ST/STM32_USB_Device_Library/Class/DFU/Src/usbd_dfu.c ****     USBD_Delay ((uint32_t)req->wValue);
 760:Middlewares/ST/STM32_USB_Device_Library/Class/DFU/Src/usbd_dfu.c ****   }
 761:Middlewares/ST/STM32_USB_Device_Library/Class/DFU/Src/usbd_dfu.c **** }
 762:Middlewares/ST/STM32_USB_Device_Library/Class/DFU/Src/usbd_dfu.c **** 
 763:Middlewares/ST/STM32_USB_Device_Library/Class/DFU/Src/usbd_dfu.c **** /**
 764:Middlewares/ST/STM32_USB_Device_Library/Class/DFU/Src/usbd_dfu.c ****   * @brief  DFU_Download
 765:Middlewares/ST/STM32_USB_Device_Library/Class/DFU/Src/usbd_dfu.c ****   *         Handles the DFU DNLOAD request.
 766:Middlewares/ST/STM32_USB_Device_Library/Class/DFU/Src/usbd_dfu.c ****   * @param  pdev: device instance
 767:Middlewares/ST/STM32_USB_Device_Library/Class/DFU/Src/usbd_dfu.c ****   * @param  req: pointer to the request structure
 768:Middlewares/ST/STM32_USB_Device_Library/Class/DFU/Src/usbd_dfu.c ****   * @retval None
 769:Middlewares/ST/STM32_USB_Device_Library/Class/DFU/Src/usbd_dfu.c ****   */
 770:Middlewares/ST/STM32_USB_Device_Library/Class/DFU/Src/usbd_dfu.c **** static void DFU_Download(USBD_HandleTypeDef *pdev, USBD_SetupReqTypedef *req)
 771:Middlewares/ST/STM32_USB_Device_Library/Class/DFU/Src/usbd_dfu.c **** {
 772:Middlewares/ST/STM32_USB_Device_Library/Class/DFU/Src/usbd_dfu.c ****  USBD_DFU_HandleTypeDef   *hdfu;
ARM GAS  /tmp/ccfbgGae.s 			page 18


 773:Middlewares/ST/STM32_USB_Device_Library/Class/DFU/Src/usbd_dfu.c **** 
 774:Middlewares/ST/STM32_USB_Device_Library/Class/DFU/Src/usbd_dfu.c ****  hdfu = (USBD_DFU_HandleTypeDef*) pdev->pClassData;
 775:Middlewares/ST/STM32_USB_Device_Library/Class/DFU/Src/usbd_dfu.c **** 
 776:Middlewares/ST/STM32_USB_Device_Library/Class/DFU/Src/usbd_dfu.c ****   /* Data setup request */
 777:Middlewares/ST/STM32_USB_Device_Library/Class/DFU/Src/usbd_dfu.c ****   if (req->wLength > 0U)
 778:Middlewares/ST/STM32_USB_Device_Library/Class/DFU/Src/usbd_dfu.c ****   {
 779:Middlewares/ST/STM32_USB_Device_Library/Class/DFU/Src/usbd_dfu.c ****     if ((hdfu->dev_state == DFU_STATE_IDLE) || (hdfu->dev_state == DFU_STATE_DNLOAD_IDLE))
 780:Middlewares/ST/STM32_USB_Device_Library/Class/DFU/Src/usbd_dfu.c ****     {
 781:Middlewares/ST/STM32_USB_Device_Library/Class/DFU/Src/usbd_dfu.c ****       /* Update the global length and block number */
 782:Middlewares/ST/STM32_USB_Device_Library/Class/DFU/Src/usbd_dfu.c ****       hdfu->wblock_num = req->wValue;
 783:Middlewares/ST/STM32_USB_Device_Library/Class/DFU/Src/usbd_dfu.c ****       hdfu->wlength = req->wLength;
 784:Middlewares/ST/STM32_USB_Device_Library/Class/DFU/Src/usbd_dfu.c **** 
 785:Middlewares/ST/STM32_USB_Device_Library/Class/DFU/Src/usbd_dfu.c ****       /* Update the state machine */
 786:Middlewares/ST/STM32_USB_Device_Library/Class/DFU/Src/usbd_dfu.c ****       hdfu->dev_state = DFU_STATE_DNLOAD_SYNC;
 787:Middlewares/ST/STM32_USB_Device_Library/Class/DFU/Src/usbd_dfu.c ****       hdfu->dev_status[4] = hdfu->dev_state;
 788:Middlewares/ST/STM32_USB_Device_Library/Class/DFU/Src/usbd_dfu.c **** 
 789:Middlewares/ST/STM32_USB_Device_Library/Class/DFU/Src/usbd_dfu.c ****       /* Prepare the reception of the buffer over EP0 */
 790:Middlewares/ST/STM32_USB_Device_Library/Class/DFU/Src/usbd_dfu.c ****       USBD_CtlPrepareRx (pdev, (uint8_t*)hdfu->buffer.d8,
 791:Middlewares/ST/STM32_USB_Device_Library/Class/DFU/Src/usbd_dfu.c ****                          (uint16_t)hdfu->wlength);
 792:Middlewares/ST/STM32_USB_Device_Library/Class/DFU/Src/usbd_dfu.c ****     }
 793:Middlewares/ST/STM32_USB_Device_Library/Class/DFU/Src/usbd_dfu.c ****     /* Unsupported state */
 794:Middlewares/ST/STM32_USB_Device_Library/Class/DFU/Src/usbd_dfu.c ****     else
 795:Middlewares/ST/STM32_USB_Device_Library/Class/DFU/Src/usbd_dfu.c ****     {
 796:Middlewares/ST/STM32_USB_Device_Library/Class/DFU/Src/usbd_dfu.c ****       /* Call the error management function (command will be nacked */
 797:Middlewares/ST/STM32_USB_Device_Library/Class/DFU/Src/usbd_dfu.c ****       USBD_CtlError (pdev, req);
 798:Middlewares/ST/STM32_USB_Device_Library/Class/DFU/Src/usbd_dfu.c ****     }
 799:Middlewares/ST/STM32_USB_Device_Library/Class/DFU/Src/usbd_dfu.c ****   }
 800:Middlewares/ST/STM32_USB_Device_Library/Class/DFU/Src/usbd_dfu.c ****   /* 0 Data DNLOAD request */
 801:Middlewares/ST/STM32_USB_Device_Library/Class/DFU/Src/usbd_dfu.c ****   else
 802:Middlewares/ST/STM32_USB_Device_Library/Class/DFU/Src/usbd_dfu.c ****   {
 803:Middlewares/ST/STM32_USB_Device_Library/Class/DFU/Src/usbd_dfu.c ****     /* End of DNLOAD operation*/
 804:Middlewares/ST/STM32_USB_Device_Library/Class/DFU/Src/usbd_dfu.c ****     if (hdfu->dev_state == DFU_STATE_DNLOAD_IDLE || hdfu->dev_state == DFU_STATE_IDLE )
 805:Middlewares/ST/STM32_USB_Device_Library/Class/DFU/Src/usbd_dfu.c ****     {
 806:Middlewares/ST/STM32_USB_Device_Library/Class/DFU/Src/usbd_dfu.c ****       hdfu->manif_state = DFU_MANIFEST_IN_PROGRESS;
 807:Middlewares/ST/STM32_USB_Device_Library/Class/DFU/Src/usbd_dfu.c ****       hdfu->dev_state = DFU_STATE_MANIFEST_SYNC;
 808:Middlewares/ST/STM32_USB_Device_Library/Class/DFU/Src/usbd_dfu.c ****       hdfu->dev_status[1] = 0U;
 809:Middlewares/ST/STM32_USB_Device_Library/Class/DFU/Src/usbd_dfu.c ****       hdfu->dev_status[2] = 0U;
 810:Middlewares/ST/STM32_USB_Device_Library/Class/DFU/Src/usbd_dfu.c ****       hdfu->dev_status[3] = 0U;
 811:Middlewares/ST/STM32_USB_Device_Library/Class/DFU/Src/usbd_dfu.c ****       hdfu->dev_status[4] = hdfu->dev_state;
 812:Middlewares/ST/STM32_USB_Device_Library/Class/DFU/Src/usbd_dfu.c ****     }
 813:Middlewares/ST/STM32_USB_Device_Library/Class/DFU/Src/usbd_dfu.c ****     else
 814:Middlewares/ST/STM32_USB_Device_Library/Class/DFU/Src/usbd_dfu.c ****     {
 815:Middlewares/ST/STM32_USB_Device_Library/Class/DFU/Src/usbd_dfu.c ****       /* Call the error management function (command will be nacked */
 816:Middlewares/ST/STM32_USB_Device_Library/Class/DFU/Src/usbd_dfu.c ****       USBD_CtlError (pdev, req);
 817:Middlewares/ST/STM32_USB_Device_Library/Class/DFU/Src/usbd_dfu.c ****     }
 818:Middlewares/ST/STM32_USB_Device_Library/Class/DFU/Src/usbd_dfu.c ****   }
 819:Middlewares/ST/STM32_USB_Device_Library/Class/DFU/Src/usbd_dfu.c **** }
 820:Middlewares/ST/STM32_USB_Device_Library/Class/DFU/Src/usbd_dfu.c **** 
 821:Middlewares/ST/STM32_USB_Device_Library/Class/DFU/Src/usbd_dfu.c **** /**
 822:Middlewares/ST/STM32_USB_Device_Library/Class/DFU/Src/usbd_dfu.c ****   * @brief  DFU_Upload
 823:Middlewares/ST/STM32_USB_Device_Library/Class/DFU/Src/usbd_dfu.c ****   *         Handles the DFU UPLOAD request.
 824:Middlewares/ST/STM32_USB_Device_Library/Class/DFU/Src/usbd_dfu.c ****   * @param  pdev: instance
 825:Middlewares/ST/STM32_USB_Device_Library/Class/DFU/Src/usbd_dfu.c ****   * @param  req: pointer to the request structure
 826:Middlewares/ST/STM32_USB_Device_Library/Class/DFU/Src/usbd_dfu.c ****   * @retval status
 827:Middlewares/ST/STM32_USB_Device_Library/Class/DFU/Src/usbd_dfu.c ****   */
 828:Middlewares/ST/STM32_USB_Device_Library/Class/DFU/Src/usbd_dfu.c **** static void DFU_Upload(USBD_HandleTypeDef *pdev, USBD_SetupReqTypedef *req)
 829:Middlewares/ST/STM32_USB_Device_Library/Class/DFU/Src/usbd_dfu.c **** {
ARM GAS  /tmp/ccfbgGae.s 			page 19


 830:Middlewares/ST/STM32_USB_Device_Library/Class/DFU/Src/usbd_dfu.c ****  USBD_DFU_HandleTypeDef   *hdfu;
 831:Middlewares/ST/STM32_USB_Device_Library/Class/DFU/Src/usbd_dfu.c **** 
 832:Middlewares/ST/STM32_USB_Device_Library/Class/DFU/Src/usbd_dfu.c ****  hdfu = (USBD_DFU_HandleTypeDef*) pdev->pClassData;
 833:Middlewares/ST/STM32_USB_Device_Library/Class/DFU/Src/usbd_dfu.c **** 
 834:Middlewares/ST/STM32_USB_Device_Library/Class/DFU/Src/usbd_dfu.c ****   uint8_t *phaddr = NULL;
 835:Middlewares/ST/STM32_USB_Device_Library/Class/DFU/Src/usbd_dfu.c ****   uint32_t addr = 0U;
 836:Middlewares/ST/STM32_USB_Device_Library/Class/DFU/Src/usbd_dfu.c **** 
 837:Middlewares/ST/STM32_USB_Device_Library/Class/DFU/Src/usbd_dfu.c ****   /* Data setup request */
 838:Middlewares/ST/STM32_USB_Device_Library/Class/DFU/Src/usbd_dfu.c ****   if (req->wLength > 0U)
 839:Middlewares/ST/STM32_USB_Device_Library/Class/DFU/Src/usbd_dfu.c ****   {
 840:Middlewares/ST/STM32_USB_Device_Library/Class/DFU/Src/usbd_dfu.c ****     if ((hdfu->dev_state == DFU_STATE_IDLE) || (hdfu->dev_state == DFU_STATE_UPLOAD_IDLE))
 841:Middlewares/ST/STM32_USB_Device_Library/Class/DFU/Src/usbd_dfu.c ****     {
 842:Middlewares/ST/STM32_USB_Device_Library/Class/DFU/Src/usbd_dfu.c ****       /* Update the global length and block number */
 843:Middlewares/ST/STM32_USB_Device_Library/Class/DFU/Src/usbd_dfu.c ****       hdfu->wblock_num = req->wValue;
 844:Middlewares/ST/STM32_USB_Device_Library/Class/DFU/Src/usbd_dfu.c ****       hdfu->wlength = req->wLength;
 845:Middlewares/ST/STM32_USB_Device_Library/Class/DFU/Src/usbd_dfu.c **** 
 846:Middlewares/ST/STM32_USB_Device_Library/Class/DFU/Src/usbd_dfu.c ****       /* DFU Get Command */
 847:Middlewares/ST/STM32_USB_Device_Library/Class/DFU/Src/usbd_dfu.c ****       if (hdfu->wblock_num == 0U)
 848:Middlewares/ST/STM32_USB_Device_Library/Class/DFU/Src/usbd_dfu.c ****       {
 849:Middlewares/ST/STM32_USB_Device_Library/Class/DFU/Src/usbd_dfu.c ****         /* Update the state machine */
 850:Middlewares/ST/STM32_USB_Device_Library/Class/DFU/Src/usbd_dfu.c ****         hdfu->dev_state = (hdfu->wlength > 3U)? DFU_STATE_IDLE:DFU_STATE_UPLOAD_IDLE;
 851:Middlewares/ST/STM32_USB_Device_Library/Class/DFU/Src/usbd_dfu.c **** 
 852:Middlewares/ST/STM32_USB_Device_Library/Class/DFU/Src/usbd_dfu.c ****         hdfu->dev_status[1] = 0U;
 853:Middlewares/ST/STM32_USB_Device_Library/Class/DFU/Src/usbd_dfu.c ****         hdfu->dev_status[2] = 0U;
 854:Middlewares/ST/STM32_USB_Device_Library/Class/DFU/Src/usbd_dfu.c ****         hdfu->dev_status[3] = 0U;
 855:Middlewares/ST/STM32_USB_Device_Library/Class/DFU/Src/usbd_dfu.c ****         hdfu->dev_status[4] = hdfu->dev_state;
 856:Middlewares/ST/STM32_USB_Device_Library/Class/DFU/Src/usbd_dfu.c **** 
 857:Middlewares/ST/STM32_USB_Device_Library/Class/DFU/Src/usbd_dfu.c ****         /* Store the values of all supported commands */
 858:Middlewares/ST/STM32_USB_Device_Library/Class/DFU/Src/usbd_dfu.c ****         hdfu->buffer.d8[0] = DFU_CMD_GETCOMMANDS;
 859:Middlewares/ST/STM32_USB_Device_Library/Class/DFU/Src/usbd_dfu.c ****         hdfu->buffer.d8[1] = DFU_CMD_SETADDRESSPOINTER;
 860:Middlewares/ST/STM32_USB_Device_Library/Class/DFU/Src/usbd_dfu.c ****         hdfu->buffer.d8[2] = DFU_CMD_ERASE;
 861:Middlewares/ST/STM32_USB_Device_Library/Class/DFU/Src/usbd_dfu.c **** 
 862:Middlewares/ST/STM32_USB_Device_Library/Class/DFU/Src/usbd_dfu.c ****         /* Send the status data over EP0 */
 863:Middlewares/ST/STM32_USB_Device_Library/Class/DFU/Src/usbd_dfu.c ****         USBD_CtlSendData (pdev, (uint8_t *)(&(hdfu->buffer.d8[0])), 3U);
 864:Middlewares/ST/STM32_USB_Device_Library/Class/DFU/Src/usbd_dfu.c ****       }
 865:Middlewares/ST/STM32_USB_Device_Library/Class/DFU/Src/usbd_dfu.c ****       else if (hdfu->wblock_num > 1U)
 866:Middlewares/ST/STM32_USB_Device_Library/Class/DFU/Src/usbd_dfu.c ****       {
 867:Middlewares/ST/STM32_USB_Device_Library/Class/DFU/Src/usbd_dfu.c ****         hdfu->dev_state = DFU_STATE_UPLOAD_IDLE;
 868:Middlewares/ST/STM32_USB_Device_Library/Class/DFU/Src/usbd_dfu.c **** 
 869:Middlewares/ST/STM32_USB_Device_Library/Class/DFU/Src/usbd_dfu.c ****         hdfu->dev_status[1] = 0U;
 870:Middlewares/ST/STM32_USB_Device_Library/Class/DFU/Src/usbd_dfu.c ****         hdfu->dev_status[2] = 0U;
 871:Middlewares/ST/STM32_USB_Device_Library/Class/DFU/Src/usbd_dfu.c ****         hdfu->dev_status[3] = 0U;
 872:Middlewares/ST/STM32_USB_Device_Library/Class/DFU/Src/usbd_dfu.c ****         hdfu->dev_status[4] = hdfu->dev_state;
 873:Middlewares/ST/STM32_USB_Device_Library/Class/DFU/Src/usbd_dfu.c **** 
 874:Middlewares/ST/STM32_USB_Device_Library/Class/DFU/Src/usbd_dfu.c ****         addr = ((hdfu->wblock_num - 2U) * USBD_DFU_XFER_SIZE) + hdfu->data_ptr;  /* Change is Accel
 875:Middlewares/ST/STM32_USB_Device_Library/Class/DFU/Src/usbd_dfu.c **** 
 876:Middlewares/ST/STM32_USB_Device_Library/Class/DFU/Src/usbd_dfu.c ****         /* Return the physical address where data are stored */
 877:Middlewares/ST/STM32_USB_Device_Library/Class/DFU/Src/usbd_dfu.c ****         phaddr = ((USBD_DFU_MediaTypeDef *)pdev->pUserData)->Read((uint8_t *)addr, hdfu->buffer.d8,
 878:Middlewares/ST/STM32_USB_Device_Library/Class/DFU/Src/usbd_dfu.c **** 
 879:Middlewares/ST/STM32_USB_Device_Library/Class/DFU/Src/usbd_dfu.c ****         /* Send the status data over EP0 */
 880:Middlewares/ST/STM32_USB_Device_Library/Class/DFU/Src/usbd_dfu.c ****         USBD_CtlSendData (pdev, phaddr, (uint16_t)hdfu->wlength);
 881:Middlewares/ST/STM32_USB_Device_Library/Class/DFU/Src/usbd_dfu.c ****       }
 882:Middlewares/ST/STM32_USB_Device_Library/Class/DFU/Src/usbd_dfu.c ****       else  /* unsupported hdfu->wblock_num */
 883:Middlewares/ST/STM32_USB_Device_Library/Class/DFU/Src/usbd_dfu.c ****       {
 884:Middlewares/ST/STM32_USB_Device_Library/Class/DFU/Src/usbd_dfu.c ****         hdfu->dev_state = DFU_ERROR_STALLEDPKT;
 885:Middlewares/ST/STM32_USB_Device_Library/Class/DFU/Src/usbd_dfu.c **** 
 886:Middlewares/ST/STM32_USB_Device_Library/Class/DFU/Src/usbd_dfu.c ****         hdfu->dev_status[1] = 0U;
ARM GAS  /tmp/ccfbgGae.s 			page 20


 887:Middlewares/ST/STM32_USB_Device_Library/Class/DFU/Src/usbd_dfu.c ****         hdfu->dev_status[2] = 0U;
 888:Middlewares/ST/STM32_USB_Device_Library/Class/DFU/Src/usbd_dfu.c ****         hdfu->dev_status[3] = 0U;
 889:Middlewares/ST/STM32_USB_Device_Library/Class/DFU/Src/usbd_dfu.c ****         hdfu->dev_status[4] = hdfu->dev_state;
 890:Middlewares/ST/STM32_USB_Device_Library/Class/DFU/Src/usbd_dfu.c **** 
 891:Middlewares/ST/STM32_USB_Device_Library/Class/DFU/Src/usbd_dfu.c ****         /* Call the error management function (command will be nacked */
 892:Middlewares/ST/STM32_USB_Device_Library/Class/DFU/Src/usbd_dfu.c ****         USBD_CtlError (pdev, req);
 893:Middlewares/ST/STM32_USB_Device_Library/Class/DFU/Src/usbd_dfu.c ****       }
 894:Middlewares/ST/STM32_USB_Device_Library/Class/DFU/Src/usbd_dfu.c ****     }
 895:Middlewares/ST/STM32_USB_Device_Library/Class/DFU/Src/usbd_dfu.c ****     /* Unsupported state */
 896:Middlewares/ST/STM32_USB_Device_Library/Class/DFU/Src/usbd_dfu.c ****     else
 897:Middlewares/ST/STM32_USB_Device_Library/Class/DFU/Src/usbd_dfu.c ****     {
 898:Middlewares/ST/STM32_USB_Device_Library/Class/DFU/Src/usbd_dfu.c ****       hdfu->wlength = 0U;
 899:Middlewares/ST/STM32_USB_Device_Library/Class/DFU/Src/usbd_dfu.c ****       hdfu->wblock_num = 0U;
 900:Middlewares/ST/STM32_USB_Device_Library/Class/DFU/Src/usbd_dfu.c ****       /* Call the error management function (command will be nacked */
 901:Middlewares/ST/STM32_USB_Device_Library/Class/DFU/Src/usbd_dfu.c ****       USBD_CtlError (pdev, req);
 902:Middlewares/ST/STM32_USB_Device_Library/Class/DFU/Src/usbd_dfu.c ****     }
 903:Middlewares/ST/STM32_USB_Device_Library/Class/DFU/Src/usbd_dfu.c ****   }
 904:Middlewares/ST/STM32_USB_Device_Library/Class/DFU/Src/usbd_dfu.c ****   /* No Data setup request */
 905:Middlewares/ST/STM32_USB_Device_Library/Class/DFU/Src/usbd_dfu.c ****   else
 906:Middlewares/ST/STM32_USB_Device_Library/Class/DFU/Src/usbd_dfu.c ****   {
 907:Middlewares/ST/STM32_USB_Device_Library/Class/DFU/Src/usbd_dfu.c ****     hdfu->dev_state = DFU_STATE_IDLE;
 908:Middlewares/ST/STM32_USB_Device_Library/Class/DFU/Src/usbd_dfu.c **** 
 909:Middlewares/ST/STM32_USB_Device_Library/Class/DFU/Src/usbd_dfu.c ****     hdfu->dev_status[1] = 0U;
 910:Middlewares/ST/STM32_USB_Device_Library/Class/DFU/Src/usbd_dfu.c ****     hdfu->dev_status[2] = 0U;
 911:Middlewares/ST/STM32_USB_Device_Library/Class/DFU/Src/usbd_dfu.c ****     hdfu->dev_status[3] = 0U;
 912:Middlewares/ST/STM32_USB_Device_Library/Class/DFU/Src/usbd_dfu.c ****     hdfu->dev_status[4] = hdfu->dev_state;
 913:Middlewares/ST/STM32_USB_Device_Library/Class/DFU/Src/usbd_dfu.c ****   }
 914:Middlewares/ST/STM32_USB_Device_Library/Class/DFU/Src/usbd_dfu.c **** }
 915:Middlewares/ST/STM32_USB_Device_Library/Class/DFU/Src/usbd_dfu.c **** 
 916:Middlewares/ST/STM32_USB_Device_Library/Class/DFU/Src/usbd_dfu.c **** /**
 917:Middlewares/ST/STM32_USB_Device_Library/Class/DFU/Src/usbd_dfu.c ****   * @brief  DFU_GetStatus
 918:Middlewares/ST/STM32_USB_Device_Library/Class/DFU/Src/usbd_dfu.c ****   *         Handles the DFU GETSTATUS request.
 919:Middlewares/ST/STM32_USB_Device_Library/Class/DFU/Src/usbd_dfu.c ****   * @param  pdev: instance
 920:Middlewares/ST/STM32_USB_Device_Library/Class/DFU/Src/usbd_dfu.c ****   * @retval status
 921:Middlewares/ST/STM32_USB_Device_Library/Class/DFU/Src/usbd_dfu.c ****   */
 922:Middlewares/ST/STM32_USB_Device_Library/Class/DFU/Src/usbd_dfu.c **** static void DFU_GetStatus(USBD_HandleTypeDef *pdev)
 923:Middlewares/ST/STM32_USB_Device_Library/Class/DFU/Src/usbd_dfu.c **** {
 924:Middlewares/ST/STM32_USB_Device_Library/Class/DFU/Src/usbd_dfu.c ****  USBD_DFU_HandleTypeDef   *hdfu;
 925:Middlewares/ST/STM32_USB_Device_Library/Class/DFU/Src/usbd_dfu.c **** 
 926:Middlewares/ST/STM32_USB_Device_Library/Class/DFU/Src/usbd_dfu.c ****  hdfu = (USBD_DFU_HandleTypeDef*) pdev->pClassData;
 927:Middlewares/ST/STM32_USB_Device_Library/Class/DFU/Src/usbd_dfu.c **** 
 928:Middlewares/ST/STM32_USB_Device_Library/Class/DFU/Src/usbd_dfu.c ****   switch (hdfu->dev_state)
 929:Middlewares/ST/STM32_USB_Device_Library/Class/DFU/Src/usbd_dfu.c ****   {
 930:Middlewares/ST/STM32_USB_Device_Library/Class/DFU/Src/usbd_dfu.c ****   case   DFU_STATE_DNLOAD_SYNC:
 931:Middlewares/ST/STM32_USB_Device_Library/Class/DFU/Src/usbd_dfu.c ****     if (hdfu->wlength != 0U)
 932:Middlewares/ST/STM32_USB_Device_Library/Class/DFU/Src/usbd_dfu.c ****     {
 933:Middlewares/ST/STM32_USB_Device_Library/Class/DFU/Src/usbd_dfu.c ****       hdfu->dev_state = DFU_STATE_DNLOAD_BUSY;
 934:Middlewares/ST/STM32_USB_Device_Library/Class/DFU/Src/usbd_dfu.c **** 
 935:Middlewares/ST/STM32_USB_Device_Library/Class/DFU/Src/usbd_dfu.c ****       hdfu->dev_status[1] = 0U;
 936:Middlewares/ST/STM32_USB_Device_Library/Class/DFU/Src/usbd_dfu.c ****       hdfu->dev_status[2] = 0U;
 937:Middlewares/ST/STM32_USB_Device_Library/Class/DFU/Src/usbd_dfu.c ****       hdfu->dev_status[3] = 0U;
 938:Middlewares/ST/STM32_USB_Device_Library/Class/DFU/Src/usbd_dfu.c ****       hdfu->dev_status[4] = hdfu->dev_state;
 939:Middlewares/ST/STM32_USB_Device_Library/Class/DFU/Src/usbd_dfu.c **** 
 940:Middlewares/ST/STM32_USB_Device_Library/Class/DFU/Src/usbd_dfu.c ****       if ((hdfu->wblock_num == 0U) && (hdfu->buffer.d8[0] == DFU_CMD_ERASE))
 941:Middlewares/ST/STM32_USB_Device_Library/Class/DFU/Src/usbd_dfu.c ****       {
 942:Middlewares/ST/STM32_USB_Device_Library/Class/DFU/Src/usbd_dfu.c ****         ((USBD_DFU_MediaTypeDef *)pdev->pUserData)->GetStatus(hdfu->data_ptr, DFU_MEDIA_ERASE, hdfu
 943:Middlewares/ST/STM32_USB_Device_Library/Class/DFU/Src/usbd_dfu.c ****       }
ARM GAS  /tmp/ccfbgGae.s 			page 21


 944:Middlewares/ST/STM32_USB_Device_Library/Class/DFU/Src/usbd_dfu.c ****       else
 945:Middlewares/ST/STM32_USB_Device_Library/Class/DFU/Src/usbd_dfu.c ****       {
 946:Middlewares/ST/STM32_USB_Device_Library/Class/DFU/Src/usbd_dfu.c ****         ((USBD_DFU_MediaTypeDef *)pdev->pUserData)->GetStatus(hdfu->data_ptr, DFU_MEDIA_PROGRAM, hd
 947:Middlewares/ST/STM32_USB_Device_Library/Class/DFU/Src/usbd_dfu.c ****       }
 948:Middlewares/ST/STM32_USB_Device_Library/Class/DFU/Src/usbd_dfu.c ****     }
 949:Middlewares/ST/STM32_USB_Device_Library/Class/DFU/Src/usbd_dfu.c ****     else  /* (hdfu->wlength==0)*/
 950:Middlewares/ST/STM32_USB_Device_Library/Class/DFU/Src/usbd_dfu.c ****     {
 951:Middlewares/ST/STM32_USB_Device_Library/Class/DFU/Src/usbd_dfu.c ****       hdfu->dev_state = DFU_STATE_DNLOAD_IDLE;
 952:Middlewares/ST/STM32_USB_Device_Library/Class/DFU/Src/usbd_dfu.c **** 
 953:Middlewares/ST/STM32_USB_Device_Library/Class/DFU/Src/usbd_dfu.c ****       hdfu->dev_status[1] = 0U;
 954:Middlewares/ST/STM32_USB_Device_Library/Class/DFU/Src/usbd_dfu.c ****       hdfu->dev_status[2] = 0U;
 955:Middlewares/ST/STM32_USB_Device_Library/Class/DFU/Src/usbd_dfu.c ****       hdfu->dev_status[3] = 0U;
 956:Middlewares/ST/STM32_USB_Device_Library/Class/DFU/Src/usbd_dfu.c ****       hdfu->dev_status[4] = hdfu->dev_state;
 957:Middlewares/ST/STM32_USB_Device_Library/Class/DFU/Src/usbd_dfu.c ****     }
 958:Middlewares/ST/STM32_USB_Device_Library/Class/DFU/Src/usbd_dfu.c ****     break;
 959:Middlewares/ST/STM32_USB_Device_Library/Class/DFU/Src/usbd_dfu.c **** 
 960:Middlewares/ST/STM32_USB_Device_Library/Class/DFU/Src/usbd_dfu.c ****   case   DFU_STATE_MANIFEST_SYNC :
 961:Middlewares/ST/STM32_USB_Device_Library/Class/DFU/Src/usbd_dfu.c ****     if (hdfu->manif_state == DFU_MANIFEST_IN_PROGRESS)
 962:Middlewares/ST/STM32_USB_Device_Library/Class/DFU/Src/usbd_dfu.c ****     {
 963:Middlewares/ST/STM32_USB_Device_Library/Class/DFU/Src/usbd_dfu.c ****       hdfu->dev_state = DFU_STATE_MANIFEST;
 964:Middlewares/ST/STM32_USB_Device_Library/Class/DFU/Src/usbd_dfu.c **** 
 965:Middlewares/ST/STM32_USB_Device_Library/Class/DFU/Src/usbd_dfu.c ****       hdfu->dev_status[1] = 1U;             /*bwPollTimeout = 1ms*/
 966:Middlewares/ST/STM32_USB_Device_Library/Class/DFU/Src/usbd_dfu.c ****       hdfu->dev_status[2] = 0U;
 967:Middlewares/ST/STM32_USB_Device_Library/Class/DFU/Src/usbd_dfu.c ****       hdfu->dev_status[3] = 0U;
 968:Middlewares/ST/STM32_USB_Device_Library/Class/DFU/Src/usbd_dfu.c ****       hdfu->dev_status[4] = hdfu->dev_state;
 969:Middlewares/ST/STM32_USB_Device_Library/Class/DFU/Src/usbd_dfu.c ****     }
 970:Middlewares/ST/STM32_USB_Device_Library/Class/DFU/Src/usbd_dfu.c ****     else
 971:Middlewares/ST/STM32_USB_Device_Library/Class/DFU/Src/usbd_dfu.c ****     {
 972:Middlewares/ST/STM32_USB_Device_Library/Class/DFU/Src/usbd_dfu.c ****       if ((hdfu->manif_state == DFU_MANIFEST_COMPLETE) &&
 973:Middlewares/ST/STM32_USB_Device_Library/Class/DFU/Src/usbd_dfu.c ****          ((USBD_DFU_CfgDesc[(11U + (9U * USBD_DFU_MAX_ITF_NUM))]) & 0x04U))
 974:Middlewares/ST/STM32_USB_Device_Library/Class/DFU/Src/usbd_dfu.c ****       {
 975:Middlewares/ST/STM32_USB_Device_Library/Class/DFU/Src/usbd_dfu.c ****         hdfu->dev_state = DFU_STATE_IDLE;
 976:Middlewares/ST/STM32_USB_Device_Library/Class/DFU/Src/usbd_dfu.c **** 
 977:Middlewares/ST/STM32_USB_Device_Library/Class/DFU/Src/usbd_dfu.c ****         hdfu->dev_status[1] = 0U;
 978:Middlewares/ST/STM32_USB_Device_Library/Class/DFU/Src/usbd_dfu.c ****         hdfu->dev_status[2] = 0U;
 979:Middlewares/ST/STM32_USB_Device_Library/Class/DFU/Src/usbd_dfu.c ****         hdfu->dev_status[3] = 0U;
 980:Middlewares/ST/STM32_USB_Device_Library/Class/DFU/Src/usbd_dfu.c ****         hdfu->dev_status[4] = hdfu->dev_state;
 981:Middlewares/ST/STM32_USB_Device_Library/Class/DFU/Src/usbd_dfu.c ****       }
 982:Middlewares/ST/STM32_USB_Device_Library/Class/DFU/Src/usbd_dfu.c ****     }
 983:Middlewares/ST/STM32_USB_Device_Library/Class/DFU/Src/usbd_dfu.c ****     break;
 984:Middlewares/ST/STM32_USB_Device_Library/Class/DFU/Src/usbd_dfu.c **** 
 985:Middlewares/ST/STM32_USB_Device_Library/Class/DFU/Src/usbd_dfu.c ****   default :
 986:Middlewares/ST/STM32_USB_Device_Library/Class/DFU/Src/usbd_dfu.c ****     break;
 987:Middlewares/ST/STM32_USB_Device_Library/Class/DFU/Src/usbd_dfu.c ****   }
 988:Middlewares/ST/STM32_USB_Device_Library/Class/DFU/Src/usbd_dfu.c **** 
 989:Middlewares/ST/STM32_USB_Device_Library/Class/DFU/Src/usbd_dfu.c ****   /* Send the status data over EP0 */
 990:Middlewares/ST/STM32_USB_Device_Library/Class/DFU/Src/usbd_dfu.c ****   USBD_CtlSendData (pdev, (uint8_t *)(&(hdfu->dev_status[0])), 6U);
 991:Middlewares/ST/STM32_USB_Device_Library/Class/DFU/Src/usbd_dfu.c **** }
 992:Middlewares/ST/STM32_USB_Device_Library/Class/DFU/Src/usbd_dfu.c **** 
 993:Middlewares/ST/STM32_USB_Device_Library/Class/DFU/Src/usbd_dfu.c **** /**
 994:Middlewares/ST/STM32_USB_Device_Library/Class/DFU/Src/usbd_dfu.c ****   * @brief  DFU_ClearStatus
 995:Middlewares/ST/STM32_USB_Device_Library/Class/DFU/Src/usbd_dfu.c ****   *         Handles the DFU CLRSTATUS request.
 996:Middlewares/ST/STM32_USB_Device_Library/Class/DFU/Src/usbd_dfu.c ****   * @param  pdev: device instance
 997:Middlewares/ST/STM32_USB_Device_Library/Class/DFU/Src/usbd_dfu.c ****   * @retval status
 998:Middlewares/ST/STM32_USB_Device_Library/Class/DFU/Src/usbd_dfu.c ****   */
 999:Middlewares/ST/STM32_USB_Device_Library/Class/DFU/Src/usbd_dfu.c **** static void DFU_ClearStatus(USBD_HandleTypeDef *pdev)
1000:Middlewares/ST/STM32_USB_Device_Library/Class/DFU/Src/usbd_dfu.c **** {
ARM GAS  /tmp/ccfbgGae.s 			page 22


 215              		.loc 1 1000 0
 216              		.cfi_startproc
 217              		@ args = 0, pretend = 0, frame = 0
 218              		@ frame_needed = 0, uses_anonymous_args = 0
 219              		@ link register save eliminated.
 220              	.LVL16:
1001:Middlewares/ST/STM32_USB_Device_Library/Class/DFU/Src/usbd_dfu.c ****  USBD_DFU_HandleTypeDef   *hdfu;
1002:Middlewares/ST/STM32_USB_Device_Library/Class/DFU/Src/usbd_dfu.c **** 
1003:Middlewares/ST/STM32_USB_Device_Library/Class/DFU/Src/usbd_dfu.c ****  hdfu = (USBD_DFU_HandleTypeDef*) pdev->pClassData;
 221              		.loc 1 1003 0
 222 0000 D0F89032 		ldr	r3, [r0, #656]
 223              	.LVL17:
1004:Middlewares/ST/STM32_USB_Device_Library/Class/DFU/Src/usbd_dfu.c **** 
1005:Middlewares/ST/STM32_USB_Device_Library/Class/DFU/Src/usbd_dfu.c ****   if (hdfu->dev_state == DFU_STATE_ERROR)
 224              		.loc 1 1005 0
 225 0004 93F81824 		ldrb	r2, [r3, #1048]	@ zero_extendqisi2
 226 0008 0A2A     		cmp	r2, #10
 227 000a 11D0     		beq	.L16
1006:Middlewares/ST/STM32_USB_Device_Library/Class/DFU/Src/usbd_dfu.c ****   {
1007:Middlewares/ST/STM32_USB_Device_Library/Class/DFU/Src/usbd_dfu.c ****     hdfu->dev_state = DFU_STATE_IDLE;
1008:Middlewares/ST/STM32_USB_Device_Library/Class/DFU/Src/usbd_dfu.c ****     hdfu->dev_status[0] = DFU_ERROR_NONE;/*bStatus*/
1009:Middlewares/ST/STM32_USB_Device_Library/Class/DFU/Src/usbd_dfu.c ****     hdfu->dev_status[1] = 0U;
1010:Middlewares/ST/STM32_USB_Device_Library/Class/DFU/Src/usbd_dfu.c ****     hdfu->dev_status[2] = 0U;
1011:Middlewares/ST/STM32_USB_Device_Library/Class/DFU/Src/usbd_dfu.c ****     hdfu->dev_status[3] = 0U; /*bwPollTimeout=0ms*/
1012:Middlewares/ST/STM32_USB_Device_Library/Class/DFU/Src/usbd_dfu.c ****     hdfu->dev_status[4] = hdfu->dev_state;/*bState*/
1013:Middlewares/ST/STM32_USB_Device_Library/Class/DFU/Src/usbd_dfu.c ****     hdfu->dev_status[5] = 0U;/*iString*/
1014:Middlewares/ST/STM32_USB_Device_Library/Class/DFU/Src/usbd_dfu.c ****   }
1015:Middlewares/ST/STM32_USB_Device_Library/Class/DFU/Src/usbd_dfu.c ****   else
1016:Middlewares/ST/STM32_USB_Device_Library/Class/DFU/Src/usbd_dfu.c ****   {   /*State Error*/
1017:Middlewares/ST/STM32_USB_Device_Library/Class/DFU/Src/usbd_dfu.c ****     hdfu->dev_state = DFU_STATE_ERROR;
 228              		.loc 1 1017 0
 229 000c 0A21     		movs	r1, #10
 230 000e 83F81814 		strb	r1, [r3, #1048]
1018:Middlewares/ST/STM32_USB_Device_Library/Class/DFU/Src/usbd_dfu.c ****     hdfu->dev_status[0] = DFU_ERROR_UNKNOWN;/*bStatus*/
 231              		.loc 1 1018 0
 232 0012 0E22     		movs	r2, #14
 233 0014 83F81024 		strb	r2, [r3, #1040]
1019:Middlewares/ST/STM32_USB_Device_Library/Class/DFU/Src/usbd_dfu.c ****     hdfu->dev_status[1] = 0U;
 234              		.loc 1 1019 0
 235 0018 0022     		movs	r2, #0
 236 001a 83F81124 		strb	r2, [r3, #1041]
1020:Middlewares/ST/STM32_USB_Device_Library/Class/DFU/Src/usbd_dfu.c ****     hdfu->dev_status[2] = 0U;
 237              		.loc 1 1020 0
 238 001e 83F81224 		strb	r2, [r3, #1042]
1021:Middlewares/ST/STM32_USB_Device_Library/Class/DFU/Src/usbd_dfu.c ****     hdfu->dev_status[3] = 0U; /*bwPollTimeout=0ms*/
 239              		.loc 1 1021 0
 240 0022 83F81324 		strb	r2, [r3, #1043]
1022:Middlewares/ST/STM32_USB_Device_Library/Class/DFU/Src/usbd_dfu.c ****     hdfu->dev_status[4] = hdfu->dev_state;/*bState*/
 241              		.loc 1 1022 0
 242 0026 83F81414 		strb	r1, [r3, #1044]
1023:Middlewares/ST/STM32_USB_Device_Library/Class/DFU/Src/usbd_dfu.c ****     hdfu->dev_status[5] = 0U;/*iString*/
 243              		.loc 1 1023 0
 244 002a 83F81524 		strb	r2, [r3, #1045]
 245 002e 7047     		bx	lr
 246              	.L16:
1007:Middlewares/ST/STM32_USB_Device_Library/Class/DFU/Src/usbd_dfu.c ****     hdfu->dev_status[0] = DFU_ERROR_NONE;/*bStatus*/
 247              		.loc 1 1007 0
ARM GAS  /tmp/ccfbgGae.s 			page 23


 248 0030 0221     		movs	r1, #2
 249 0032 83F81814 		strb	r1, [r3, #1048]
1008:Middlewares/ST/STM32_USB_Device_Library/Class/DFU/Src/usbd_dfu.c ****     hdfu->dev_status[1] = 0U;
 250              		.loc 1 1008 0
 251 0036 0022     		movs	r2, #0
 252 0038 83F81024 		strb	r2, [r3, #1040]
1009:Middlewares/ST/STM32_USB_Device_Library/Class/DFU/Src/usbd_dfu.c ****     hdfu->dev_status[2] = 0U;
 253              		.loc 1 1009 0
 254 003c 83F81124 		strb	r2, [r3, #1041]
1010:Middlewares/ST/STM32_USB_Device_Library/Class/DFU/Src/usbd_dfu.c ****     hdfu->dev_status[3] = 0U; /*bwPollTimeout=0ms*/
 255              		.loc 1 1010 0
 256 0040 83F81224 		strb	r2, [r3, #1042]
1011:Middlewares/ST/STM32_USB_Device_Library/Class/DFU/Src/usbd_dfu.c ****     hdfu->dev_status[4] = hdfu->dev_state;/*bState*/
 257              		.loc 1 1011 0
 258 0044 83F81324 		strb	r2, [r3, #1043]
1012:Middlewares/ST/STM32_USB_Device_Library/Class/DFU/Src/usbd_dfu.c ****     hdfu->dev_status[5] = 0U;/*iString*/
 259              		.loc 1 1012 0
 260 0048 83F81414 		strb	r1, [r3, #1044]
1013:Middlewares/ST/STM32_USB_Device_Library/Class/DFU/Src/usbd_dfu.c ****   }
 261              		.loc 1 1013 0
 262 004c 83F81524 		strb	r2, [r3, #1045]
 263 0050 7047     		bx	lr
 264              		.cfi_endproc
 265              	.LFE91:
 267              		.section	.text.DFU_Abort,"ax",%progbits
 268              		.align	1
 269              		.syntax unified
 270              		.thumb
 271              		.thumb_func
 272              		.fpu softvfp
 274              	DFU_Abort:
 275              	.LFB93:
1024:Middlewares/ST/STM32_USB_Device_Library/Class/DFU/Src/usbd_dfu.c ****   }
1025:Middlewares/ST/STM32_USB_Device_Library/Class/DFU/Src/usbd_dfu.c **** }
1026:Middlewares/ST/STM32_USB_Device_Library/Class/DFU/Src/usbd_dfu.c **** 
1027:Middlewares/ST/STM32_USB_Device_Library/Class/DFU/Src/usbd_dfu.c **** /**
1028:Middlewares/ST/STM32_USB_Device_Library/Class/DFU/Src/usbd_dfu.c ****   * @brief  DFU_GetState
1029:Middlewares/ST/STM32_USB_Device_Library/Class/DFU/Src/usbd_dfu.c ****   *         Handles the DFU GETSTATE request.
1030:Middlewares/ST/STM32_USB_Device_Library/Class/DFU/Src/usbd_dfu.c ****   * @param  pdev: device instance
1031:Middlewares/ST/STM32_USB_Device_Library/Class/DFU/Src/usbd_dfu.c ****   * @retval None
1032:Middlewares/ST/STM32_USB_Device_Library/Class/DFU/Src/usbd_dfu.c ****   */
1033:Middlewares/ST/STM32_USB_Device_Library/Class/DFU/Src/usbd_dfu.c **** static void DFU_GetState(USBD_HandleTypeDef *pdev)
1034:Middlewares/ST/STM32_USB_Device_Library/Class/DFU/Src/usbd_dfu.c **** {
1035:Middlewares/ST/STM32_USB_Device_Library/Class/DFU/Src/usbd_dfu.c ****  USBD_DFU_HandleTypeDef   *hdfu;
1036:Middlewares/ST/STM32_USB_Device_Library/Class/DFU/Src/usbd_dfu.c **** 
1037:Middlewares/ST/STM32_USB_Device_Library/Class/DFU/Src/usbd_dfu.c ****  hdfu = (USBD_DFU_HandleTypeDef*) pdev->pClassData;
1038:Middlewares/ST/STM32_USB_Device_Library/Class/DFU/Src/usbd_dfu.c **** 
1039:Middlewares/ST/STM32_USB_Device_Library/Class/DFU/Src/usbd_dfu.c ****   /* Return the current state of the DFU interface */
1040:Middlewares/ST/STM32_USB_Device_Library/Class/DFU/Src/usbd_dfu.c ****   USBD_CtlSendData (pdev, &hdfu->dev_state, 1U);
1041:Middlewares/ST/STM32_USB_Device_Library/Class/DFU/Src/usbd_dfu.c **** }
1042:Middlewares/ST/STM32_USB_Device_Library/Class/DFU/Src/usbd_dfu.c **** 
1043:Middlewares/ST/STM32_USB_Device_Library/Class/DFU/Src/usbd_dfu.c **** /**
1044:Middlewares/ST/STM32_USB_Device_Library/Class/DFU/Src/usbd_dfu.c ****   * @brief  DFU_Abort
1045:Middlewares/ST/STM32_USB_Device_Library/Class/DFU/Src/usbd_dfu.c ****   *         Handles the DFU ABORT request.
1046:Middlewares/ST/STM32_USB_Device_Library/Class/DFU/Src/usbd_dfu.c ****   * @param  pdev: device instance
1047:Middlewares/ST/STM32_USB_Device_Library/Class/DFU/Src/usbd_dfu.c ****   * @retval None
1048:Middlewares/ST/STM32_USB_Device_Library/Class/DFU/Src/usbd_dfu.c ****   */
ARM GAS  /tmp/ccfbgGae.s 			page 24


1049:Middlewares/ST/STM32_USB_Device_Library/Class/DFU/Src/usbd_dfu.c **** static void DFU_Abort(USBD_HandleTypeDef *pdev)
1050:Middlewares/ST/STM32_USB_Device_Library/Class/DFU/Src/usbd_dfu.c **** {
 276              		.loc 1 1050 0
 277              		.cfi_startproc
 278              		@ args = 0, pretend = 0, frame = 0
 279              		@ frame_needed = 0, uses_anonymous_args = 0
 280              		@ link register save eliminated.
 281              	.LVL18:
1051:Middlewares/ST/STM32_USB_Device_Library/Class/DFU/Src/usbd_dfu.c ****  USBD_DFU_HandleTypeDef   *hdfu;
1052:Middlewares/ST/STM32_USB_Device_Library/Class/DFU/Src/usbd_dfu.c **** 
1053:Middlewares/ST/STM32_USB_Device_Library/Class/DFU/Src/usbd_dfu.c ****  hdfu = (USBD_DFU_HandleTypeDef*) pdev->pClassData;
 282              		.loc 1 1053 0
 283 0000 D0F89032 		ldr	r3, [r0, #656]
 284              	.LVL19:
1054:Middlewares/ST/STM32_USB_Device_Library/Class/DFU/Src/usbd_dfu.c **** 
1055:Middlewares/ST/STM32_USB_Device_Library/Class/DFU/Src/usbd_dfu.c ****   if (hdfu->dev_state == DFU_STATE_IDLE || hdfu->dev_state == DFU_STATE_DNLOAD_SYNC
 285              		.loc 1 1055 0
 286 0004 93F81814 		ldrb	r1, [r3, #1048]	@ zero_extendqisi2
 287 0008 8A1E     		subs	r2, r1, #2
 288 000a D2B2     		uxtb	r2, r2
 289 000c 012A     		cmp	r2, #1
 290 000e 05D9     		bls	.L18
1056:Middlewares/ST/STM32_USB_Device_Library/Class/DFU/Src/usbd_dfu.c ****       || hdfu->dev_state == DFU_STATE_DNLOAD_IDLE || hdfu->dev_state == DFU_STATE_MANIFEST_SYNC
 291              		.loc 1 1056 0
 292 0010 0529     		cmp	r1, #5
 293 0012 03D0     		beq	.L18
 294              		.loc 1 1056 0 is_stmt 0 discriminator 1
 295 0014 0629     		cmp	r1, #6
 296 0016 01D0     		beq	.L18
1057:Middlewares/ST/STM32_USB_Device_Library/Class/DFU/Src/usbd_dfu.c ****         || hdfu->dev_state == DFU_STATE_UPLOAD_IDLE )
 297              		.loc 1 1057 0 is_stmt 1
 298 0018 0929     		cmp	r1, #9
 299 001a 13D1     		bne	.L17
 300              	.L18:
1058:Middlewares/ST/STM32_USB_Device_Library/Class/DFU/Src/usbd_dfu.c ****   {
1059:Middlewares/ST/STM32_USB_Device_Library/Class/DFU/Src/usbd_dfu.c ****     hdfu->dev_state = DFU_STATE_IDLE;
 301              		.loc 1 1059 0
 302 001c 0221     		movs	r1, #2
 303 001e 83F81814 		strb	r1, [r3, #1048]
1060:Middlewares/ST/STM32_USB_Device_Library/Class/DFU/Src/usbd_dfu.c ****     hdfu->dev_status[0] = DFU_ERROR_NONE;
 304              		.loc 1 1060 0
 305 0022 0022     		movs	r2, #0
 306 0024 83F81024 		strb	r2, [r3, #1040]
1061:Middlewares/ST/STM32_USB_Device_Library/Class/DFU/Src/usbd_dfu.c ****     hdfu->dev_status[1] = 0U;
 307              		.loc 1 1061 0
 308 0028 83F81124 		strb	r2, [r3, #1041]
1062:Middlewares/ST/STM32_USB_Device_Library/Class/DFU/Src/usbd_dfu.c ****     hdfu->dev_status[2] = 0U;
 309              		.loc 1 1062 0
 310 002c 83F81224 		strb	r2, [r3, #1042]
1063:Middlewares/ST/STM32_USB_Device_Library/Class/DFU/Src/usbd_dfu.c ****     hdfu->dev_status[3] = 0U; /*bwPollTimeout=0ms*/
 311              		.loc 1 1063 0
 312 0030 83F81324 		strb	r2, [r3, #1043]
1064:Middlewares/ST/STM32_USB_Device_Library/Class/DFU/Src/usbd_dfu.c ****     hdfu->dev_status[4] = hdfu->dev_state;
 313              		.loc 1 1064 0
 314 0034 83F81414 		strb	r1, [r3, #1044]
1065:Middlewares/ST/STM32_USB_Device_Library/Class/DFU/Src/usbd_dfu.c ****     hdfu->dev_status[5] = 0U; /*iString*/
 315              		.loc 1 1065 0
ARM GAS  /tmp/ccfbgGae.s 			page 25


 316 0038 83F81524 		strb	r2, [r3, #1045]
1066:Middlewares/ST/STM32_USB_Device_Library/Class/DFU/Src/usbd_dfu.c ****     hdfu->wblock_num = 0U;
 317              		.loc 1 1066 0
 318 003c C3F80024 		str	r2, [r3, #1024]
1067:Middlewares/ST/STM32_USB_Device_Library/Class/DFU/Src/usbd_dfu.c ****     hdfu->wlength = 0U;
 319              		.loc 1 1067 0
 320 0040 C3F80424 		str	r2, [r3, #1028]
 321              	.L17:
 322 0044 7047     		bx	lr
 323              		.cfi_endproc
 324              	.LFE93:
 326              		.section	.text.USBD_DFU_GetUsrStringDesc,"ax",%progbits
 327              		.align	1
 328              		.syntax unified
 329              		.thumb
 330              		.thumb_func
 331              		.fpu softvfp
 333              	USBD_DFU_GetUsrStringDesc:
 334              	.LFB85:
 686:Middlewares/ST/STM32_USB_Device_Library/Class/DFU/Src/usbd_dfu.c ****   static uint8_t USBD_StrDesc[255];
 335              		.loc 1 686 0
 336              		.cfi_startproc
 337              		@ args = 0, pretend = 0, frame = 0
 338              		@ frame_needed = 0, uses_anonymous_args = 0
 339              	.LVL20:
 689:Middlewares/ST/STM32_USB_Device_Library/Class/DFU/Src/usbd_dfu.c ****   {
 340              		.loc 1 689 0
 341 0000 0629     		cmp	r1, #6
 342 0002 09D8     		bhi	.L22
 686:Middlewares/ST/STM32_USB_Device_Library/Class/DFU/Src/usbd_dfu.c ****   static uint8_t USBD_StrDesc[255];
 343              		.loc 1 686 0
 344 0004 10B5     		push	{r4, lr}
 345              	.LCFI0:
 346              		.cfi_def_cfa_offset 8
 347              		.cfi_offset 4, -8
 348              		.cfi_offset 14, -4
 691:Middlewares/ST/STM32_USB_Device_Library/Class/DFU/Src/usbd_dfu.c ****     return USBD_StrDesc;
 349              		.loc 1 691 0
 350 0006 D0F89432 		ldr	r3, [r0, #660]
 351 000a 044C     		ldr	r4, .L27
 352 000c 2146     		mov	r1, r4
 353              	.LVL21:
 354 000e 1868     		ldr	r0, [r3]
 355              	.LVL22:
 356 0010 FFF7FEFF 		bl	USBD_GetString
 357              	.LVL23:
 692:Middlewares/ST/STM32_USB_Device_Library/Class/DFU/Src/usbd_dfu.c ****   }
 358              		.loc 1 692 0
 359 0014 2046     		mov	r0, r4
 360 0016 10BD     		pop	{r4, pc}
 361              	.LVL24:
 362              	.L22:
 363              	.LCFI1:
 364              		.cfi_def_cfa_offset 0
 365              		.cfi_restore 4
 366              		.cfi_restore 14
 697:Middlewares/ST/STM32_USB_Device_Library/Class/DFU/Src/usbd_dfu.c ****   }
ARM GAS  /tmp/ccfbgGae.s 			page 26


 367              		.loc 1 697 0
 368 0018 0020     		movs	r0, #0
 369              	.LVL25:
 370 001a 7047     		bx	lr
 371              	.L28:
 372              		.align	2
 373              	.L27:
 374 001c 00000000 		.word	.LANCHOR2
 375              		.cfi_endproc
 376              	.LFE85:
 378              		.section	.text.DFU_Leave,"ax",%progbits
 379              		.align	1
 380              		.syntax unified
 381              		.thumb
 382              		.thumb_func
 383              		.fpu softvfp
 385              	DFU_Leave:
 386              	.LFB94:
1068:Middlewares/ST/STM32_USB_Device_Library/Class/DFU/Src/usbd_dfu.c ****   }
1069:Middlewares/ST/STM32_USB_Device_Library/Class/DFU/Src/usbd_dfu.c **** }
1070:Middlewares/ST/STM32_USB_Device_Library/Class/DFU/Src/usbd_dfu.c **** 
1071:Middlewares/ST/STM32_USB_Device_Library/Class/DFU/Src/usbd_dfu.c **** /**
1072:Middlewares/ST/STM32_USB_Device_Library/Class/DFU/Src/usbd_dfu.c ****   * @brief  DFU_Leave
1073:Middlewares/ST/STM32_USB_Device_Library/Class/DFU/Src/usbd_dfu.c ****   *         Handles the sub-protocol DFU leave DFU mode request (leaves DFU mode
1074:Middlewares/ST/STM32_USB_Device_Library/Class/DFU/Src/usbd_dfu.c ****   *         and resets device to jump to user loaded code).
1075:Middlewares/ST/STM32_USB_Device_Library/Class/DFU/Src/usbd_dfu.c ****   * @param  pdev: device instance
1076:Middlewares/ST/STM32_USB_Device_Library/Class/DFU/Src/usbd_dfu.c ****   * @retval None
1077:Middlewares/ST/STM32_USB_Device_Library/Class/DFU/Src/usbd_dfu.c ****   */
1078:Middlewares/ST/STM32_USB_Device_Library/Class/DFU/Src/usbd_dfu.c **** static void DFU_Leave(USBD_HandleTypeDef *pdev)
1079:Middlewares/ST/STM32_USB_Device_Library/Class/DFU/Src/usbd_dfu.c **** {
 387              		.loc 1 1079 0
 388              		.cfi_startproc
 389              		@ args = 0, pretend = 0, frame = 0
 390              		@ frame_needed = 0, uses_anonymous_args = 0
 391              	.LVL26:
1080:Middlewares/ST/STM32_USB_Device_Library/Class/DFU/Src/usbd_dfu.c ****  USBD_DFU_HandleTypeDef   *hdfu;
1081:Middlewares/ST/STM32_USB_Device_Library/Class/DFU/Src/usbd_dfu.c **** 
1082:Middlewares/ST/STM32_USB_Device_Library/Class/DFU/Src/usbd_dfu.c ****  hdfu = (USBD_DFU_HandleTypeDef*) pdev->pClassData;
 392              		.loc 1 1082 0
 393 0000 D0F89032 		ldr	r3, [r0, #656]
 394              	.LVL27:
1083:Middlewares/ST/STM32_USB_Device_Library/Class/DFU/Src/usbd_dfu.c **** 
1084:Middlewares/ST/STM32_USB_Device_Library/Class/DFU/Src/usbd_dfu.c ****  hdfu->manif_state = DFU_MANIFEST_COMPLETE;
 395              		.loc 1 1084 0
 396 0004 0022     		movs	r2, #0
 397 0006 83F81924 		strb	r2, [r3, #1049]
1085:Middlewares/ST/STM32_USB_Device_Library/Class/DFU/Src/usbd_dfu.c **** 
1086:Middlewares/ST/STM32_USB_Device_Library/Class/DFU/Src/usbd_dfu.c ****   if ((USBD_DFU_CfgDesc[(11U + (9U * USBD_DFU_MAX_ITF_NUM))]) & 0x04U)
 398              		.loc 1 1086 0
 399 000a 194A     		ldr	r2, .L35
 400 000c 127D     		ldrb	r2, [r2, #20]	@ zero_extendqisi2
 401 000e 12F0040F 		tst	r2, #4
 402 0012 0CD0     		beq	.L30
1087:Middlewares/ST/STM32_USB_Device_Library/Class/DFU/Src/usbd_dfu.c ****   {
1088:Middlewares/ST/STM32_USB_Device_Library/Class/DFU/Src/usbd_dfu.c ****     hdfu->dev_state = DFU_STATE_MANIFEST_SYNC;
 403              		.loc 1 1088 0
 404 0014 0621     		movs	r1, #6
ARM GAS  /tmp/ccfbgGae.s 			page 27


 405 0016 83F81814 		strb	r1, [r3, #1048]
1089:Middlewares/ST/STM32_USB_Device_Library/Class/DFU/Src/usbd_dfu.c **** 
1090:Middlewares/ST/STM32_USB_Device_Library/Class/DFU/Src/usbd_dfu.c ****     hdfu->dev_status[1] = 0U;
 406              		.loc 1 1090 0
 407 001a 0022     		movs	r2, #0
 408 001c 83F81124 		strb	r2, [r3, #1041]
1091:Middlewares/ST/STM32_USB_Device_Library/Class/DFU/Src/usbd_dfu.c ****     hdfu->dev_status[2] = 0U;
 409              		.loc 1 1091 0
 410 0020 83F81224 		strb	r2, [r3, #1042]
1092:Middlewares/ST/STM32_USB_Device_Library/Class/DFU/Src/usbd_dfu.c ****     hdfu->dev_status[3] = 0U;
 411              		.loc 1 1092 0
 412 0024 83F81324 		strb	r2, [r3, #1043]
1093:Middlewares/ST/STM32_USB_Device_Library/Class/DFU/Src/usbd_dfu.c ****     hdfu->dev_status[4] = hdfu->dev_state;
 413              		.loc 1 1093 0
 414 0028 83F81414 		strb	r1, [r3, #1044]
 415 002c 7047     		bx	lr
 416              	.L30:
1079:Middlewares/ST/STM32_USB_Device_Library/Class/DFU/Src/usbd_dfu.c ****  USBD_DFU_HandleTypeDef   *hdfu;
 417              		.loc 1 1079 0
 418 002e 10B5     		push	{r4, lr}
 419              	.LCFI2:
 420              		.cfi_def_cfa_offset 8
 421              		.cfi_offset 4, -8
 422              		.cfi_offset 14, -4
 423 0030 0446     		mov	r4, r0
1094:Middlewares/ST/STM32_USB_Device_Library/Class/DFU/Src/usbd_dfu.c ****     return;
1095:Middlewares/ST/STM32_USB_Device_Library/Class/DFU/Src/usbd_dfu.c ****   }
1096:Middlewares/ST/STM32_USB_Device_Library/Class/DFU/Src/usbd_dfu.c ****   else
1097:Middlewares/ST/STM32_USB_Device_Library/Class/DFU/Src/usbd_dfu.c ****   {
1098:Middlewares/ST/STM32_USB_Device_Library/Class/DFU/Src/usbd_dfu.c ****     hdfu->dev_state = DFU_STATE_MANIFEST_WAIT_RESET;
 424              		.loc 1 1098 0
 425 0032 0821     		movs	r1, #8
 426 0034 83F81814 		strb	r1, [r3, #1048]
1099:Middlewares/ST/STM32_USB_Device_Library/Class/DFU/Src/usbd_dfu.c **** 
1100:Middlewares/ST/STM32_USB_Device_Library/Class/DFU/Src/usbd_dfu.c ****     hdfu->dev_status[1] = 0U;
 427              		.loc 1 1100 0
 428 0038 0022     		movs	r2, #0
 429 003a 83F81124 		strb	r2, [r3, #1041]
1101:Middlewares/ST/STM32_USB_Device_Library/Class/DFU/Src/usbd_dfu.c ****     hdfu->dev_status[2] = 0U;
 430              		.loc 1 1101 0
 431 003e 83F81224 		strb	r2, [r3, #1042]
1102:Middlewares/ST/STM32_USB_Device_Library/Class/DFU/Src/usbd_dfu.c ****     hdfu->dev_status[3] = 0U;
 432              		.loc 1 1102 0
 433 0042 83F81324 		strb	r2, [r3, #1043]
1103:Middlewares/ST/STM32_USB_Device_Library/Class/DFU/Src/usbd_dfu.c ****     hdfu->dev_status[4] = hdfu->dev_state;
 434              		.loc 1 1103 0
 435 0046 83F81414 		strb	r1, [r3, #1044]
1104:Middlewares/ST/STM32_USB_Device_Library/Class/DFU/Src/usbd_dfu.c **** 
1105:Middlewares/ST/STM32_USB_Device_Library/Class/DFU/Src/usbd_dfu.c ****     /* Disconnect the USB device */
1106:Middlewares/ST/STM32_USB_Device_Library/Class/DFU/Src/usbd_dfu.c ****     USBD_Stop (pdev);
 436              		.loc 1 1106 0
 437 004a FFF7FEFF 		bl	USBD_Stop
 438              	.LVL28:
1107:Middlewares/ST/STM32_USB_Device_Library/Class/DFU/Src/usbd_dfu.c **** 
1108:Middlewares/ST/STM32_USB_Device_Library/Class/DFU/Src/usbd_dfu.c ****     /* DeInitilialize the MAL(Media Access Layer) */
1109:Middlewares/ST/STM32_USB_Device_Library/Class/DFU/Src/usbd_dfu.c ****     ((USBD_DFU_MediaTypeDef *)pdev->pUserData)->DeInit();
 439              		.loc 1 1109 0
ARM GAS  /tmp/ccfbgGae.s 			page 28


 440 004e D4F89432 		ldr	r3, [r4, #660]
 441 0052 9B68     		ldr	r3, [r3, #8]
 442 0054 9847     		blx	r3
 443              	.LVL29:
 444              	.LBB12:
 445              	.LBB13:
 446              	.LBB14:
 447              	.LBB15:
 448              		.file 2 "Drivers/CMSIS/Include/cmsis_gcc.h"
   1:Drivers/CMSIS/Include/cmsis_gcc.h **** /**************************************************************************//**
   2:Drivers/CMSIS/Include/cmsis_gcc.h ****  * @file     cmsis_gcc.h
   3:Drivers/CMSIS/Include/cmsis_gcc.h ****  * @brief    CMSIS compiler GCC header file
   4:Drivers/CMSIS/Include/cmsis_gcc.h ****  * @version  V5.0.4
   5:Drivers/CMSIS/Include/cmsis_gcc.h ****  * @date     09. April 2018
   6:Drivers/CMSIS/Include/cmsis_gcc.h ****  ******************************************************************************/
   7:Drivers/CMSIS/Include/cmsis_gcc.h **** /*
   8:Drivers/CMSIS/Include/cmsis_gcc.h ****  * Copyright (c) 2009-2018 Arm Limited. All rights reserved.
   9:Drivers/CMSIS/Include/cmsis_gcc.h ****  *
  10:Drivers/CMSIS/Include/cmsis_gcc.h ****  * SPDX-License-Identifier: Apache-2.0
  11:Drivers/CMSIS/Include/cmsis_gcc.h ****  *
  12:Drivers/CMSIS/Include/cmsis_gcc.h ****  * Licensed under the Apache License, Version 2.0 (the License); you may
  13:Drivers/CMSIS/Include/cmsis_gcc.h ****  * not use this file except in compliance with the License.
  14:Drivers/CMSIS/Include/cmsis_gcc.h ****  * You may obtain a copy of the License at
  15:Drivers/CMSIS/Include/cmsis_gcc.h ****  *
  16:Drivers/CMSIS/Include/cmsis_gcc.h ****  * www.apache.org/licenses/LICENSE-2.0
  17:Drivers/CMSIS/Include/cmsis_gcc.h ****  *
  18:Drivers/CMSIS/Include/cmsis_gcc.h ****  * Unless required by applicable law or agreed to in writing, software
  19:Drivers/CMSIS/Include/cmsis_gcc.h ****  * distributed under the License is distributed on an AS IS BASIS, WITHOUT
  20:Drivers/CMSIS/Include/cmsis_gcc.h ****  * WARRANTIES OR CONDITIONS OF ANY KIND, either express or implied.
  21:Drivers/CMSIS/Include/cmsis_gcc.h ****  * See the License for the specific language governing permissions and
  22:Drivers/CMSIS/Include/cmsis_gcc.h ****  * limitations under the License.
  23:Drivers/CMSIS/Include/cmsis_gcc.h ****  */
  24:Drivers/CMSIS/Include/cmsis_gcc.h **** 
  25:Drivers/CMSIS/Include/cmsis_gcc.h **** #ifndef __CMSIS_GCC_H
  26:Drivers/CMSIS/Include/cmsis_gcc.h **** #define __CMSIS_GCC_H
  27:Drivers/CMSIS/Include/cmsis_gcc.h **** 
  28:Drivers/CMSIS/Include/cmsis_gcc.h **** /* ignore some GCC warnings */
  29:Drivers/CMSIS/Include/cmsis_gcc.h **** #pragma GCC diagnostic push
  30:Drivers/CMSIS/Include/cmsis_gcc.h **** #pragma GCC diagnostic ignored "-Wsign-conversion"
  31:Drivers/CMSIS/Include/cmsis_gcc.h **** #pragma GCC diagnostic ignored "-Wconversion"
  32:Drivers/CMSIS/Include/cmsis_gcc.h **** #pragma GCC diagnostic ignored "-Wunused-parameter"
  33:Drivers/CMSIS/Include/cmsis_gcc.h **** 
  34:Drivers/CMSIS/Include/cmsis_gcc.h **** /* Fallback for __has_builtin */
  35:Drivers/CMSIS/Include/cmsis_gcc.h **** #ifndef __has_builtin
  36:Drivers/CMSIS/Include/cmsis_gcc.h ****   #define __has_builtin(x) (0)
  37:Drivers/CMSIS/Include/cmsis_gcc.h **** #endif
  38:Drivers/CMSIS/Include/cmsis_gcc.h **** 
  39:Drivers/CMSIS/Include/cmsis_gcc.h **** /* CMSIS compiler specific defines */
  40:Drivers/CMSIS/Include/cmsis_gcc.h **** #ifndef   __ASM
  41:Drivers/CMSIS/Include/cmsis_gcc.h ****   #define __ASM                                  __asm
  42:Drivers/CMSIS/Include/cmsis_gcc.h **** #endif
  43:Drivers/CMSIS/Include/cmsis_gcc.h **** #ifndef   __INLINE
  44:Drivers/CMSIS/Include/cmsis_gcc.h ****   #define __INLINE                               inline
  45:Drivers/CMSIS/Include/cmsis_gcc.h **** #endif
  46:Drivers/CMSIS/Include/cmsis_gcc.h **** #ifndef   __STATIC_INLINE
  47:Drivers/CMSIS/Include/cmsis_gcc.h ****   #define __STATIC_INLINE                        static inline
  48:Drivers/CMSIS/Include/cmsis_gcc.h **** #endif
ARM GAS  /tmp/ccfbgGae.s 			page 29


  49:Drivers/CMSIS/Include/cmsis_gcc.h **** #ifndef   __STATIC_FORCEINLINE                 
  50:Drivers/CMSIS/Include/cmsis_gcc.h ****   #define __STATIC_FORCEINLINE                   __attribute__((always_inline)) static inline
  51:Drivers/CMSIS/Include/cmsis_gcc.h **** #endif                                           
  52:Drivers/CMSIS/Include/cmsis_gcc.h **** #ifndef   __NO_RETURN
  53:Drivers/CMSIS/Include/cmsis_gcc.h ****   #define __NO_RETURN                            __attribute__((__noreturn__))
  54:Drivers/CMSIS/Include/cmsis_gcc.h **** #endif
  55:Drivers/CMSIS/Include/cmsis_gcc.h **** #ifndef   __USED
  56:Drivers/CMSIS/Include/cmsis_gcc.h ****   #define __USED                                 __attribute__((used))
  57:Drivers/CMSIS/Include/cmsis_gcc.h **** #endif
  58:Drivers/CMSIS/Include/cmsis_gcc.h **** #ifndef   __WEAK
  59:Drivers/CMSIS/Include/cmsis_gcc.h ****   #define __WEAK                                 __attribute__((weak))
  60:Drivers/CMSIS/Include/cmsis_gcc.h **** #endif
  61:Drivers/CMSIS/Include/cmsis_gcc.h **** #ifndef   __PACKED
  62:Drivers/CMSIS/Include/cmsis_gcc.h ****   #define __PACKED                               __attribute__((packed, aligned(1)))
  63:Drivers/CMSIS/Include/cmsis_gcc.h **** #endif
  64:Drivers/CMSIS/Include/cmsis_gcc.h **** #ifndef   __PACKED_STRUCT
  65:Drivers/CMSIS/Include/cmsis_gcc.h ****   #define __PACKED_STRUCT                        struct __attribute__((packed, aligned(1)))
  66:Drivers/CMSIS/Include/cmsis_gcc.h **** #endif
  67:Drivers/CMSIS/Include/cmsis_gcc.h **** #ifndef   __PACKED_UNION
  68:Drivers/CMSIS/Include/cmsis_gcc.h ****   #define __PACKED_UNION                         union __attribute__((packed, aligned(1)))
  69:Drivers/CMSIS/Include/cmsis_gcc.h **** #endif
  70:Drivers/CMSIS/Include/cmsis_gcc.h **** #ifndef   __UNALIGNED_UINT32        /* deprecated */
  71:Drivers/CMSIS/Include/cmsis_gcc.h ****   #pragma GCC diagnostic push
  72:Drivers/CMSIS/Include/cmsis_gcc.h ****   #pragma GCC diagnostic ignored "-Wpacked"
  73:Drivers/CMSIS/Include/cmsis_gcc.h ****   #pragma GCC diagnostic ignored "-Wattributes"
  74:Drivers/CMSIS/Include/cmsis_gcc.h ****   struct __attribute__((packed)) T_UINT32 { uint32_t v; };
  75:Drivers/CMSIS/Include/cmsis_gcc.h ****   #pragma GCC diagnostic pop
  76:Drivers/CMSIS/Include/cmsis_gcc.h ****   #define __UNALIGNED_UINT32(x)                  (((struct T_UINT32 *)(x))->v)
  77:Drivers/CMSIS/Include/cmsis_gcc.h **** #endif
  78:Drivers/CMSIS/Include/cmsis_gcc.h **** #ifndef   __UNALIGNED_UINT16_WRITE
  79:Drivers/CMSIS/Include/cmsis_gcc.h ****   #pragma GCC diagnostic push
  80:Drivers/CMSIS/Include/cmsis_gcc.h ****   #pragma GCC diagnostic ignored "-Wpacked"
  81:Drivers/CMSIS/Include/cmsis_gcc.h ****   #pragma GCC diagnostic ignored "-Wattributes"
  82:Drivers/CMSIS/Include/cmsis_gcc.h ****   __PACKED_STRUCT T_UINT16_WRITE { uint16_t v; };
  83:Drivers/CMSIS/Include/cmsis_gcc.h ****   #pragma GCC diagnostic pop
  84:Drivers/CMSIS/Include/cmsis_gcc.h ****   #define __UNALIGNED_UINT16_WRITE(addr, val)    (void)((((struct T_UINT16_WRITE *)(void *)(addr))-
  85:Drivers/CMSIS/Include/cmsis_gcc.h **** #endif
  86:Drivers/CMSIS/Include/cmsis_gcc.h **** #ifndef   __UNALIGNED_UINT16_READ
  87:Drivers/CMSIS/Include/cmsis_gcc.h ****   #pragma GCC diagnostic push
  88:Drivers/CMSIS/Include/cmsis_gcc.h ****   #pragma GCC diagnostic ignored "-Wpacked"
  89:Drivers/CMSIS/Include/cmsis_gcc.h ****   #pragma GCC diagnostic ignored "-Wattributes"
  90:Drivers/CMSIS/Include/cmsis_gcc.h ****   __PACKED_STRUCT T_UINT16_READ { uint16_t v; };
  91:Drivers/CMSIS/Include/cmsis_gcc.h ****   #pragma GCC diagnostic pop
  92:Drivers/CMSIS/Include/cmsis_gcc.h ****   #define __UNALIGNED_UINT16_READ(addr)          (((const struct T_UINT16_READ *)(const void *)(add
  93:Drivers/CMSIS/Include/cmsis_gcc.h **** #endif
  94:Drivers/CMSIS/Include/cmsis_gcc.h **** #ifndef   __UNALIGNED_UINT32_WRITE
  95:Drivers/CMSIS/Include/cmsis_gcc.h ****   #pragma GCC diagnostic push
  96:Drivers/CMSIS/Include/cmsis_gcc.h ****   #pragma GCC diagnostic ignored "-Wpacked"
  97:Drivers/CMSIS/Include/cmsis_gcc.h ****   #pragma GCC diagnostic ignored "-Wattributes"
  98:Drivers/CMSIS/Include/cmsis_gcc.h ****   __PACKED_STRUCT T_UINT32_WRITE { uint32_t v; };
  99:Drivers/CMSIS/Include/cmsis_gcc.h ****   #pragma GCC diagnostic pop
 100:Drivers/CMSIS/Include/cmsis_gcc.h ****   #define __UNALIGNED_UINT32_WRITE(addr, val)    (void)((((struct T_UINT32_WRITE *)(void *)(addr))-
 101:Drivers/CMSIS/Include/cmsis_gcc.h **** #endif
 102:Drivers/CMSIS/Include/cmsis_gcc.h **** #ifndef   __UNALIGNED_UINT32_READ
 103:Drivers/CMSIS/Include/cmsis_gcc.h ****   #pragma GCC diagnostic push
 104:Drivers/CMSIS/Include/cmsis_gcc.h ****   #pragma GCC diagnostic ignored "-Wpacked"
 105:Drivers/CMSIS/Include/cmsis_gcc.h ****   #pragma GCC diagnostic ignored "-Wattributes"
ARM GAS  /tmp/ccfbgGae.s 			page 30


 106:Drivers/CMSIS/Include/cmsis_gcc.h ****   __PACKED_STRUCT T_UINT32_READ { uint32_t v; };
 107:Drivers/CMSIS/Include/cmsis_gcc.h ****   #pragma GCC diagnostic pop
 108:Drivers/CMSIS/Include/cmsis_gcc.h ****   #define __UNALIGNED_UINT32_READ(addr)          (((const struct T_UINT32_READ *)(const void *)(add
 109:Drivers/CMSIS/Include/cmsis_gcc.h **** #endif
 110:Drivers/CMSIS/Include/cmsis_gcc.h **** #ifndef   __ALIGNED
 111:Drivers/CMSIS/Include/cmsis_gcc.h ****   #define __ALIGNED(x)                           __attribute__((aligned(x)))
 112:Drivers/CMSIS/Include/cmsis_gcc.h **** #endif
 113:Drivers/CMSIS/Include/cmsis_gcc.h **** #ifndef   __RESTRICT
 114:Drivers/CMSIS/Include/cmsis_gcc.h ****   #define __RESTRICT                             __restrict
 115:Drivers/CMSIS/Include/cmsis_gcc.h **** #endif
 116:Drivers/CMSIS/Include/cmsis_gcc.h **** 
 117:Drivers/CMSIS/Include/cmsis_gcc.h **** 
 118:Drivers/CMSIS/Include/cmsis_gcc.h **** /* ###########################  Core Function Access  ########################### */
 119:Drivers/CMSIS/Include/cmsis_gcc.h **** /** \ingroup  CMSIS_Core_FunctionInterface
 120:Drivers/CMSIS/Include/cmsis_gcc.h ****     \defgroup CMSIS_Core_RegAccFunctions CMSIS Core Register Access Functions
 121:Drivers/CMSIS/Include/cmsis_gcc.h ****   @{
 122:Drivers/CMSIS/Include/cmsis_gcc.h ****  */
 123:Drivers/CMSIS/Include/cmsis_gcc.h **** 
 124:Drivers/CMSIS/Include/cmsis_gcc.h **** /**
 125:Drivers/CMSIS/Include/cmsis_gcc.h ****   \brief   Enable IRQ Interrupts
 126:Drivers/CMSIS/Include/cmsis_gcc.h ****   \details Enables IRQ interrupts by clearing the I-bit in the CPSR.
 127:Drivers/CMSIS/Include/cmsis_gcc.h ****            Can only be executed in Privileged modes.
 128:Drivers/CMSIS/Include/cmsis_gcc.h ****  */
 129:Drivers/CMSIS/Include/cmsis_gcc.h **** __STATIC_FORCEINLINE void __enable_irq(void)
 130:Drivers/CMSIS/Include/cmsis_gcc.h **** {
 131:Drivers/CMSIS/Include/cmsis_gcc.h ****   __ASM volatile ("cpsie i" : : : "memory");
 132:Drivers/CMSIS/Include/cmsis_gcc.h **** }
 133:Drivers/CMSIS/Include/cmsis_gcc.h **** 
 134:Drivers/CMSIS/Include/cmsis_gcc.h **** 
 135:Drivers/CMSIS/Include/cmsis_gcc.h **** /**
 136:Drivers/CMSIS/Include/cmsis_gcc.h ****   \brief   Disable IRQ Interrupts
 137:Drivers/CMSIS/Include/cmsis_gcc.h ****   \details Disables IRQ interrupts by setting the I-bit in the CPSR.
 138:Drivers/CMSIS/Include/cmsis_gcc.h ****            Can only be executed in Privileged modes.
 139:Drivers/CMSIS/Include/cmsis_gcc.h ****  */
 140:Drivers/CMSIS/Include/cmsis_gcc.h **** __STATIC_FORCEINLINE void __disable_irq(void)
 141:Drivers/CMSIS/Include/cmsis_gcc.h **** {
 142:Drivers/CMSIS/Include/cmsis_gcc.h ****   __ASM volatile ("cpsid i" : : : "memory");
 143:Drivers/CMSIS/Include/cmsis_gcc.h **** }
 144:Drivers/CMSIS/Include/cmsis_gcc.h **** 
 145:Drivers/CMSIS/Include/cmsis_gcc.h **** 
 146:Drivers/CMSIS/Include/cmsis_gcc.h **** /**
 147:Drivers/CMSIS/Include/cmsis_gcc.h ****   \brief   Get Control Register
 148:Drivers/CMSIS/Include/cmsis_gcc.h ****   \details Returns the content of the Control Register.
 149:Drivers/CMSIS/Include/cmsis_gcc.h ****   \return               Control Register value
 150:Drivers/CMSIS/Include/cmsis_gcc.h ****  */
 151:Drivers/CMSIS/Include/cmsis_gcc.h **** __STATIC_FORCEINLINE uint32_t __get_CONTROL(void)
 152:Drivers/CMSIS/Include/cmsis_gcc.h **** {
 153:Drivers/CMSIS/Include/cmsis_gcc.h ****   uint32_t result;
 154:Drivers/CMSIS/Include/cmsis_gcc.h **** 
 155:Drivers/CMSIS/Include/cmsis_gcc.h ****   __ASM volatile ("MRS %0, control" : "=r" (result) );
 156:Drivers/CMSIS/Include/cmsis_gcc.h ****   return(result);
 157:Drivers/CMSIS/Include/cmsis_gcc.h **** }
 158:Drivers/CMSIS/Include/cmsis_gcc.h **** 
 159:Drivers/CMSIS/Include/cmsis_gcc.h **** 
 160:Drivers/CMSIS/Include/cmsis_gcc.h **** #if (defined (__ARM_FEATURE_CMSE ) && (__ARM_FEATURE_CMSE == 3))
 161:Drivers/CMSIS/Include/cmsis_gcc.h **** /**
 162:Drivers/CMSIS/Include/cmsis_gcc.h ****   \brief   Get Control Register (non-secure)
ARM GAS  /tmp/ccfbgGae.s 			page 31


 163:Drivers/CMSIS/Include/cmsis_gcc.h ****   \details Returns the content of the non-secure Control Register when in secure mode.
 164:Drivers/CMSIS/Include/cmsis_gcc.h ****   \return               non-secure Control Register value
 165:Drivers/CMSIS/Include/cmsis_gcc.h ****  */
 166:Drivers/CMSIS/Include/cmsis_gcc.h **** __STATIC_FORCEINLINE uint32_t __TZ_get_CONTROL_NS(void)
 167:Drivers/CMSIS/Include/cmsis_gcc.h **** {
 168:Drivers/CMSIS/Include/cmsis_gcc.h ****   uint32_t result;
 169:Drivers/CMSIS/Include/cmsis_gcc.h **** 
 170:Drivers/CMSIS/Include/cmsis_gcc.h ****   __ASM volatile ("MRS %0, control_ns" : "=r" (result) );
 171:Drivers/CMSIS/Include/cmsis_gcc.h ****   return(result);
 172:Drivers/CMSIS/Include/cmsis_gcc.h **** }
 173:Drivers/CMSIS/Include/cmsis_gcc.h **** #endif
 174:Drivers/CMSIS/Include/cmsis_gcc.h **** 
 175:Drivers/CMSIS/Include/cmsis_gcc.h **** 
 176:Drivers/CMSIS/Include/cmsis_gcc.h **** /**
 177:Drivers/CMSIS/Include/cmsis_gcc.h ****   \brief   Set Control Register
 178:Drivers/CMSIS/Include/cmsis_gcc.h ****   \details Writes the given value to the Control Register.
 179:Drivers/CMSIS/Include/cmsis_gcc.h ****   \param [in]    control  Control Register value to set
 180:Drivers/CMSIS/Include/cmsis_gcc.h ****  */
 181:Drivers/CMSIS/Include/cmsis_gcc.h **** __STATIC_FORCEINLINE void __set_CONTROL(uint32_t control)
 182:Drivers/CMSIS/Include/cmsis_gcc.h **** {
 183:Drivers/CMSIS/Include/cmsis_gcc.h ****   __ASM volatile ("MSR control, %0" : : "r" (control) : "memory");
 184:Drivers/CMSIS/Include/cmsis_gcc.h **** }
 185:Drivers/CMSIS/Include/cmsis_gcc.h **** 
 186:Drivers/CMSIS/Include/cmsis_gcc.h **** 
 187:Drivers/CMSIS/Include/cmsis_gcc.h **** #if (defined (__ARM_FEATURE_CMSE ) && (__ARM_FEATURE_CMSE == 3))
 188:Drivers/CMSIS/Include/cmsis_gcc.h **** /**
 189:Drivers/CMSIS/Include/cmsis_gcc.h ****   \brief   Set Control Register (non-secure)
 190:Drivers/CMSIS/Include/cmsis_gcc.h ****   \details Writes the given value to the non-secure Control Register when in secure state.
 191:Drivers/CMSIS/Include/cmsis_gcc.h ****   \param [in]    control  Control Register value to set
 192:Drivers/CMSIS/Include/cmsis_gcc.h ****  */
 193:Drivers/CMSIS/Include/cmsis_gcc.h **** __STATIC_FORCEINLINE void __TZ_set_CONTROL_NS(uint32_t control)
 194:Drivers/CMSIS/Include/cmsis_gcc.h **** {
 195:Drivers/CMSIS/Include/cmsis_gcc.h ****   __ASM volatile ("MSR control_ns, %0" : : "r" (control) : "memory");
 196:Drivers/CMSIS/Include/cmsis_gcc.h **** }
 197:Drivers/CMSIS/Include/cmsis_gcc.h **** #endif
 198:Drivers/CMSIS/Include/cmsis_gcc.h **** 
 199:Drivers/CMSIS/Include/cmsis_gcc.h **** 
 200:Drivers/CMSIS/Include/cmsis_gcc.h **** /**
 201:Drivers/CMSIS/Include/cmsis_gcc.h ****   \brief   Get IPSR Register
 202:Drivers/CMSIS/Include/cmsis_gcc.h ****   \details Returns the content of the IPSR Register.
 203:Drivers/CMSIS/Include/cmsis_gcc.h ****   \return               IPSR Register value
 204:Drivers/CMSIS/Include/cmsis_gcc.h ****  */
 205:Drivers/CMSIS/Include/cmsis_gcc.h **** __STATIC_FORCEINLINE uint32_t __get_IPSR(void)
 206:Drivers/CMSIS/Include/cmsis_gcc.h **** {
 207:Drivers/CMSIS/Include/cmsis_gcc.h ****   uint32_t result;
 208:Drivers/CMSIS/Include/cmsis_gcc.h **** 
 209:Drivers/CMSIS/Include/cmsis_gcc.h ****   __ASM volatile ("MRS %0, ipsr" : "=r" (result) );
 210:Drivers/CMSIS/Include/cmsis_gcc.h ****   return(result);
 211:Drivers/CMSIS/Include/cmsis_gcc.h **** }
 212:Drivers/CMSIS/Include/cmsis_gcc.h **** 
 213:Drivers/CMSIS/Include/cmsis_gcc.h **** 
 214:Drivers/CMSIS/Include/cmsis_gcc.h **** /**
 215:Drivers/CMSIS/Include/cmsis_gcc.h ****   \brief   Get APSR Register
 216:Drivers/CMSIS/Include/cmsis_gcc.h ****   \details Returns the content of the APSR Register.
 217:Drivers/CMSIS/Include/cmsis_gcc.h ****   \return               APSR Register value
 218:Drivers/CMSIS/Include/cmsis_gcc.h ****  */
 219:Drivers/CMSIS/Include/cmsis_gcc.h **** __STATIC_FORCEINLINE uint32_t __get_APSR(void)
ARM GAS  /tmp/ccfbgGae.s 			page 32


 220:Drivers/CMSIS/Include/cmsis_gcc.h **** {
 221:Drivers/CMSIS/Include/cmsis_gcc.h ****   uint32_t result;
 222:Drivers/CMSIS/Include/cmsis_gcc.h **** 
 223:Drivers/CMSIS/Include/cmsis_gcc.h ****   __ASM volatile ("MRS %0, apsr" : "=r" (result) );
 224:Drivers/CMSIS/Include/cmsis_gcc.h ****   return(result);
 225:Drivers/CMSIS/Include/cmsis_gcc.h **** }
 226:Drivers/CMSIS/Include/cmsis_gcc.h **** 
 227:Drivers/CMSIS/Include/cmsis_gcc.h **** 
 228:Drivers/CMSIS/Include/cmsis_gcc.h **** /**
 229:Drivers/CMSIS/Include/cmsis_gcc.h ****   \brief   Get xPSR Register
 230:Drivers/CMSIS/Include/cmsis_gcc.h ****   \details Returns the content of the xPSR Register.
 231:Drivers/CMSIS/Include/cmsis_gcc.h ****   \return               xPSR Register value
 232:Drivers/CMSIS/Include/cmsis_gcc.h ****  */
 233:Drivers/CMSIS/Include/cmsis_gcc.h **** __STATIC_FORCEINLINE uint32_t __get_xPSR(void)
 234:Drivers/CMSIS/Include/cmsis_gcc.h **** {
 235:Drivers/CMSIS/Include/cmsis_gcc.h ****   uint32_t result;
 236:Drivers/CMSIS/Include/cmsis_gcc.h **** 
 237:Drivers/CMSIS/Include/cmsis_gcc.h ****   __ASM volatile ("MRS %0, xpsr" : "=r" (result) );
 238:Drivers/CMSIS/Include/cmsis_gcc.h ****   return(result);
 239:Drivers/CMSIS/Include/cmsis_gcc.h **** }
 240:Drivers/CMSIS/Include/cmsis_gcc.h **** 
 241:Drivers/CMSIS/Include/cmsis_gcc.h **** 
 242:Drivers/CMSIS/Include/cmsis_gcc.h **** /**
 243:Drivers/CMSIS/Include/cmsis_gcc.h ****   \brief   Get Process Stack Pointer
 244:Drivers/CMSIS/Include/cmsis_gcc.h ****   \details Returns the current value of the Process Stack Pointer (PSP).
 245:Drivers/CMSIS/Include/cmsis_gcc.h ****   \return               PSP Register value
 246:Drivers/CMSIS/Include/cmsis_gcc.h ****  */
 247:Drivers/CMSIS/Include/cmsis_gcc.h **** __STATIC_FORCEINLINE uint32_t __get_PSP(void)
 248:Drivers/CMSIS/Include/cmsis_gcc.h **** {
 249:Drivers/CMSIS/Include/cmsis_gcc.h ****   uint32_t result;
 250:Drivers/CMSIS/Include/cmsis_gcc.h **** 
 251:Drivers/CMSIS/Include/cmsis_gcc.h ****   __ASM volatile ("MRS %0, psp"  : "=r" (result) );
 252:Drivers/CMSIS/Include/cmsis_gcc.h ****   return(result);
 253:Drivers/CMSIS/Include/cmsis_gcc.h **** }
 254:Drivers/CMSIS/Include/cmsis_gcc.h **** 
 255:Drivers/CMSIS/Include/cmsis_gcc.h **** 
 256:Drivers/CMSIS/Include/cmsis_gcc.h **** #if (defined (__ARM_FEATURE_CMSE ) && (__ARM_FEATURE_CMSE == 3))
 257:Drivers/CMSIS/Include/cmsis_gcc.h **** /**
 258:Drivers/CMSIS/Include/cmsis_gcc.h ****   \brief   Get Process Stack Pointer (non-secure)
 259:Drivers/CMSIS/Include/cmsis_gcc.h ****   \details Returns the current value of the non-secure Process Stack Pointer (PSP) when in secure s
 260:Drivers/CMSIS/Include/cmsis_gcc.h ****   \return               PSP Register value
 261:Drivers/CMSIS/Include/cmsis_gcc.h ****  */
 262:Drivers/CMSIS/Include/cmsis_gcc.h **** __STATIC_FORCEINLINE uint32_t __TZ_get_PSP_NS(void)
 263:Drivers/CMSIS/Include/cmsis_gcc.h **** {
 264:Drivers/CMSIS/Include/cmsis_gcc.h ****   uint32_t result;
 265:Drivers/CMSIS/Include/cmsis_gcc.h **** 
 266:Drivers/CMSIS/Include/cmsis_gcc.h ****   __ASM volatile ("MRS %0, psp_ns"  : "=r" (result) );
 267:Drivers/CMSIS/Include/cmsis_gcc.h ****   return(result);
 268:Drivers/CMSIS/Include/cmsis_gcc.h **** }
 269:Drivers/CMSIS/Include/cmsis_gcc.h **** #endif
 270:Drivers/CMSIS/Include/cmsis_gcc.h **** 
 271:Drivers/CMSIS/Include/cmsis_gcc.h **** 
 272:Drivers/CMSIS/Include/cmsis_gcc.h **** /**
 273:Drivers/CMSIS/Include/cmsis_gcc.h ****   \brief   Set Process Stack Pointer
 274:Drivers/CMSIS/Include/cmsis_gcc.h ****   \details Assigns the given value to the Process Stack Pointer (PSP).
 275:Drivers/CMSIS/Include/cmsis_gcc.h ****   \param [in]    topOfProcStack  Process Stack Pointer value to set
 276:Drivers/CMSIS/Include/cmsis_gcc.h ****  */
ARM GAS  /tmp/ccfbgGae.s 			page 33


 277:Drivers/CMSIS/Include/cmsis_gcc.h **** __STATIC_FORCEINLINE void __set_PSP(uint32_t topOfProcStack)
 278:Drivers/CMSIS/Include/cmsis_gcc.h **** {
 279:Drivers/CMSIS/Include/cmsis_gcc.h ****   __ASM volatile ("MSR psp, %0" : : "r" (topOfProcStack) : );
 280:Drivers/CMSIS/Include/cmsis_gcc.h **** }
 281:Drivers/CMSIS/Include/cmsis_gcc.h **** 
 282:Drivers/CMSIS/Include/cmsis_gcc.h **** 
 283:Drivers/CMSIS/Include/cmsis_gcc.h **** #if (defined (__ARM_FEATURE_CMSE ) && (__ARM_FEATURE_CMSE == 3))
 284:Drivers/CMSIS/Include/cmsis_gcc.h **** /**
 285:Drivers/CMSIS/Include/cmsis_gcc.h ****   \brief   Set Process Stack Pointer (non-secure)
 286:Drivers/CMSIS/Include/cmsis_gcc.h ****   \details Assigns the given value to the non-secure Process Stack Pointer (PSP) when in secure sta
 287:Drivers/CMSIS/Include/cmsis_gcc.h ****   \param [in]    topOfProcStack  Process Stack Pointer value to set
 288:Drivers/CMSIS/Include/cmsis_gcc.h ****  */
 289:Drivers/CMSIS/Include/cmsis_gcc.h **** __STATIC_FORCEINLINE void __TZ_set_PSP_NS(uint32_t topOfProcStack)
 290:Drivers/CMSIS/Include/cmsis_gcc.h **** {
 291:Drivers/CMSIS/Include/cmsis_gcc.h ****   __ASM volatile ("MSR psp_ns, %0" : : "r" (topOfProcStack) : );
 292:Drivers/CMSIS/Include/cmsis_gcc.h **** }
 293:Drivers/CMSIS/Include/cmsis_gcc.h **** #endif
 294:Drivers/CMSIS/Include/cmsis_gcc.h **** 
 295:Drivers/CMSIS/Include/cmsis_gcc.h **** 
 296:Drivers/CMSIS/Include/cmsis_gcc.h **** /**
 297:Drivers/CMSIS/Include/cmsis_gcc.h ****   \brief   Get Main Stack Pointer
 298:Drivers/CMSIS/Include/cmsis_gcc.h ****   \details Returns the current value of the Main Stack Pointer (MSP).
 299:Drivers/CMSIS/Include/cmsis_gcc.h ****   \return               MSP Register value
 300:Drivers/CMSIS/Include/cmsis_gcc.h ****  */
 301:Drivers/CMSIS/Include/cmsis_gcc.h **** __STATIC_FORCEINLINE uint32_t __get_MSP(void)
 302:Drivers/CMSIS/Include/cmsis_gcc.h **** {
 303:Drivers/CMSIS/Include/cmsis_gcc.h ****   uint32_t result;
 304:Drivers/CMSIS/Include/cmsis_gcc.h **** 
 305:Drivers/CMSIS/Include/cmsis_gcc.h ****   __ASM volatile ("MRS %0, msp" : "=r" (result) );
 306:Drivers/CMSIS/Include/cmsis_gcc.h ****   return(result);
 307:Drivers/CMSIS/Include/cmsis_gcc.h **** }
 308:Drivers/CMSIS/Include/cmsis_gcc.h **** 
 309:Drivers/CMSIS/Include/cmsis_gcc.h **** 
 310:Drivers/CMSIS/Include/cmsis_gcc.h **** #if (defined (__ARM_FEATURE_CMSE ) && (__ARM_FEATURE_CMSE == 3))
 311:Drivers/CMSIS/Include/cmsis_gcc.h **** /**
 312:Drivers/CMSIS/Include/cmsis_gcc.h ****   \brief   Get Main Stack Pointer (non-secure)
 313:Drivers/CMSIS/Include/cmsis_gcc.h ****   \details Returns the current value of the non-secure Main Stack Pointer (MSP) when in secure stat
 314:Drivers/CMSIS/Include/cmsis_gcc.h ****   \return               MSP Register value
 315:Drivers/CMSIS/Include/cmsis_gcc.h ****  */
 316:Drivers/CMSIS/Include/cmsis_gcc.h **** __STATIC_FORCEINLINE uint32_t __TZ_get_MSP_NS(void)
 317:Drivers/CMSIS/Include/cmsis_gcc.h **** {
 318:Drivers/CMSIS/Include/cmsis_gcc.h ****   uint32_t result;
 319:Drivers/CMSIS/Include/cmsis_gcc.h **** 
 320:Drivers/CMSIS/Include/cmsis_gcc.h ****   __ASM volatile ("MRS %0, msp_ns" : "=r" (result) );
 321:Drivers/CMSIS/Include/cmsis_gcc.h ****   return(result);
 322:Drivers/CMSIS/Include/cmsis_gcc.h **** }
 323:Drivers/CMSIS/Include/cmsis_gcc.h **** #endif
 324:Drivers/CMSIS/Include/cmsis_gcc.h **** 
 325:Drivers/CMSIS/Include/cmsis_gcc.h **** 
 326:Drivers/CMSIS/Include/cmsis_gcc.h **** /**
 327:Drivers/CMSIS/Include/cmsis_gcc.h ****   \brief   Set Main Stack Pointer
 328:Drivers/CMSIS/Include/cmsis_gcc.h ****   \details Assigns the given value to the Main Stack Pointer (MSP).
 329:Drivers/CMSIS/Include/cmsis_gcc.h ****   \param [in]    topOfMainStack  Main Stack Pointer value to set
 330:Drivers/CMSIS/Include/cmsis_gcc.h ****  */
 331:Drivers/CMSIS/Include/cmsis_gcc.h **** __STATIC_FORCEINLINE void __set_MSP(uint32_t topOfMainStack)
 332:Drivers/CMSIS/Include/cmsis_gcc.h **** {
 333:Drivers/CMSIS/Include/cmsis_gcc.h ****   __ASM volatile ("MSR msp, %0" : : "r" (topOfMainStack) : );
ARM GAS  /tmp/ccfbgGae.s 			page 34


 334:Drivers/CMSIS/Include/cmsis_gcc.h **** }
 335:Drivers/CMSIS/Include/cmsis_gcc.h **** 
 336:Drivers/CMSIS/Include/cmsis_gcc.h **** 
 337:Drivers/CMSIS/Include/cmsis_gcc.h **** #if (defined (__ARM_FEATURE_CMSE ) && (__ARM_FEATURE_CMSE == 3))
 338:Drivers/CMSIS/Include/cmsis_gcc.h **** /**
 339:Drivers/CMSIS/Include/cmsis_gcc.h ****   \brief   Set Main Stack Pointer (non-secure)
 340:Drivers/CMSIS/Include/cmsis_gcc.h ****   \details Assigns the given value to the non-secure Main Stack Pointer (MSP) when in secure state.
 341:Drivers/CMSIS/Include/cmsis_gcc.h ****   \param [in]    topOfMainStack  Main Stack Pointer value to set
 342:Drivers/CMSIS/Include/cmsis_gcc.h ****  */
 343:Drivers/CMSIS/Include/cmsis_gcc.h **** __STATIC_FORCEINLINE void __TZ_set_MSP_NS(uint32_t topOfMainStack)
 344:Drivers/CMSIS/Include/cmsis_gcc.h **** {
 345:Drivers/CMSIS/Include/cmsis_gcc.h ****   __ASM volatile ("MSR msp_ns, %0" : : "r" (topOfMainStack) : );
 346:Drivers/CMSIS/Include/cmsis_gcc.h **** }
 347:Drivers/CMSIS/Include/cmsis_gcc.h **** #endif
 348:Drivers/CMSIS/Include/cmsis_gcc.h **** 
 349:Drivers/CMSIS/Include/cmsis_gcc.h **** 
 350:Drivers/CMSIS/Include/cmsis_gcc.h **** #if (defined (__ARM_FEATURE_CMSE ) && (__ARM_FEATURE_CMSE == 3))
 351:Drivers/CMSIS/Include/cmsis_gcc.h **** /**
 352:Drivers/CMSIS/Include/cmsis_gcc.h ****   \brief   Get Stack Pointer (non-secure)
 353:Drivers/CMSIS/Include/cmsis_gcc.h ****   \details Returns the current value of the non-secure Stack Pointer (SP) when in secure state.
 354:Drivers/CMSIS/Include/cmsis_gcc.h ****   \return               SP Register value
 355:Drivers/CMSIS/Include/cmsis_gcc.h ****  */
 356:Drivers/CMSIS/Include/cmsis_gcc.h **** __STATIC_FORCEINLINE uint32_t __TZ_get_SP_NS(void)
 357:Drivers/CMSIS/Include/cmsis_gcc.h **** {
 358:Drivers/CMSIS/Include/cmsis_gcc.h ****   uint32_t result;
 359:Drivers/CMSIS/Include/cmsis_gcc.h **** 
 360:Drivers/CMSIS/Include/cmsis_gcc.h ****   __ASM volatile ("MRS %0, sp_ns" : "=r" (result) );
 361:Drivers/CMSIS/Include/cmsis_gcc.h ****   return(result);
 362:Drivers/CMSIS/Include/cmsis_gcc.h **** }
 363:Drivers/CMSIS/Include/cmsis_gcc.h **** 
 364:Drivers/CMSIS/Include/cmsis_gcc.h **** 
 365:Drivers/CMSIS/Include/cmsis_gcc.h **** /**
 366:Drivers/CMSIS/Include/cmsis_gcc.h ****   \brief   Set Stack Pointer (non-secure)
 367:Drivers/CMSIS/Include/cmsis_gcc.h ****   \details Assigns the given value to the non-secure Stack Pointer (SP) when in secure state.
 368:Drivers/CMSIS/Include/cmsis_gcc.h ****   \param [in]    topOfStack  Stack Pointer value to set
 369:Drivers/CMSIS/Include/cmsis_gcc.h ****  */
 370:Drivers/CMSIS/Include/cmsis_gcc.h **** __STATIC_FORCEINLINE void __TZ_set_SP_NS(uint32_t topOfStack)
 371:Drivers/CMSIS/Include/cmsis_gcc.h **** {
 372:Drivers/CMSIS/Include/cmsis_gcc.h ****   __ASM volatile ("MSR sp_ns, %0" : : "r" (topOfStack) : );
 373:Drivers/CMSIS/Include/cmsis_gcc.h **** }
 374:Drivers/CMSIS/Include/cmsis_gcc.h **** #endif
 375:Drivers/CMSIS/Include/cmsis_gcc.h **** 
 376:Drivers/CMSIS/Include/cmsis_gcc.h **** 
 377:Drivers/CMSIS/Include/cmsis_gcc.h **** /**
 378:Drivers/CMSIS/Include/cmsis_gcc.h ****   \brief   Get Priority Mask
 379:Drivers/CMSIS/Include/cmsis_gcc.h ****   \details Returns the current state of the priority mask bit from the Priority Mask Register.
 380:Drivers/CMSIS/Include/cmsis_gcc.h ****   \return               Priority Mask value
 381:Drivers/CMSIS/Include/cmsis_gcc.h ****  */
 382:Drivers/CMSIS/Include/cmsis_gcc.h **** __STATIC_FORCEINLINE uint32_t __get_PRIMASK(void)
 383:Drivers/CMSIS/Include/cmsis_gcc.h **** {
 384:Drivers/CMSIS/Include/cmsis_gcc.h ****   uint32_t result;
 385:Drivers/CMSIS/Include/cmsis_gcc.h **** 
 386:Drivers/CMSIS/Include/cmsis_gcc.h ****   __ASM volatile ("MRS %0, primask" : "=r" (result) :: "memory");
 387:Drivers/CMSIS/Include/cmsis_gcc.h ****   return(result);
 388:Drivers/CMSIS/Include/cmsis_gcc.h **** }
 389:Drivers/CMSIS/Include/cmsis_gcc.h **** 
 390:Drivers/CMSIS/Include/cmsis_gcc.h **** 
ARM GAS  /tmp/ccfbgGae.s 			page 35


 391:Drivers/CMSIS/Include/cmsis_gcc.h **** #if (defined (__ARM_FEATURE_CMSE ) && (__ARM_FEATURE_CMSE == 3))
 392:Drivers/CMSIS/Include/cmsis_gcc.h **** /**
 393:Drivers/CMSIS/Include/cmsis_gcc.h ****   \brief   Get Priority Mask (non-secure)
 394:Drivers/CMSIS/Include/cmsis_gcc.h ****   \details Returns the current state of the non-secure priority mask bit from the Priority Mask Reg
 395:Drivers/CMSIS/Include/cmsis_gcc.h ****   \return               Priority Mask value
 396:Drivers/CMSIS/Include/cmsis_gcc.h ****  */
 397:Drivers/CMSIS/Include/cmsis_gcc.h **** __STATIC_FORCEINLINE uint32_t __TZ_get_PRIMASK_NS(void)
 398:Drivers/CMSIS/Include/cmsis_gcc.h **** {
 399:Drivers/CMSIS/Include/cmsis_gcc.h ****   uint32_t result;
 400:Drivers/CMSIS/Include/cmsis_gcc.h **** 
 401:Drivers/CMSIS/Include/cmsis_gcc.h ****   __ASM volatile ("MRS %0, primask_ns" : "=r" (result) :: "memory");
 402:Drivers/CMSIS/Include/cmsis_gcc.h ****   return(result);
 403:Drivers/CMSIS/Include/cmsis_gcc.h **** }
 404:Drivers/CMSIS/Include/cmsis_gcc.h **** #endif
 405:Drivers/CMSIS/Include/cmsis_gcc.h **** 
 406:Drivers/CMSIS/Include/cmsis_gcc.h **** 
 407:Drivers/CMSIS/Include/cmsis_gcc.h **** /**
 408:Drivers/CMSIS/Include/cmsis_gcc.h ****   \brief   Set Priority Mask
 409:Drivers/CMSIS/Include/cmsis_gcc.h ****   \details Assigns the given value to the Priority Mask Register.
 410:Drivers/CMSIS/Include/cmsis_gcc.h ****   \param [in]    priMask  Priority Mask
 411:Drivers/CMSIS/Include/cmsis_gcc.h ****  */
 412:Drivers/CMSIS/Include/cmsis_gcc.h **** __STATIC_FORCEINLINE void __set_PRIMASK(uint32_t priMask)
 413:Drivers/CMSIS/Include/cmsis_gcc.h **** {
 414:Drivers/CMSIS/Include/cmsis_gcc.h ****   __ASM volatile ("MSR primask, %0" : : "r" (priMask) : "memory");
 415:Drivers/CMSIS/Include/cmsis_gcc.h **** }
 416:Drivers/CMSIS/Include/cmsis_gcc.h **** 
 417:Drivers/CMSIS/Include/cmsis_gcc.h **** 
 418:Drivers/CMSIS/Include/cmsis_gcc.h **** #if (defined (__ARM_FEATURE_CMSE ) && (__ARM_FEATURE_CMSE == 3))
 419:Drivers/CMSIS/Include/cmsis_gcc.h **** /**
 420:Drivers/CMSIS/Include/cmsis_gcc.h ****   \brief   Set Priority Mask (non-secure)
 421:Drivers/CMSIS/Include/cmsis_gcc.h ****   \details Assigns the given value to the non-secure Priority Mask Register when in secure state.
 422:Drivers/CMSIS/Include/cmsis_gcc.h ****   \param [in]    priMask  Priority Mask
 423:Drivers/CMSIS/Include/cmsis_gcc.h ****  */
 424:Drivers/CMSIS/Include/cmsis_gcc.h **** __STATIC_FORCEINLINE void __TZ_set_PRIMASK_NS(uint32_t priMask)
 425:Drivers/CMSIS/Include/cmsis_gcc.h **** {
 426:Drivers/CMSIS/Include/cmsis_gcc.h ****   __ASM volatile ("MSR primask_ns, %0" : : "r" (priMask) : "memory");
 427:Drivers/CMSIS/Include/cmsis_gcc.h **** }
 428:Drivers/CMSIS/Include/cmsis_gcc.h **** #endif
 429:Drivers/CMSIS/Include/cmsis_gcc.h **** 
 430:Drivers/CMSIS/Include/cmsis_gcc.h **** 
 431:Drivers/CMSIS/Include/cmsis_gcc.h **** #if ((defined (__ARM_ARCH_7M__      ) && (__ARM_ARCH_7M__      == 1)) || \
 432:Drivers/CMSIS/Include/cmsis_gcc.h ****      (defined (__ARM_ARCH_7EM__     ) && (__ARM_ARCH_7EM__     == 1)) || \
 433:Drivers/CMSIS/Include/cmsis_gcc.h ****      (defined (__ARM_ARCH_8M_MAIN__ ) && (__ARM_ARCH_8M_MAIN__ == 1))    )
 434:Drivers/CMSIS/Include/cmsis_gcc.h **** /**
 435:Drivers/CMSIS/Include/cmsis_gcc.h ****   \brief   Enable FIQ
 436:Drivers/CMSIS/Include/cmsis_gcc.h ****   \details Enables FIQ interrupts by clearing the F-bit in the CPSR.
 437:Drivers/CMSIS/Include/cmsis_gcc.h ****            Can only be executed in Privileged modes.
 438:Drivers/CMSIS/Include/cmsis_gcc.h ****  */
 439:Drivers/CMSIS/Include/cmsis_gcc.h **** __STATIC_FORCEINLINE void __enable_fault_irq(void)
 440:Drivers/CMSIS/Include/cmsis_gcc.h **** {
 441:Drivers/CMSIS/Include/cmsis_gcc.h ****   __ASM volatile ("cpsie f" : : : "memory");
 442:Drivers/CMSIS/Include/cmsis_gcc.h **** }
 443:Drivers/CMSIS/Include/cmsis_gcc.h **** 
 444:Drivers/CMSIS/Include/cmsis_gcc.h **** 
 445:Drivers/CMSIS/Include/cmsis_gcc.h **** /**
 446:Drivers/CMSIS/Include/cmsis_gcc.h ****   \brief   Disable FIQ
 447:Drivers/CMSIS/Include/cmsis_gcc.h ****   \details Disables FIQ interrupts by setting the F-bit in the CPSR.
ARM GAS  /tmp/ccfbgGae.s 			page 36


 448:Drivers/CMSIS/Include/cmsis_gcc.h ****            Can only be executed in Privileged modes.
 449:Drivers/CMSIS/Include/cmsis_gcc.h ****  */
 450:Drivers/CMSIS/Include/cmsis_gcc.h **** __STATIC_FORCEINLINE void __disable_fault_irq(void)
 451:Drivers/CMSIS/Include/cmsis_gcc.h **** {
 452:Drivers/CMSIS/Include/cmsis_gcc.h ****   __ASM volatile ("cpsid f" : : : "memory");
 453:Drivers/CMSIS/Include/cmsis_gcc.h **** }
 454:Drivers/CMSIS/Include/cmsis_gcc.h **** 
 455:Drivers/CMSIS/Include/cmsis_gcc.h **** 
 456:Drivers/CMSIS/Include/cmsis_gcc.h **** /**
 457:Drivers/CMSIS/Include/cmsis_gcc.h ****   \brief   Get Base Priority
 458:Drivers/CMSIS/Include/cmsis_gcc.h ****   \details Returns the current value of the Base Priority register.
 459:Drivers/CMSIS/Include/cmsis_gcc.h ****   \return               Base Priority register value
 460:Drivers/CMSIS/Include/cmsis_gcc.h ****  */
 461:Drivers/CMSIS/Include/cmsis_gcc.h **** __STATIC_FORCEINLINE uint32_t __get_BASEPRI(void)
 462:Drivers/CMSIS/Include/cmsis_gcc.h **** {
 463:Drivers/CMSIS/Include/cmsis_gcc.h ****   uint32_t result;
 464:Drivers/CMSIS/Include/cmsis_gcc.h **** 
 465:Drivers/CMSIS/Include/cmsis_gcc.h ****   __ASM volatile ("MRS %0, basepri" : "=r" (result) );
 466:Drivers/CMSIS/Include/cmsis_gcc.h ****   return(result);
 467:Drivers/CMSIS/Include/cmsis_gcc.h **** }
 468:Drivers/CMSIS/Include/cmsis_gcc.h **** 
 469:Drivers/CMSIS/Include/cmsis_gcc.h **** 
 470:Drivers/CMSIS/Include/cmsis_gcc.h **** #if (defined (__ARM_FEATURE_CMSE ) && (__ARM_FEATURE_CMSE == 3))
 471:Drivers/CMSIS/Include/cmsis_gcc.h **** /**
 472:Drivers/CMSIS/Include/cmsis_gcc.h ****   \brief   Get Base Priority (non-secure)
 473:Drivers/CMSIS/Include/cmsis_gcc.h ****   \details Returns the current value of the non-secure Base Priority register when in secure state.
 474:Drivers/CMSIS/Include/cmsis_gcc.h ****   \return               Base Priority register value
 475:Drivers/CMSIS/Include/cmsis_gcc.h ****  */
 476:Drivers/CMSIS/Include/cmsis_gcc.h **** __STATIC_FORCEINLINE uint32_t __TZ_get_BASEPRI_NS(void)
 477:Drivers/CMSIS/Include/cmsis_gcc.h **** {
 478:Drivers/CMSIS/Include/cmsis_gcc.h ****   uint32_t result;
 479:Drivers/CMSIS/Include/cmsis_gcc.h **** 
 480:Drivers/CMSIS/Include/cmsis_gcc.h ****   __ASM volatile ("MRS %0, basepri_ns" : "=r" (result) );
 481:Drivers/CMSIS/Include/cmsis_gcc.h ****   return(result);
 482:Drivers/CMSIS/Include/cmsis_gcc.h **** }
 483:Drivers/CMSIS/Include/cmsis_gcc.h **** #endif
 484:Drivers/CMSIS/Include/cmsis_gcc.h **** 
 485:Drivers/CMSIS/Include/cmsis_gcc.h **** 
 486:Drivers/CMSIS/Include/cmsis_gcc.h **** /**
 487:Drivers/CMSIS/Include/cmsis_gcc.h ****   \brief   Set Base Priority
 488:Drivers/CMSIS/Include/cmsis_gcc.h ****   \details Assigns the given value to the Base Priority register.
 489:Drivers/CMSIS/Include/cmsis_gcc.h ****   \param [in]    basePri  Base Priority value to set
 490:Drivers/CMSIS/Include/cmsis_gcc.h ****  */
 491:Drivers/CMSIS/Include/cmsis_gcc.h **** __STATIC_FORCEINLINE void __set_BASEPRI(uint32_t basePri)
 492:Drivers/CMSIS/Include/cmsis_gcc.h **** {
 493:Drivers/CMSIS/Include/cmsis_gcc.h ****   __ASM volatile ("MSR basepri, %0" : : "r" (basePri) : "memory");
 494:Drivers/CMSIS/Include/cmsis_gcc.h **** }
 495:Drivers/CMSIS/Include/cmsis_gcc.h **** 
 496:Drivers/CMSIS/Include/cmsis_gcc.h **** 
 497:Drivers/CMSIS/Include/cmsis_gcc.h **** #if (defined (__ARM_FEATURE_CMSE ) && (__ARM_FEATURE_CMSE == 3))
 498:Drivers/CMSIS/Include/cmsis_gcc.h **** /**
 499:Drivers/CMSIS/Include/cmsis_gcc.h ****   \brief   Set Base Priority (non-secure)
 500:Drivers/CMSIS/Include/cmsis_gcc.h ****   \details Assigns the given value to the non-secure Base Priority register when in secure state.
 501:Drivers/CMSIS/Include/cmsis_gcc.h ****   \param [in]    basePri  Base Priority value to set
 502:Drivers/CMSIS/Include/cmsis_gcc.h ****  */
 503:Drivers/CMSIS/Include/cmsis_gcc.h **** __STATIC_FORCEINLINE void __TZ_set_BASEPRI_NS(uint32_t basePri)
 504:Drivers/CMSIS/Include/cmsis_gcc.h **** {
ARM GAS  /tmp/ccfbgGae.s 			page 37


 505:Drivers/CMSIS/Include/cmsis_gcc.h ****   __ASM volatile ("MSR basepri_ns, %0" : : "r" (basePri) : "memory");
 506:Drivers/CMSIS/Include/cmsis_gcc.h **** }
 507:Drivers/CMSIS/Include/cmsis_gcc.h **** #endif
 508:Drivers/CMSIS/Include/cmsis_gcc.h **** 
 509:Drivers/CMSIS/Include/cmsis_gcc.h **** 
 510:Drivers/CMSIS/Include/cmsis_gcc.h **** /**
 511:Drivers/CMSIS/Include/cmsis_gcc.h ****   \brief   Set Base Priority with condition
 512:Drivers/CMSIS/Include/cmsis_gcc.h ****   \details Assigns the given value to the Base Priority register only if BASEPRI masking is disable
 513:Drivers/CMSIS/Include/cmsis_gcc.h ****            or the new value increases the BASEPRI priority level.
 514:Drivers/CMSIS/Include/cmsis_gcc.h ****   \param [in]    basePri  Base Priority value to set
 515:Drivers/CMSIS/Include/cmsis_gcc.h ****  */
 516:Drivers/CMSIS/Include/cmsis_gcc.h **** __STATIC_FORCEINLINE void __set_BASEPRI_MAX(uint32_t basePri)
 517:Drivers/CMSIS/Include/cmsis_gcc.h **** {
 518:Drivers/CMSIS/Include/cmsis_gcc.h ****   __ASM volatile ("MSR basepri_max, %0" : : "r" (basePri) : "memory");
 519:Drivers/CMSIS/Include/cmsis_gcc.h **** }
 520:Drivers/CMSIS/Include/cmsis_gcc.h **** 
 521:Drivers/CMSIS/Include/cmsis_gcc.h **** 
 522:Drivers/CMSIS/Include/cmsis_gcc.h **** /**
 523:Drivers/CMSIS/Include/cmsis_gcc.h ****   \brief   Get Fault Mask
 524:Drivers/CMSIS/Include/cmsis_gcc.h ****   \details Returns the current value of the Fault Mask register.
 525:Drivers/CMSIS/Include/cmsis_gcc.h ****   \return               Fault Mask register value
 526:Drivers/CMSIS/Include/cmsis_gcc.h ****  */
 527:Drivers/CMSIS/Include/cmsis_gcc.h **** __STATIC_FORCEINLINE uint32_t __get_FAULTMASK(void)
 528:Drivers/CMSIS/Include/cmsis_gcc.h **** {
 529:Drivers/CMSIS/Include/cmsis_gcc.h ****   uint32_t result;
 530:Drivers/CMSIS/Include/cmsis_gcc.h **** 
 531:Drivers/CMSIS/Include/cmsis_gcc.h ****   __ASM volatile ("MRS %0, faultmask" : "=r" (result) );
 532:Drivers/CMSIS/Include/cmsis_gcc.h ****   return(result);
 533:Drivers/CMSIS/Include/cmsis_gcc.h **** }
 534:Drivers/CMSIS/Include/cmsis_gcc.h **** 
 535:Drivers/CMSIS/Include/cmsis_gcc.h **** 
 536:Drivers/CMSIS/Include/cmsis_gcc.h **** #if (defined (__ARM_FEATURE_CMSE ) && (__ARM_FEATURE_CMSE == 3))
 537:Drivers/CMSIS/Include/cmsis_gcc.h **** /**
 538:Drivers/CMSIS/Include/cmsis_gcc.h ****   \brief   Get Fault Mask (non-secure)
 539:Drivers/CMSIS/Include/cmsis_gcc.h ****   \details Returns the current value of the non-secure Fault Mask register when in secure state.
 540:Drivers/CMSIS/Include/cmsis_gcc.h ****   \return               Fault Mask register value
 541:Drivers/CMSIS/Include/cmsis_gcc.h ****  */
 542:Drivers/CMSIS/Include/cmsis_gcc.h **** __STATIC_FORCEINLINE uint32_t __TZ_get_FAULTMASK_NS(void)
 543:Drivers/CMSIS/Include/cmsis_gcc.h **** {
 544:Drivers/CMSIS/Include/cmsis_gcc.h ****   uint32_t result;
 545:Drivers/CMSIS/Include/cmsis_gcc.h **** 
 546:Drivers/CMSIS/Include/cmsis_gcc.h ****   __ASM volatile ("MRS %0, faultmask_ns" : "=r" (result) );
 547:Drivers/CMSIS/Include/cmsis_gcc.h ****   return(result);
 548:Drivers/CMSIS/Include/cmsis_gcc.h **** }
 549:Drivers/CMSIS/Include/cmsis_gcc.h **** #endif
 550:Drivers/CMSIS/Include/cmsis_gcc.h **** 
 551:Drivers/CMSIS/Include/cmsis_gcc.h **** 
 552:Drivers/CMSIS/Include/cmsis_gcc.h **** /**
 553:Drivers/CMSIS/Include/cmsis_gcc.h ****   \brief   Set Fault Mask
 554:Drivers/CMSIS/Include/cmsis_gcc.h ****   \details Assigns the given value to the Fault Mask register.
 555:Drivers/CMSIS/Include/cmsis_gcc.h ****   \param [in]    faultMask  Fault Mask value to set
 556:Drivers/CMSIS/Include/cmsis_gcc.h ****  */
 557:Drivers/CMSIS/Include/cmsis_gcc.h **** __STATIC_FORCEINLINE void __set_FAULTMASK(uint32_t faultMask)
 558:Drivers/CMSIS/Include/cmsis_gcc.h **** {
 559:Drivers/CMSIS/Include/cmsis_gcc.h ****   __ASM volatile ("MSR faultmask, %0" : : "r" (faultMask) : "memory");
 560:Drivers/CMSIS/Include/cmsis_gcc.h **** }
 561:Drivers/CMSIS/Include/cmsis_gcc.h **** 
ARM GAS  /tmp/ccfbgGae.s 			page 38


 562:Drivers/CMSIS/Include/cmsis_gcc.h **** 
 563:Drivers/CMSIS/Include/cmsis_gcc.h **** #if (defined (__ARM_FEATURE_CMSE ) && (__ARM_FEATURE_CMSE == 3))
 564:Drivers/CMSIS/Include/cmsis_gcc.h **** /**
 565:Drivers/CMSIS/Include/cmsis_gcc.h ****   \brief   Set Fault Mask (non-secure)
 566:Drivers/CMSIS/Include/cmsis_gcc.h ****   \details Assigns the given value to the non-secure Fault Mask register when in secure state.
 567:Drivers/CMSIS/Include/cmsis_gcc.h ****   \param [in]    faultMask  Fault Mask value to set
 568:Drivers/CMSIS/Include/cmsis_gcc.h ****  */
 569:Drivers/CMSIS/Include/cmsis_gcc.h **** __STATIC_FORCEINLINE void __TZ_set_FAULTMASK_NS(uint32_t faultMask)
 570:Drivers/CMSIS/Include/cmsis_gcc.h **** {
 571:Drivers/CMSIS/Include/cmsis_gcc.h ****   __ASM volatile ("MSR faultmask_ns, %0" : : "r" (faultMask) : "memory");
 572:Drivers/CMSIS/Include/cmsis_gcc.h **** }
 573:Drivers/CMSIS/Include/cmsis_gcc.h **** #endif
 574:Drivers/CMSIS/Include/cmsis_gcc.h **** 
 575:Drivers/CMSIS/Include/cmsis_gcc.h **** #endif /* ((defined (__ARM_ARCH_7M__      ) && (__ARM_ARCH_7M__      == 1)) || \
 576:Drivers/CMSIS/Include/cmsis_gcc.h ****            (defined (__ARM_ARCH_7EM__     ) && (__ARM_ARCH_7EM__     == 1)) || \
 577:Drivers/CMSIS/Include/cmsis_gcc.h ****            (defined (__ARM_ARCH_8M_MAIN__ ) && (__ARM_ARCH_8M_MAIN__ == 1))    ) */
 578:Drivers/CMSIS/Include/cmsis_gcc.h **** 
 579:Drivers/CMSIS/Include/cmsis_gcc.h **** 
 580:Drivers/CMSIS/Include/cmsis_gcc.h **** #if ((defined (__ARM_ARCH_8M_MAIN__ ) && (__ARM_ARCH_8M_MAIN__ == 1)) || \
 581:Drivers/CMSIS/Include/cmsis_gcc.h ****      (defined (__ARM_ARCH_8M_BASE__ ) && (__ARM_ARCH_8M_BASE__ == 1))    )
 582:Drivers/CMSIS/Include/cmsis_gcc.h **** 
 583:Drivers/CMSIS/Include/cmsis_gcc.h **** /**
 584:Drivers/CMSIS/Include/cmsis_gcc.h ****   \brief   Get Process Stack Pointer Limit
 585:Drivers/CMSIS/Include/cmsis_gcc.h ****   Devices without ARMv8-M Main Extensions (i.e. Cortex-M23) lack the non-secure
 586:Drivers/CMSIS/Include/cmsis_gcc.h ****   Stack Pointer Limit register hence zero is returned always in non-secure
 587:Drivers/CMSIS/Include/cmsis_gcc.h ****   mode.
 588:Drivers/CMSIS/Include/cmsis_gcc.h ****   
 589:Drivers/CMSIS/Include/cmsis_gcc.h ****   \details Returns the current value of the Process Stack Pointer Limit (PSPLIM).
 590:Drivers/CMSIS/Include/cmsis_gcc.h ****   \return               PSPLIM Register value
 591:Drivers/CMSIS/Include/cmsis_gcc.h ****  */
 592:Drivers/CMSIS/Include/cmsis_gcc.h **** __STATIC_FORCEINLINE uint32_t __get_PSPLIM(void)
 593:Drivers/CMSIS/Include/cmsis_gcc.h **** {
 594:Drivers/CMSIS/Include/cmsis_gcc.h **** #if (!(defined (__ARM_ARCH_8M_MAIN__ ) && (__ARM_ARCH_8M_MAIN__ == 1)) && \
 595:Drivers/CMSIS/Include/cmsis_gcc.h ****     (!defined (__ARM_FEATURE_CMSE) || (__ARM_FEATURE_CMSE < 3)))
 596:Drivers/CMSIS/Include/cmsis_gcc.h ****     // without main extensions, the non-secure PSPLIM is RAZ/WI
 597:Drivers/CMSIS/Include/cmsis_gcc.h ****   return 0U;
 598:Drivers/CMSIS/Include/cmsis_gcc.h **** #else
 599:Drivers/CMSIS/Include/cmsis_gcc.h ****   uint32_t result;
 600:Drivers/CMSIS/Include/cmsis_gcc.h ****   __ASM volatile ("MRS %0, psplim"  : "=r" (result) );
 601:Drivers/CMSIS/Include/cmsis_gcc.h ****   return result;
 602:Drivers/CMSIS/Include/cmsis_gcc.h **** #endif
 603:Drivers/CMSIS/Include/cmsis_gcc.h **** }
 604:Drivers/CMSIS/Include/cmsis_gcc.h **** 
 605:Drivers/CMSIS/Include/cmsis_gcc.h **** #if (defined (__ARM_FEATURE_CMSE) && (__ARM_FEATURE_CMSE == 3))
 606:Drivers/CMSIS/Include/cmsis_gcc.h **** /**
 607:Drivers/CMSIS/Include/cmsis_gcc.h ****   \brief   Get Process Stack Pointer Limit (non-secure)
 608:Drivers/CMSIS/Include/cmsis_gcc.h ****   Devices without ARMv8-M Main Extensions (i.e. Cortex-M23) lack the non-secure
 609:Drivers/CMSIS/Include/cmsis_gcc.h ****   Stack Pointer Limit register hence zero is returned always.
 610:Drivers/CMSIS/Include/cmsis_gcc.h **** 
 611:Drivers/CMSIS/Include/cmsis_gcc.h ****   \details Returns the current value of the non-secure Process Stack Pointer Limit (PSPLIM) when in
 612:Drivers/CMSIS/Include/cmsis_gcc.h ****   \return               PSPLIM Register value
 613:Drivers/CMSIS/Include/cmsis_gcc.h ****  */
 614:Drivers/CMSIS/Include/cmsis_gcc.h **** __STATIC_FORCEINLINE uint32_t __TZ_get_PSPLIM_NS(void)
 615:Drivers/CMSIS/Include/cmsis_gcc.h **** {
 616:Drivers/CMSIS/Include/cmsis_gcc.h **** #if (!(defined (__ARM_ARCH_8M_MAIN__ ) && (__ARM_ARCH_8M_MAIN__ == 1)))
 617:Drivers/CMSIS/Include/cmsis_gcc.h ****   // without main extensions, the non-secure PSPLIM is RAZ/WI
 618:Drivers/CMSIS/Include/cmsis_gcc.h ****   return 0U;
ARM GAS  /tmp/ccfbgGae.s 			page 39


 619:Drivers/CMSIS/Include/cmsis_gcc.h **** #else
 620:Drivers/CMSIS/Include/cmsis_gcc.h ****   uint32_t result;
 621:Drivers/CMSIS/Include/cmsis_gcc.h ****   __ASM volatile ("MRS %0, psplim_ns"  : "=r" (result) );
 622:Drivers/CMSIS/Include/cmsis_gcc.h ****   return result;
 623:Drivers/CMSIS/Include/cmsis_gcc.h **** #endif
 624:Drivers/CMSIS/Include/cmsis_gcc.h **** }
 625:Drivers/CMSIS/Include/cmsis_gcc.h **** #endif
 626:Drivers/CMSIS/Include/cmsis_gcc.h **** 
 627:Drivers/CMSIS/Include/cmsis_gcc.h **** 
 628:Drivers/CMSIS/Include/cmsis_gcc.h **** /**
 629:Drivers/CMSIS/Include/cmsis_gcc.h ****   \brief   Set Process Stack Pointer Limit
 630:Drivers/CMSIS/Include/cmsis_gcc.h ****   Devices without ARMv8-M Main Extensions (i.e. Cortex-M23) lack the non-secure
 631:Drivers/CMSIS/Include/cmsis_gcc.h ****   Stack Pointer Limit register hence the write is silently ignored in non-secure
 632:Drivers/CMSIS/Include/cmsis_gcc.h ****   mode.
 633:Drivers/CMSIS/Include/cmsis_gcc.h ****   
 634:Drivers/CMSIS/Include/cmsis_gcc.h ****   \details Assigns the given value to the Process Stack Pointer Limit (PSPLIM).
 635:Drivers/CMSIS/Include/cmsis_gcc.h ****   \param [in]    ProcStackPtrLimit  Process Stack Pointer Limit value to set
 636:Drivers/CMSIS/Include/cmsis_gcc.h ****  */
 637:Drivers/CMSIS/Include/cmsis_gcc.h **** __STATIC_FORCEINLINE void __set_PSPLIM(uint32_t ProcStackPtrLimit)
 638:Drivers/CMSIS/Include/cmsis_gcc.h **** {
 639:Drivers/CMSIS/Include/cmsis_gcc.h **** #if (!(defined (__ARM_ARCH_8M_MAIN__ ) && (__ARM_ARCH_8M_MAIN__ == 1)) && \
 640:Drivers/CMSIS/Include/cmsis_gcc.h ****     (!defined (__ARM_FEATURE_CMSE) || (__ARM_FEATURE_CMSE < 3)))
 641:Drivers/CMSIS/Include/cmsis_gcc.h ****   // without main extensions, the non-secure PSPLIM is RAZ/WI
 642:Drivers/CMSIS/Include/cmsis_gcc.h ****   (void)ProcStackPtrLimit;
 643:Drivers/CMSIS/Include/cmsis_gcc.h **** #else
 644:Drivers/CMSIS/Include/cmsis_gcc.h ****   __ASM volatile ("MSR psplim, %0" : : "r" (ProcStackPtrLimit));
 645:Drivers/CMSIS/Include/cmsis_gcc.h **** #endif
 646:Drivers/CMSIS/Include/cmsis_gcc.h **** }
 647:Drivers/CMSIS/Include/cmsis_gcc.h **** 
 648:Drivers/CMSIS/Include/cmsis_gcc.h **** 
 649:Drivers/CMSIS/Include/cmsis_gcc.h **** #if (defined (__ARM_FEATURE_CMSE  ) && (__ARM_FEATURE_CMSE   == 3))
 650:Drivers/CMSIS/Include/cmsis_gcc.h **** /**
 651:Drivers/CMSIS/Include/cmsis_gcc.h ****   \brief   Set Process Stack Pointer (non-secure)
 652:Drivers/CMSIS/Include/cmsis_gcc.h ****   Devices without ARMv8-M Main Extensions (i.e. Cortex-M23) lack the non-secure
 653:Drivers/CMSIS/Include/cmsis_gcc.h ****   Stack Pointer Limit register hence the write is silently ignored.
 654:Drivers/CMSIS/Include/cmsis_gcc.h **** 
 655:Drivers/CMSIS/Include/cmsis_gcc.h ****   \details Assigns the given value to the non-secure Process Stack Pointer Limit (PSPLIM) when in s
 656:Drivers/CMSIS/Include/cmsis_gcc.h ****   \param [in]    ProcStackPtrLimit  Process Stack Pointer Limit value to set
 657:Drivers/CMSIS/Include/cmsis_gcc.h ****  */
 658:Drivers/CMSIS/Include/cmsis_gcc.h **** __STATIC_FORCEINLINE void __TZ_set_PSPLIM_NS(uint32_t ProcStackPtrLimit)
 659:Drivers/CMSIS/Include/cmsis_gcc.h **** {
 660:Drivers/CMSIS/Include/cmsis_gcc.h **** #if (!(defined (__ARM_ARCH_8M_MAIN__ ) && (__ARM_ARCH_8M_MAIN__ == 1)))
 661:Drivers/CMSIS/Include/cmsis_gcc.h ****   // without main extensions, the non-secure PSPLIM is RAZ/WI
 662:Drivers/CMSIS/Include/cmsis_gcc.h ****   (void)ProcStackPtrLimit;
 663:Drivers/CMSIS/Include/cmsis_gcc.h **** #else
 664:Drivers/CMSIS/Include/cmsis_gcc.h ****   __ASM volatile ("MSR psplim_ns, %0\n" : : "r" (ProcStackPtrLimit));
 665:Drivers/CMSIS/Include/cmsis_gcc.h **** #endif
 666:Drivers/CMSIS/Include/cmsis_gcc.h **** }
 667:Drivers/CMSIS/Include/cmsis_gcc.h **** #endif
 668:Drivers/CMSIS/Include/cmsis_gcc.h **** 
 669:Drivers/CMSIS/Include/cmsis_gcc.h **** 
 670:Drivers/CMSIS/Include/cmsis_gcc.h **** /**
 671:Drivers/CMSIS/Include/cmsis_gcc.h ****   \brief   Get Main Stack Pointer Limit
 672:Drivers/CMSIS/Include/cmsis_gcc.h ****   Devices without ARMv8-M Main Extensions (i.e. Cortex-M23) lack the non-secure
 673:Drivers/CMSIS/Include/cmsis_gcc.h ****   Stack Pointer Limit register hence zero is returned always in non-secure
 674:Drivers/CMSIS/Include/cmsis_gcc.h ****   mode.
 675:Drivers/CMSIS/Include/cmsis_gcc.h **** 
ARM GAS  /tmp/ccfbgGae.s 			page 40


 676:Drivers/CMSIS/Include/cmsis_gcc.h ****   \details Returns the current value of the Main Stack Pointer Limit (MSPLIM).
 677:Drivers/CMSIS/Include/cmsis_gcc.h ****   \return               MSPLIM Register value
 678:Drivers/CMSIS/Include/cmsis_gcc.h ****  */
 679:Drivers/CMSIS/Include/cmsis_gcc.h **** __STATIC_FORCEINLINE uint32_t __get_MSPLIM(void)
 680:Drivers/CMSIS/Include/cmsis_gcc.h **** {
 681:Drivers/CMSIS/Include/cmsis_gcc.h **** #if (!(defined (__ARM_ARCH_8M_MAIN__ ) && (__ARM_ARCH_8M_MAIN__ == 1)) && \
 682:Drivers/CMSIS/Include/cmsis_gcc.h ****     (!defined (__ARM_FEATURE_CMSE) || (__ARM_FEATURE_CMSE < 3)))
 683:Drivers/CMSIS/Include/cmsis_gcc.h ****   // without main extensions, the non-secure MSPLIM is RAZ/WI
 684:Drivers/CMSIS/Include/cmsis_gcc.h ****   return 0U;
 685:Drivers/CMSIS/Include/cmsis_gcc.h **** #else
 686:Drivers/CMSIS/Include/cmsis_gcc.h ****   uint32_t result;
 687:Drivers/CMSIS/Include/cmsis_gcc.h ****   __ASM volatile ("MRS %0, msplim" : "=r" (result) );
 688:Drivers/CMSIS/Include/cmsis_gcc.h ****   return result;
 689:Drivers/CMSIS/Include/cmsis_gcc.h **** #endif
 690:Drivers/CMSIS/Include/cmsis_gcc.h **** }
 691:Drivers/CMSIS/Include/cmsis_gcc.h **** 
 692:Drivers/CMSIS/Include/cmsis_gcc.h **** 
 693:Drivers/CMSIS/Include/cmsis_gcc.h **** #if (defined (__ARM_FEATURE_CMSE  ) && (__ARM_FEATURE_CMSE   == 3))
 694:Drivers/CMSIS/Include/cmsis_gcc.h **** /**
 695:Drivers/CMSIS/Include/cmsis_gcc.h ****   \brief   Get Main Stack Pointer Limit (non-secure)
 696:Drivers/CMSIS/Include/cmsis_gcc.h ****   Devices without ARMv8-M Main Extensions (i.e. Cortex-M23) lack the non-secure
 697:Drivers/CMSIS/Include/cmsis_gcc.h ****   Stack Pointer Limit register hence zero is returned always.
 698:Drivers/CMSIS/Include/cmsis_gcc.h **** 
 699:Drivers/CMSIS/Include/cmsis_gcc.h ****   \details Returns the current value of the non-secure Main Stack Pointer Limit(MSPLIM) when in sec
 700:Drivers/CMSIS/Include/cmsis_gcc.h ****   \return               MSPLIM Register value
 701:Drivers/CMSIS/Include/cmsis_gcc.h ****  */
 702:Drivers/CMSIS/Include/cmsis_gcc.h **** __STATIC_FORCEINLINE uint32_t __TZ_get_MSPLIM_NS(void)
 703:Drivers/CMSIS/Include/cmsis_gcc.h **** {
 704:Drivers/CMSIS/Include/cmsis_gcc.h **** #if (!(defined (__ARM_ARCH_8M_MAIN__ ) && (__ARM_ARCH_8M_MAIN__ == 1)))
 705:Drivers/CMSIS/Include/cmsis_gcc.h ****   // without main extensions, the non-secure MSPLIM is RAZ/WI
 706:Drivers/CMSIS/Include/cmsis_gcc.h ****   return 0U;
 707:Drivers/CMSIS/Include/cmsis_gcc.h **** #else
 708:Drivers/CMSIS/Include/cmsis_gcc.h ****   uint32_t result;
 709:Drivers/CMSIS/Include/cmsis_gcc.h ****   __ASM volatile ("MRS %0, msplim_ns" : "=r" (result) );
 710:Drivers/CMSIS/Include/cmsis_gcc.h ****   return result;
 711:Drivers/CMSIS/Include/cmsis_gcc.h **** #endif
 712:Drivers/CMSIS/Include/cmsis_gcc.h **** }
 713:Drivers/CMSIS/Include/cmsis_gcc.h **** #endif
 714:Drivers/CMSIS/Include/cmsis_gcc.h **** 
 715:Drivers/CMSIS/Include/cmsis_gcc.h **** 
 716:Drivers/CMSIS/Include/cmsis_gcc.h **** /**
 717:Drivers/CMSIS/Include/cmsis_gcc.h ****   \brief   Set Main Stack Pointer Limit
 718:Drivers/CMSIS/Include/cmsis_gcc.h ****   Devices without ARMv8-M Main Extensions (i.e. Cortex-M23) lack the non-secure
 719:Drivers/CMSIS/Include/cmsis_gcc.h ****   Stack Pointer Limit register hence the write is silently ignored in non-secure
 720:Drivers/CMSIS/Include/cmsis_gcc.h ****   mode.
 721:Drivers/CMSIS/Include/cmsis_gcc.h **** 
 722:Drivers/CMSIS/Include/cmsis_gcc.h ****   \details Assigns the given value to the Main Stack Pointer Limit (MSPLIM).
 723:Drivers/CMSIS/Include/cmsis_gcc.h ****   \param [in]    MainStackPtrLimit  Main Stack Pointer Limit value to set
 724:Drivers/CMSIS/Include/cmsis_gcc.h ****  */
 725:Drivers/CMSIS/Include/cmsis_gcc.h **** __STATIC_FORCEINLINE void __set_MSPLIM(uint32_t MainStackPtrLimit)
 726:Drivers/CMSIS/Include/cmsis_gcc.h **** {
 727:Drivers/CMSIS/Include/cmsis_gcc.h **** #if (!(defined (__ARM_ARCH_8M_MAIN__ ) && (__ARM_ARCH_8M_MAIN__ == 1)) && \
 728:Drivers/CMSIS/Include/cmsis_gcc.h ****     (!defined (__ARM_FEATURE_CMSE) || (__ARM_FEATURE_CMSE < 3)))
 729:Drivers/CMSIS/Include/cmsis_gcc.h ****   // without main extensions, the non-secure MSPLIM is RAZ/WI
 730:Drivers/CMSIS/Include/cmsis_gcc.h ****   (void)MainStackPtrLimit;
 731:Drivers/CMSIS/Include/cmsis_gcc.h **** #else
 732:Drivers/CMSIS/Include/cmsis_gcc.h ****   __ASM volatile ("MSR msplim, %0" : : "r" (MainStackPtrLimit));
ARM GAS  /tmp/ccfbgGae.s 			page 41


 733:Drivers/CMSIS/Include/cmsis_gcc.h **** #endif
 734:Drivers/CMSIS/Include/cmsis_gcc.h **** }
 735:Drivers/CMSIS/Include/cmsis_gcc.h **** 
 736:Drivers/CMSIS/Include/cmsis_gcc.h **** 
 737:Drivers/CMSIS/Include/cmsis_gcc.h **** #if (defined (__ARM_FEATURE_CMSE  ) && (__ARM_FEATURE_CMSE   == 3))
 738:Drivers/CMSIS/Include/cmsis_gcc.h **** /**
 739:Drivers/CMSIS/Include/cmsis_gcc.h ****   \brief   Set Main Stack Pointer Limit (non-secure)
 740:Drivers/CMSIS/Include/cmsis_gcc.h ****   Devices without ARMv8-M Main Extensions (i.e. Cortex-M23) lack the non-secure
 741:Drivers/CMSIS/Include/cmsis_gcc.h ****   Stack Pointer Limit register hence the write is silently ignored.
 742:Drivers/CMSIS/Include/cmsis_gcc.h **** 
 743:Drivers/CMSIS/Include/cmsis_gcc.h ****   \details Assigns the given value to the non-secure Main Stack Pointer Limit (MSPLIM) when in secu
 744:Drivers/CMSIS/Include/cmsis_gcc.h ****   \param [in]    MainStackPtrLimit  Main Stack Pointer value to set
 745:Drivers/CMSIS/Include/cmsis_gcc.h ****  */
 746:Drivers/CMSIS/Include/cmsis_gcc.h **** __STATIC_FORCEINLINE void __TZ_set_MSPLIM_NS(uint32_t MainStackPtrLimit)
 747:Drivers/CMSIS/Include/cmsis_gcc.h **** {
 748:Drivers/CMSIS/Include/cmsis_gcc.h **** #if (!(defined (__ARM_ARCH_8M_MAIN__ ) && (__ARM_ARCH_8M_MAIN__ == 1)))
 749:Drivers/CMSIS/Include/cmsis_gcc.h ****   // without main extensions, the non-secure MSPLIM is RAZ/WI
 750:Drivers/CMSIS/Include/cmsis_gcc.h ****   (void)MainStackPtrLimit;
 751:Drivers/CMSIS/Include/cmsis_gcc.h **** #else
 752:Drivers/CMSIS/Include/cmsis_gcc.h ****   __ASM volatile ("MSR msplim_ns, %0" : : "r" (MainStackPtrLimit));
 753:Drivers/CMSIS/Include/cmsis_gcc.h **** #endif
 754:Drivers/CMSIS/Include/cmsis_gcc.h **** }
 755:Drivers/CMSIS/Include/cmsis_gcc.h **** #endif
 756:Drivers/CMSIS/Include/cmsis_gcc.h **** 
 757:Drivers/CMSIS/Include/cmsis_gcc.h **** #endif /* ((defined (__ARM_ARCH_8M_MAIN__ ) && (__ARM_ARCH_8M_MAIN__ == 1)) || \
 758:Drivers/CMSIS/Include/cmsis_gcc.h ****            (defined (__ARM_ARCH_8M_BASE__ ) && (__ARM_ARCH_8M_BASE__ == 1))    ) */
 759:Drivers/CMSIS/Include/cmsis_gcc.h **** 
 760:Drivers/CMSIS/Include/cmsis_gcc.h **** 
 761:Drivers/CMSIS/Include/cmsis_gcc.h **** /**
 762:Drivers/CMSIS/Include/cmsis_gcc.h ****   \brief   Get FPSCR
 763:Drivers/CMSIS/Include/cmsis_gcc.h ****   \details Returns the current value of the Floating Point Status/Control register.
 764:Drivers/CMSIS/Include/cmsis_gcc.h ****   \return               Floating Point Status/Control register value
 765:Drivers/CMSIS/Include/cmsis_gcc.h ****  */
 766:Drivers/CMSIS/Include/cmsis_gcc.h **** __STATIC_FORCEINLINE uint32_t __get_FPSCR(void)
 767:Drivers/CMSIS/Include/cmsis_gcc.h **** {
 768:Drivers/CMSIS/Include/cmsis_gcc.h **** #if ((defined (__FPU_PRESENT) && (__FPU_PRESENT == 1U)) && \
 769:Drivers/CMSIS/Include/cmsis_gcc.h ****      (defined (__FPU_USED   ) && (__FPU_USED    == 1U))     )
 770:Drivers/CMSIS/Include/cmsis_gcc.h **** #if __has_builtin(__builtin_arm_get_fpscr) 
 771:Drivers/CMSIS/Include/cmsis_gcc.h **** // Re-enable using built-in when GCC has been fixed
 772:Drivers/CMSIS/Include/cmsis_gcc.h **** // || (__GNUC__ > 7) || (__GNUC__ == 7 && __GNUC_MINOR__ >= 2)
 773:Drivers/CMSIS/Include/cmsis_gcc.h ****   /* see https://gcc.gnu.org/ml/gcc-patches/2017-04/msg00443.html */
 774:Drivers/CMSIS/Include/cmsis_gcc.h ****   return __builtin_arm_get_fpscr();
 775:Drivers/CMSIS/Include/cmsis_gcc.h **** #else
 776:Drivers/CMSIS/Include/cmsis_gcc.h ****   uint32_t result;
 777:Drivers/CMSIS/Include/cmsis_gcc.h **** 
 778:Drivers/CMSIS/Include/cmsis_gcc.h ****   __ASM volatile ("VMRS %0, fpscr" : "=r" (result) );
 779:Drivers/CMSIS/Include/cmsis_gcc.h ****   return(result);
 780:Drivers/CMSIS/Include/cmsis_gcc.h **** #endif
 781:Drivers/CMSIS/Include/cmsis_gcc.h **** #else
 782:Drivers/CMSIS/Include/cmsis_gcc.h ****   return(0U);
 783:Drivers/CMSIS/Include/cmsis_gcc.h **** #endif
 784:Drivers/CMSIS/Include/cmsis_gcc.h **** }
 785:Drivers/CMSIS/Include/cmsis_gcc.h **** 
 786:Drivers/CMSIS/Include/cmsis_gcc.h **** 
 787:Drivers/CMSIS/Include/cmsis_gcc.h **** /**
 788:Drivers/CMSIS/Include/cmsis_gcc.h ****   \brief   Set FPSCR
 789:Drivers/CMSIS/Include/cmsis_gcc.h ****   \details Assigns the given value to the Floating Point Status/Control register.
ARM GAS  /tmp/ccfbgGae.s 			page 42


 790:Drivers/CMSIS/Include/cmsis_gcc.h ****   \param [in]    fpscr  Floating Point Status/Control value to set
 791:Drivers/CMSIS/Include/cmsis_gcc.h ****  */
 792:Drivers/CMSIS/Include/cmsis_gcc.h **** __STATIC_FORCEINLINE void __set_FPSCR(uint32_t fpscr)
 793:Drivers/CMSIS/Include/cmsis_gcc.h **** {
 794:Drivers/CMSIS/Include/cmsis_gcc.h **** #if ((defined (__FPU_PRESENT) && (__FPU_PRESENT == 1U)) && \
 795:Drivers/CMSIS/Include/cmsis_gcc.h ****      (defined (__FPU_USED   ) && (__FPU_USED    == 1U))     )
 796:Drivers/CMSIS/Include/cmsis_gcc.h **** #if __has_builtin(__builtin_arm_set_fpscr)
 797:Drivers/CMSIS/Include/cmsis_gcc.h **** // Re-enable using built-in when GCC has been fixed
 798:Drivers/CMSIS/Include/cmsis_gcc.h **** // || (__GNUC__ > 7) || (__GNUC__ == 7 && __GNUC_MINOR__ >= 2)
 799:Drivers/CMSIS/Include/cmsis_gcc.h ****   /* see https://gcc.gnu.org/ml/gcc-patches/2017-04/msg00443.html */
 800:Drivers/CMSIS/Include/cmsis_gcc.h ****   __builtin_arm_set_fpscr(fpscr);
 801:Drivers/CMSIS/Include/cmsis_gcc.h **** #else
 802:Drivers/CMSIS/Include/cmsis_gcc.h ****   __ASM volatile ("VMSR fpscr, %0" : : "r" (fpscr) : "vfpcc", "memory");
 803:Drivers/CMSIS/Include/cmsis_gcc.h **** #endif
 804:Drivers/CMSIS/Include/cmsis_gcc.h **** #else
 805:Drivers/CMSIS/Include/cmsis_gcc.h ****   (void)fpscr;
 806:Drivers/CMSIS/Include/cmsis_gcc.h **** #endif
 807:Drivers/CMSIS/Include/cmsis_gcc.h **** }
 808:Drivers/CMSIS/Include/cmsis_gcc.h **** 
 809:Drivers/CMSIS/Include/cmsis_gcc.h **** 
 810:Drivers/CMSIS/Include/cmsis_gcc.h **** /*@} end of CMSIS_Core_RegAccFunctions */
 811:Drivers/CMSIS/Include/cmsis_gcc.h **** 
 812:Drivers/CMSIS/Include/cmsis_gcc.h **** 
 813:Drivers/CMSIS/Include/cmsis_gcc.h **** /* ##########################  Core Instruction Access  ######################### */
 814:Drivers/CMSIS/Include/cmsis_gcc.h **** /** \defgroup CMSIS_Core_InstructionInterface CMSIS Core Instruction Interface
 815:Drivers/CMSIS/Include/cmsis_gcc.h ****   Access to dedicated instructions
 816:Drivers/CMSIS/Include/cmsis_gcc.h ****   @{
 817:Drivers/CMSIS/Include/cmsis_gcc.h **** */
 818:Drivers/CMSIS/Include/cmsis_gcc.h **** 
 819:Drivers/CMSIS/Include/cmsis_gcc.h **** /* Define macros for porting to both thumb1 and thumb2.
 820:Drivers/CMSIS/Include/cmsis_gcc.h ****  * For thumb1, use low register (r0-r7), specified by constraint "l"
 821:Drivers/CMSIS/Include/cmsis_gcc.h ****  * Otherwise, use general registers, specified by constraint "r" */
 822:Drivers/CMSIS/Include/cmsis_gcc.h **** #if defined (__thumb__) && !defined (__thumb2__)
 823:Drivers/CMSIS/Include/cmsis_gcc.h **** #define __CMSIS_GCC_OUT_REG(r) "=l" (r)
 824:Drivers/CMSIS/Include/cmsis_gcc.h **** #define __CMSIS_GCC_RW_REG(r) "+l" (r)
 825:Drivers/CMSIS/Include/cmsis_gcc.h **** #define __CMSIS_GCC_USE_REG(r) "l" (r)
 826:Drivers/CMSIS/Include/cmsis_gcc.h **** #else
 827:Drivers/CMSIS/Include/cmsis_gcc.h **** #define __CMSIS_GCC_OUT_REG(r) "=r" (r)
 828:Drivers/CMSIS/Include/cmsis_gcc.h **** #define __CMSIS_GCC_RW_REG(r) "+r" (r)
 829:Drivers/CMSIS/Include/cmsis_gcc.h **** #define __CMSIS_GCC_USE_REG(r) "r" (r)
 830:Drivers/CMSIS/Include/cmsis_gcc.h **** #endif
 831:Drivers/CMSIS/Include/cmsis_gcc.h **** 
 832:Drivers/CMSIS/Include/cmsis_gcc.h **** /**
 833:Drivers/CMSIS/Include/cmsis_gcc.h ****   \brief   No Operation
 834:Drivers/CMSIS/Include/cmsis_gcc.h ****   \details No Operation does nothing. This instruction can be used for code alignment purposes.
 835:Drivers/CMSIS/Include/cmsis_gcc.h ****  */
 836:Drivers/CMSIS/Include/cmsis_gcc.h **** #define __NOP()                             __ASM volatile ("nop")
 837:Drivers/CMSIS/Include/cmsis_gcc.h **** 
 838:Drivers/CMSIS/Include/cmsis_gcc.h **** /**
 839:Drivers/CMSIS/Include/cmsis_gcc.h ****   \brief   Wait For Interrupt
 840:Drivers/CMSIS/Include/cmsis_gcc.h ****   \details Wait For Interrupt is a hint instruction that suspends execution until one of a number o
 841:Drivers/CMSIS/Include/cmsis_gcc.h ****  */
 842:Drivers/CMSIS/Include/cmsis_gcc.h **** #define __WFI()                             __ASM volatile ("wfi")
 843:Drivers/CMSIS/Include/cmsis_gcc.h **** 
 844:Drivers/CMSIS/Include/cmsis_gcc.h **** 
 845:Drivers/CMSIS/Include/cmsis_gcc.h **** /**
 846:Drivers/CMSIS/Include/cmsis_gcc.h ****   \brief   Wait For Event
ARM GAS  /tmp/ccfbgGae.s 			page 43


 847:Drivers/CMSIS/Include/cmsis_gcc.h ****   \details Wait For Event is a hint instruction that permits the processor to enter
 848:Drivers/CMSIS/Include/cmsis_gcc.h ****            a low-power state until one of a number of events occurs.
 849:Drivers/CMSIS/Include/cmsis_gcc.h ****  */
 850:Drivers/CMSIS/Include/cmsis_gcc.h **** #define __WFE()                             __ASM volatile ("wfe")
 851:Drivers/CMSIS/Include/cmsis_gcc.h **** 
 852:Drivers/CMSIS/Include/cmsis_gcc.h **** 
 853:Drivers/CMSIS/Include/cmsis_gcc.h **** /**
 854:Drivers/CMSIS/Include/cmsis_gcc.h ****   \brief   Send Event
 855:Drivers/CMSIS/Include/cmsis_gcc.h ****   \details Send Event is a hint instruction. It causes an event to be signaled to the CPU.
 856:Drivers/CMSIS/Include/cmsis_gcc.h ****  */
 857:Drivers/CMSIS/Include/cmsis_gcc.h **** #define __SEV()                             __ASM volatile ("sev")
 858:Drivers/CMSIS/Include/cmsis_gcc.h **** 
 859:Drivers/CMSIS/Include/cmsis_gcc.h **** 
 860:Drivers/CMSIS/Include/cmsis_gcc.h **** /**
 861:Drivers/CMSIS/Include/cmsis_gcc.h ****   \brief   Instruction Synchronization Barrier
 862:Drivers/CMSIS/Include/cmsis_gcc.h ****   \details Instruction Synchronization Barrier flushes the pipeline in the processor,
 863:Drivers/CMSIS/Include/cmsis_gcc.h ****            so that all instructions following the ISB are fetched from cache or memory,
 864:Drivers/CMSIS/Include/cmsis_gcc.h ****            after the instruction has been completed.
 865:Drivers/CMSIS/Include/cmsis_gcc.h ****  */
 866:Drivers/CMSIS/Include/cmsis_gcc.h **** __STATIC_FORCEINLINE void __ISB(void)
 867:Drivers/CMSIS/Include/cmsis_gcc.h **** {
 868:Drivers/CMSIS/Include/cmsis_gcc.h ****   __ASM volatile ("isb 0xF":::"memory");
 869:Drivers/CMSIS/Include/cmsis_gcc.h **** }
 870:Drivers/CMSIS/Include/cmsis_gcc.h **** 
 871:Drivers/CMSIS/Include/cmsis_gcc.h **** 
 872:Drivers/CMSIS/Include/cmsis_gcc.h **** /**
 873:Drivers/CMSIS/Include/cmsis_gcc.h ****   \brief   Data Synchronization Barrier
 874:Drivers/CMSIS/Include/cmsis_gcc.h ****   \details Acts as a special kind of Data Memory Barrier.
 875:Drivers/CMSIS/Include/cmsis_gcc.h ****            It completes when all explicit memory accesses before this instruction complete.
 876:Drivers/CMSIS/Include/cmsis_gcc.h ****  */
 877:Drivers/CMSIS/Include/cmsis_gcc.h **** __STATIC_FORCEINLINE void __DSB(void)
 878:Drivers/CMSIS/Include/cmsis_gcc.h **** {
 879:Drivers/CMSIS/Include/cmsis_gcc.h ****   __ASM volatile ("dsb 0xF":::"memory");
 449              		.loc 2 879 0
 450              		.syntax unified
 451              	@ 879 "Drivers/CMSIS/Include/cmsis_gcc.h" 1
 452 0056 BFF34F8F 		dsb 0xF
 453              	@ 0 "" 2
 454              		.thumb
 455              		.syntax unified
 456              	.LBE15:
 457              	.LBE14:
 458              		.file 3 "Drivers/CMSIS/Include/core_cm3.h"
   1:Drivers/CMSIS/Include/core_cm3.h **** /**************************************************************************//**
   2:Drivers/CMSIS/Include/core_cm3.h ****  * @file     core_cm3.h
   3:Drivers/CMSIS/Include/core_cm3.h ****  * @brief    CMSIS Cortex-M3 Core Peripheral Access Layer Header File
   4:Drivers/CMSIS/Include/core_cm3.h ****  * @version  V5.0.8
   5:Drivers/CMSIS/Include/core_cm3.h ****  * @date     04. June 2018
   6:Drivers/CMSIS/Include/core_cm3.h ****  ******************************************************************************/
   7:Drivers/CMSIS/Include/core_cm3.h **** /*
   8:Drivers/CMSIS/Include/core_cm3.h ****  * Copyright (c) 2009-2018 Arm Limited. All rights reserved.
   9:Drivers/CMSIS/Include/core_cm3.h ****  *
  10:Drivers/CMSIS/Include/core_cm3.h ****  * SPDX-License-Identifier: Apache-2.0
  11:Drivers/CMSIS/Include/core_cm3.h ****  *
  12:Drivers/CMSIS/Include/core_cm3.h ****  * Licensed under the Apache License, Version 2.0 (the License); you may
  13:Drivers/CMSIS/Include/core_cm3.h ****  * not use this file except in compliance with the License.
  14:Drivers/CMSIS/Include/core_cm3.h ****  * You may obtain a copy of the License at
ARM GAS  /tmp/ccfbgGae.s 			page 44


  15:Drivers/CMSIS/Include/core_cm3.h ****  *
  16:Drivers/CMSIS/Include/core_cm3.h ****  * www.apache.org/licenses/LICENSE-2.0
  17:Drivers/CMSIS/Include/core_cm3.h ****  *
  18:Drivers/CMSIS/Include/core_cm3.h ****  * Unless required by applicable law or agreed to in writing, software
  19:Drivers/CMSIS/Include/core_cm3.h ****  * distributed under the License is distributed on an AS IS BASIS, WITHOUT
  20:Drivers/CMSIS/Include/core_cm3.h ****  * WARRANTIES OR CONDITIONS OF ANY KIND, either express or implied.
  21:Drivers/CMSIS/Include/core_cm3.h ****  * See the License for the specific language governing permissions and
  22:Drivers/CMSIS/Include/core_cm3.h ****  * limitations under the License.
  23:Drivers/CMSIS/Include/core_cm3.h ****  */
  24:Drivers/CMSIS/Include/core_cm3.h **** 
  25:Drivers/CMSIS/Include/core_cm3.h **** #if   defined ( __ICCARM__ )
  26:Drivers/CMSIS/Include/core_cm3.h ****   #pragma system_include         /* treat file as system include file for MISRA check */
  27:Drivers/CMSIS/Include/core_cm3.h **** #elif defined (__clang__)
  28:Drivers/CMSIS/Include/core_cm3.h ****   #pragma clang system_header   /* treat file as system include file */
  29:Drivers/CMSIS/Include/core_cm3.h **** #endif
  30:Drivers/CMSIS/Include/core_cm3.h **** 
  31:Drivers/CMSIS/Include/core_cm3.h **** #ifndef __CORE_CM3_H_GENERIC
  32:Drivers/CMSIS/Include/core_cm3.h **** #define __CORE_CM3_H_GENERIC
  33:Drivers/CMSIS/Include/core_cm3.h **** 
  34:Drivers/CMSIS/Include/core_cm3.h **** #include <stdint.h>
  35:Drivers/CMSIS/Include/core_cm3.h **** 
  36:Drivers/CMSIS/Include/core_cm3.h **** #ifdef __cplusplus
  37:Drivers/CMSIS/Include/core_cm3.h ****  extern "C" {
  38:Drivers/CMSIS/Include/core_cm3.h **** #endif
  39:Drivers/CMSIS/Include/core_cm3.h **** 
  40:Drivers/CMSIS/Include/core_cm3.h **** /**
  41:Drivers/CMSIS/Include/core_cm3.h ****   \page CMSIS_MISRA_Exceptions  MISRA-C:2004 Compliance Exceptions
  42:Drivers/CMSIS/Include/core_cm3.h ****   CMSIS violates the following MISRA-C:2004 rules:
  43:Drivers/CMSIS/Include/core_cm3.h **** 
  44:Drivers/CMSIS/Include/core_cm3.h ****    \li Required Rule 8.5, object/function definition in header file.<br>
  45:Drivers/CMSIS/Include/core_cm3.h ****      Function definitions in header files are used to allow 'inlining'.
  46:Drivers/CMSIS/Include/core_cm3.h **** 
  47:Drivers/CMSIS/Include/core_cm3.h ****    \li Required Rule 18.4, declaration of union type or object of union type: '{...}'.<br>
  48:Drivers/CMSIS/Include/core_cm3.h ****      Unions are used for effective representation of core registers.
  49:Drivers/CMSIS/Include/core_cm3.h **** 
  50:Drivers/CMSIS/Include/core_cm3.h ****    \li Advisory Rule 19.7, Function-like macro defined.<br>
  51:Drivers/CMSIS/Include/core_cm3.h ****      Function-like macros are used to allow more efficient code.
  52:Drivers/CMSIS/Include/core_cm3.h ****  */
  53:Drivers/CMSIS/Include/core_cm3.h **** 
  54:Drivers/CMSIS/Include/core_cm3.h **** 
  55:Drivers/CMSIS/Include/core_cm3.h **** /*******************************************************************************
  56:Drivers/CMSIS/Include/core_cm3.h ****  *                 CMSIS definitions
  57:Drivers/CMSIS/Include/core_cm3.h ****  ******************************************************************************/
  58:Drivers/CMSIS/Include/core_cm3.h **** /**
  59:Drivers/CMSIS/Include/core_cm3.h ****   \ingroup Cortex_M3
  60:Drivers/CMSIS/Include/core_cm3.h ****   @{
  61:Drivers/CMSIS/Include/core_cm3.h ****  */
  62:Drivers/CMSIS/Include/core_cm3.h **** 
  63:Drivers/CMSIS/Include/core_cm3.h **** #include "cmsis_version.h"
  64:Drivers/CMSIS/Include/core_cm3.h **** 
  65:Drivers/CMSIS/Include/core_cm3.h **** /*  CMSIS CM3 definitions */
  66:Drivers/CMSIS/Include/core_cm3.h **** #define __CM3_CMSIS_VERSION_MAIN  (__CM_CMSIS_VERSION_MAIN)              /*!< \deprecated [31:16] C
  67:Drivers/CMSIS/Include/core_cm3.h **** #define __CM3_CMSIS_VERSION_SUB   (__CM_CMSIS_VERSION_SUB)               /*!< \deprecated [15:0]  C
  68:Drivers/CMSIS/Include/core_cm3.h **** #define __CM3_CMSIS_VERSION       ((__CM3_CMSIS_VERSION_MAIN << 16U) | \
  69:Drivers/CMSIS/Include/core_cm3.h ****                                     __CM3_CMSIS_VERSION_SUB           )  /*!< \deprecated CMSIS HAL
  70:Drivers/CMSIS/Include/core_cm3.h **** 
  71:Drivers/CMSIS/Include/core_cm3.h **** #define __CORTEX_M                (3U)                                   /*!< Cortex-M Core */
ARM GAS  /tmp/ccfbgGae.s 			page 45


  72:Drivers/CMSIS/Include/core_cm3.h **** 
  73:Drivers/CMSIS/Include/core_cm3.h **** /** __FPU_USED indicates whether an FPU is used or not.
  74:Drivers/CMSIS/Include/core_cm3.h ****     This core does not support an FPU at all
  75:Drivers/CMSIS/Include/core_cm3.h **** */
  76:Drivers/CMSIS/Include/core_cm3.h **** #define __FPU_USED       0U
  77:Drivers/CMSIS/Include/core_cm3.h **** 
  78:Drivers/CMSIS/Include/core_cm3.h **** #if defined ( __CC_ARM )
  79:Drivers/CMSIS/Include/core_cm3.h ****   #if defined __TARGET_FPU_VFP
  80:Drivers/CMSIS/Include/core_cm3.h ****     #error "Compiler generates FPU instructions for a device without an FPU (check __FPU_PRESENT)"
  81:Drivers/CMSIS/Include/core_cm3.h ****   #endif
  82:Drivers/CMSIS/Include/core_cm3.h **** 
  83:Drivers/CMSIS/Include/core_cm3.h **** #elif defined (__ARMCC_VERSION) && (__ARMCC_VERSION >= 6010050)
  84:Drivers/CMSIS/Include/core_cm3.h ****   #if defined __ARM_PCS_VFP
  85:Drivers/CMSIS/Include/core_cm3.h ****     #error "Compiler generates FPU instructions for a device without an FPU (check __FPU_PRESENT)"
  86:Drivers/CMSIS/Include/core_cm3.h ****   #endif
  87:Drivers/CMSIS/Include/core_cm3.h **** 
  88:Drivers/CMSIS/Include/core_cm3.h **** #elif defined ( __GNUC__ )
  89:Drivers/CMSIS/Include/core_cm3.h ****   #if defined (__VFP_FP__) && !defined(__SOFTFP__)
  90:Drivers/CMSIS/Include/core_cm3.h ****     #error "Compiler generates FPU instructions for a device without an FPU (check __FPU_PRESENT)"
  91:Drivers/CMSIS/Include/core_cm3.h ****   #endif
  92:Drivers/CMSIS/Include/core_cm3.h **** 
  93:Drivers/CMSIS/Include/core_cm3.h **** #elif defined ( __ICCARM__ )
  94:Drivers/CMSIS/Include/core_cm3.h ****   #if defined __ARMVFP__
  95:Drivers/CMSIS/Include/core_cm3.h ****     #error "Compiler generates FPU instructions for a device without an FPU (check __FPU_PRESENT)"
  96:Drivers/CMSIS/Include/core_cm3.h ****   #endif
  97:Drivers/CMSIS/Include/core_cm3.h **** 
  98:Drivers/CMSIS/Include/core_cm3.h **** #elif defined ( __TI_ARM__ )
  99:Drivers/CMSIS/Include/core_cm3.h ****   #if defined __TI_VFP_SUPPORT__
 100:Drivers/CMSIS/Include/core_cm3.h ****     #error "Compiler generates FPU instructions for a device without an FPU (check __FPU_PRESENT)"
 101:Drivers/CMSIS/Include/core_cm3.h ****   #endif
 102:Drivers/CMSIS/Include/core_cm3.h **** 
 103:Drivers/CMSIS/Include/core_cm3.h **** #elif defined ( __TASKING__ )
 104:Drivers/CMSIS/Include/core_cm3.h ****   #if defined __FPU_VFP__
 105:Drivers/CMSIS/Include/core_cm3.h ****     #error "Compiler generates FPU instructions for a device without an FPU (check __FPU_PRESENT)"
 106:Drivers/CMSIS/Include/core_cm3.h ****   #endif
 107:Drivers/CMSIS/Include/core_cm3.h **** 
 108:Drivers/CMSIS/Include/core_cm3.h **** #elif defined ( __CSMC__ )
 109:Drivers/CMSIS/Include/core_cm3.h ****   #if ( __CSMC__ & 0x400U)
 110:Drivers/CMSIS/Include/core_cm3.h ****     #error "Compiler generates FPU instructions for a device without an FPU (check __FPU_PRESENT)"
 111:Drivers/CMSIS/Include/core_cm3.h ****   #endif
 112:Drivers/CMSIS/Include/core_cm3.h **** 
 113:Drivers/CMSIS/Include/core_cm3.h **** #endif
 114:Drivers/CMSIS/Include/core_cm3.h **** 
 115:Drivers/CMSIS/Include/core_cm3.h **** #include "cmsis_compiler.h"               /* CMSIS compiler specific defines */
 116:Drivers/CMSIS/Include/core_cm3.h **** 
 117:Drivers/CMSIS/Include/core_cm3.h **** 
 118:Drivers/CMSIS/Include/core_cm3.h **** #ifdef __cplusplus
 119:Drivers/CMSIS/Include/core_cm3.h **** }
 120:Drivers/CMSIS/Include/core_cm3.h **** #endif
 121:Drivers/CMSIS/Include/core_cm3.h **** 
 122:Drivers/CMSIS/Include/core_cm3.h **** #endif /* __CORE_CM3_H_GENERIC */
 123:Drivers/CMSIS/Include/core_cm3.h **** 
 124:Drivers/CMSIS/Include/core_cm3.h **** #ifndef __CMSIS_GENERIC
 125:Drivers/CMSIS/Include/core_cm3.h **** 
 126:Drivers/CMSIS/Include/core_cm3.h **** #ifndef __CORE_CM3_H_DEPENDANT
 127:Drivers/CMSIS/Include/core_cm3.h **** #define __CORE_CM3_H_DEPENDANT
 128:Drivers/CMSIS/Include/core_cm3.h **** 
ARM GAS  /tmp/ccfbgGae.s 			page 46


 129:Drivers/CMSIS/Include/core_cm3.h **** #ifdef __cplusplus
 130:Drivers/CMSIS/Include/core_cm3.h ****  extern "C" {
 131:Drivers/CMSIS/Include/core_cm3.h **** #endif
 132:Drivers/CMSIS/Include/core_cm3.h **** 
 133:Drivers/CMSIS/Include/core_cm3.h **** /* check device defines and use defaults */
 134:Drivers/CMSIS/Include/core_cm3.h **** #if defined __CHECK_DEVICE_DEFINES
 135:Drivers/CMSIS/Include/core_cm3.h ****   #ifndef __CM3_REV
 136:Drivers/CMSIS/Include/core_cm3.h ****     #define __CM3_REV               0x0200U
 137:Drivers/CMSIS/Include/core_cm3.h ****     #warning "__CM3_REV not defined in device header file; using default!"
 138:Drivers/CMSIS/Include/core_cm3.h ****   #endif
 139:Drivers/CMSIS/Include/core_cm3.h **** 
 140:Drivers/CMSIS/Include/core_cm3.h ****   #ifndef __MPU_PRESENT
 141:Drivers/CMSIS/Include/core_cm3.h ****     #define __MPU_PRESENT             0U
 142:Drivers/CMSIS/Include/core_cm3.h ****     #warning "__MPU_PRESENT not defined in device header file; using default!"
 143:Drivers/CMSIS/Include/core_cm3.h ****   #endif
 144:Drivers/CMSIS/Include/core_cm3.h **** 
 145:Drivers/CMSIS/Include/core_cm3.h ****   #ifndef __NVIC_PRIO_BITS
 146:Drivers/CMSIS/Include/core_cm3.h ****     #define __NVIC_PRIO_BITS          3U
 147:Drivers/CMSIS/Include/core_cm3.h ****     #warning "__NVIC_PRIO_BITS not defined in device header file; using default!"
 148:Drivers/CMSIS/Include/core_cm3.h ****   #endif
 149:Drivers/CMSIS/Include/core_cm3.h **** 
 150:Drivers/CMSIS/Include/core_cm3.h ****   #ifndef __Vendor_SysTickConfig
 151:Drivers/CMSIS/Include/core_cm3.h ****     #define __Vendor_SysTickConfig    0U
 152:Drivers/CMSIS/Include/core_cm3.h ****     #warning "__Vendor_SysTickConfig not defined in device header file; using default!"
 153:Drivers/CMSIS/Include/core_cm3.h ****   #endif
 154:Drivers/CMSIS/Include/core_cm3.h **** #endif
 155:Drivers/CMSIS/Include/core_cm3.h **** 
 156:Drivers/CMSIS/Include/core_cm3.h **** /* IO definitions (access restrictions to peripheral registers) */
 157:Drivers/CMSIS/Include/core_cm3.h **** /**
 158:Drivers/CMSIS/Include/core_cm3.h ****     \defgroup CMSIS_glob_defs CMSIS Global Defines
 159:Drivers/CMSIS/Include/core_cm3.h **** 
 160:Drivers/CMSIS/Include/core_cm3.h ****     <strong>IO Type Qualifiers</strong> are used
 161:Drivers/CMSIS/Include/core_cm3.h ****     \li to specify the access to peripheral variables.
 162:Drivers/CMSIS/Include/core_cm3.h ****     \li for automatic generation of peripheral register debug information.
 163:Drivers/CMSIS/Include/core_cm3.h **** */
 164:Drivers/CMSIS/Include/core_cm3.h **** #ifdef __cplusplus
 165:Drivers/CMSIS/Include/core_cm3.h ****   #define   __I     volatile             /*!< Defines 'read only' permissions */
 166:Drivers/CMSIS/Include/core_cm3.h **** #else
 167:Drivers/CMSIS/Include/core_cm3.h ****   #define   __I     volatile const       /*!< Defines 'read only' permissions */
 168:Drivers/CMSIS/Include/core_cm3.h **** #endif
 169:Drivers/CMSIS/Include/core_cm3.h **** #define     __O     volatile             /*!< Defines 'write only' permissions */
 170:Drivers/CMSIS/Include/core_cm3.h **** #define     __IO    volatile             /*!< Defines 'read / write' permissions */
 171:Drivers/CMSIS/Include/core_cm3.h **** 
 172:Drivers/CMSIS/Include/core_cm3.h **** /* following defines should be used for structure members */
 173:Drivers/CMSIS/Include/core_cm3.h **** #define     __IM     volatile const      /*! Defines 'read only' structure member permissions */
 174:Drivers/CMSIS/Include/core_cm3.h **** #define     __OM     volatile            /*! Defines 'write only' structure member permissions */
 175:Drivers/CMSIS/Include/core_cm3.h **** #define     __IOM    volatile            /*! Defines 'read / write' structure member permissions */
 176:Drivers/CMSIS/Include/core_cm3.h **** 
 177:Drivers/CMSIS/Include/core_cm3.h **** /*@} end of group Cortex_M3 */
 178:Drivers/CMSIS/Include/core_cm3.h **** 
 179:Drivers/CMSIS/Include/core_cm3.h **** 
 180:Drivers/CMSIS/Include/core_cm3.h **** 
 181:Drivers/CMSIS/Include/core_cm3.h **** /*******************************************************************************
 182:Drivers/CMSIS/Include/core_cm3.h ****  *                 Register Abstraction
 183:Drivers/CMSIS/Include/core_cm3.h ****   Core Register contain:
 184:Drivers/CMSIS/Include/core_cm3.h ****   - Core Register
 185:Drivers/CMSIS/Include/core_cm3.h ****   - Core NVIC Register
ARM GAS  /tmp/ccfbgGae.s 			page 47


 186:Drivers/CMSIS/Include/core_cm3.h ****   - Core SCB Register
 187:Drivers/CMSIS/Include/core_cm3.h ****   - Core SysTick Register
 188:Drivers/CMSIS/Include/core_cm3.h ****   - Core Debug Register
 189:Drivers/CMSIS/Include/core_cm3.h ****   - Core MPU Register
 190:Drivers/CMSIS/Include/core_cm3.h ****  ******************************************************************************/
 191:Drivers/CMSIS/Include/core_cm3.h **** /**
 192:Drivers/CMSIS/Include/core_cm3.h ****   \defgroup CMSIS_core_register Defines and Type Definitions
 193:Drivers/CMSIS/Include/core_cm3.h ****   \brief Type definitions and defines for Cortex-M processor based devices.
 194:Drivers/CMSIS/Include/core_cm3.h **** */
 195:Drivers/CMSIS/Include/core_cm3.h **** 
 196:Drivers/CMSIS/Include/core_cm3.h **** /**
 197:Drivers/CMSIS/Include/core_cm3.h ****   \ingroup    CMSIS_core_register
 198:Drivers/CMSIS/Include/core_cm3.h ****   \defgroup   CMSIS_CORE  Status and Control Registers
 199:Drivers/CMSIS/Include/core_cm3.h ****   \brief      Core Register type definitions.
 200:Drivers/CMSIS/Include/core_cm3.h ****   @{
 201:Drivers/CMSIS/Include/core_cm3.h ****  */
 202:Drivers/CMSIS/Include/core_cm3.h **** 
 203:Drivers/CMSIS/Include/core_cm3.h **** /**
 204:Drivers/CMSIS/Include/core_cm3.h ****   \brief  Union type to access the Application Program Status Register (APSR).
 205:Drivers/CMSIS/Include/core_cm3.h ****  */
 206:Drivers/CMSIS/Include/core_cm3.h **** typedef union
 207:Drivers/CMSIS/Include/core_cm3.h **** {
 208:Drivers/CMSIS/Include/core_cm3.h ****   struct
 209:Drivers/CMSIS/Include/core_cm3.h ****   {
 210:Drivers/CMSIS/Include/core_cm3.h ****     uint32_t _reserved0:27;              /*!< bit:  0..26  Reserved */
 211:Drivers/CMSIS/Include/core_cm3.h ****     uint32_t Q:1;                        /*!< bit:     27  Saturation condition flag */
 212:Drivers/CMSIS/Include/core_cm3.h ****     uint32_t V:1;                        /*!< bit:     28  Overflow condition code flag */
 213:Drivers/CMSIS/Include/core_cm3.h ****     uint32_t C:1;                        /*!< bit:     29  Carry condition code flag */
 214:Drivers/CMSIS/Include/core_cm3.h ****     uint32_t Z:1;                        /*!< bit:     30  Zero condition code flag */
 215:Drivers/CMSIS/Include/core_cm3.h ****     uint32_t N:1;                        /*!< bit:     31  Negative condition code flag */
 216:Drivers/CMSIS/Include/core_cm3.h ****   } b;                                   /*!< Structure used for bit  access */
 217:Drivers/CMSIS/Include/core_cm3.h ****   uint32_t w;                            /*!< Type      used for word access */
 218:Drivers/CMSIS/Include/core_cm3.h **** } APSR_Type;
 219:Drivers/CMSIS/Include/core_cm3.h **** 
 220:Drivers/CMSIS/Include/core_cm3.h **** /* APSR Register Definitions */
 221:Drivers/CMSIS/Include/core_cm3.h **** #define APSR_N_Pos                         31U                                            /*!< APSR
 222:Drivers/CMSIS/Include/core_cm3.h **** #define APSR_N_Msk                         (1UL << APSR_N_Pos)                            /*!< APSR
 223:Drivers/CMSIS/Include/core_cm3.h **** 
 224:Drivers/CMSIS/Include/core_cm3.h **** #define APSR_Z_Pos                         30U                                            /*!< APSR
 225:Drivers/CMSIS/Include/core_cm3.h **** #define APSR_Z_Msk                         (1UL << APSR_Z_Pos)                            /*!< APSR
 226:Drivers/CMSIS/Include/core_cm3.h **** 
 227:Drivers/CMSIS/Include/core_cm3.h **** #define APSR_C_Pos                         29U                                            /*!< APSR
 228:Drivers/CMSIS/Include/core_cm3.h **** #define APSR_C_Msk                         (1UL << APSR_C_Pos)                            /*!< APSR
 229:Drivers/CMSIS/Include/core_cm3.h **** 
 230:Drivers/CMSIS/Include/core_cm3.h **** #define APSR_V_Pos                         28U                                            /*!< APSR
 231:Drivers/CMSIS/Include/core_cm3.h **** #define APSR_V_Msk                         (1UL << APSR_V_Pos)                            /*!< APSR
 232:Drivers/CMSIS/Include/core_cm3.h **** 
 233:Drivers/CMSIS/Include/core_cm3.h **** #define APSR_Q_Pos                         27U                                            /*!< APSR
 234:Drivers/CMSIS/Include/core_cm3.h **** #define APSR_Q_Msk                         (1UL << APSR_Q_Pos)                            /*!< APSR
 235:Drivers/CMSIS/Include/core_cm3.h **** 
 236:Drivers/CMSIS/Include/core_cm3.h **** 
 237:Drivers/CMSIS/Include/core_cm3.h **** /**
 238:Drivers/CMSIS/Include/core_cm3.h ****   \brief  Union type to access the Interrupt Program Status Register (IPSR).
 239:Drivers/CMSIS/Include/core_cm3.h ****  */
 240:Drivers/CMSIS/Include/core_cm3.h **** typedef union
 241:Drivers/CMSIS/Include/core_cm3.h **** {
 242:Drivers/CMSIS/Include/core_cm3.h ****   struct
ARM GAS  /tmp/ccfbgGae.s 			page 48


 243:Drivers/CMSIS/Include/core_cm3.h ****   {
 244:Drivers/CMSIS/Include/core_cm3.h ****     uint32_t ISR:9;                      /*!< bit:  0.. 8  Exception number */
 245:Drivers/CMSIS/Include/core_cm3.h ****     uint32_t _reserved0:23;              /*!< bit:  9..31  Reserved */
 246:Drivers/CMSIS/Include/core_cm3.h ****   } b;                                   /*!< Structure used for bit  access */
 247:Drivers/CMSIS/Include/core_cm3.h ****   uint32_t w;                            /*!< Type      used for word access */
 248:Drivers/CMSIS/Include/core_cm3.h **** } IPSR_Type;
 249:Drivers/CMSIS/Include/core_cm3.h **** 
 250:Drivers/CMSIS/Include/core_cm3.h **** /* IPSR Register Definitions */
 251:Drivers/CMSIS/Include/core_cm3.h **** #define IPSR_ISR_Pos                        0U                                            /*!< IPSR
 252:Drivers/CMSIS/Include/core_cm3.h **** #define IPSR_ISR_Msk                       (0x1FFUL /*<< IPSR_ISR_Pos*/)                  /*!< IPSR
 253:Drivers/CMSIS/Include/core_cm3.h **** 
 254:Drivers/CMSIS/Include/core_cm3.h **** 
 255:Drivers/CMSIS/Include/core_cm3.h **** /**
 256:Drivers/CMSIS/Include/core_cm3.h ****   \brief  Union type to access the Special-Purpose Program Status Registers (xPSR).
 257:Drivers/CMSIS/Include/core_cm3.h ****  */
 258:Drivers/CMSIS/Include/core_cm3.h **** typedef union
 259:Drivers/CMSIS/Include/core_cm3.h **** {
 260:Drivers/CMSIS/Include/core_cm3.h ****   struct
 261:Drivers/CMSIS/Include/core_cm3.h ****   {
 262:Drivers/CMSIS/Include/core_cm3.h ****     uint32_t ISR:9;                      /*!< bit:  0.. 8  Exception number */
 263:Drivers/CMSIS/Include/core_cm3.h ****     uint32_t _reserved0:1;               /*!< bit:      9  Reserved */
 264:Drivers/CMSIS/Include/core_cm3.h ****     uint32_t ICI_IT_1:6;                 /*!< bit: 10..15  ICI/IT part 1 */
 265:Drivers/CMSIS/Include/core_cm3.h ****     uint32_t _reserved1:8;               /*!< bit: 16..23  Reserved */
 266:Drivers/CMSIS/Include/core_cm3.h ****     uint32_t T:1;                        /*!< bit:     24  Thumb bit */
 267:Drivers/CMSIS/Include/core_cm3.h ****     uint32_t ICI_IT_2:2;                 /*!< bit: 25..26  ICI/IT part 2 */
 268:Drivers/CMSIS/Include/core_cm3.h ****     uint32_t Q:1;                        /*!< bit:     27  Saturation condition flag */
 269:Drivers/CMSIS/Include/core_cm3.h ****     uint32_t V:1;                        /*!< bit:     28  Overflow condition code flag */
 270:Drivers/CMSIS/Include/core_cm3.h ****     uint32_t C:1;                        /*!< bit:     29  Carry condition code flag */
 271:Drivers/CMSIS/Include/core_cm3.h ****     uint32_t Z:1;                        /*!< bit:     30  Zero condition code flag */
 272:Drivers/CMSIS/Include/core_cm3.h ****     uint32_t N:1;                        /*!< bit:     31  Negative condition code flag */
 273:Drivers/CMSIS/Include/core_cm3.h ****   } b;                                   /*!< Structure used for bit  access */
 274:Drivers/CMSIS/Include/core_cm3.h ****   uint32_t w;                            /*!< Type      used for word access */
 275:Drivers/CMSIS/Include/core_cm3.h **** } xPSR_Type;
 276:Drivers/CMSIS/Include/core_cm3.h **** 
 277:Drivers/CMSIS/Include/core_cm3.h **** /* xPSR Register Definitions */
 278:Drivers/CMSIS/Include/core_cm3.h **** #define xPSR_N_Pos                         31U                                            /*!< xPSR
 279:Drivers/CMSIS/Include/core_cm3.h **** #define xPSR_N_Msk                         (1UL << xPSR_N_Pos)                            /*!< xPSR
 280:Drivers/CMSIS/Include/core_cm3.h **** 
 281:Drivers/CMSIS/Include/core_cm3.h **** #define xPSR_Z_Pos                         30U                                            /*!< xPSR
 282:Drivers/CMSIS/Include/core_cm3.h **** #define xPSR_Z_Msk                         (1UL << xPSR_Z_Pos)                            /*!< xPSR
 283:Drivers/CMSIS/Include/core_cm3.h **** 
 284:Drivers/CMSIS/Include/core_cm3.h **** #define xPSR_C_Pos                         29U                                            /*!< xPSR
 285:Drivers/CMSIS/Include/core_cm3.h **** #define xPSR_C_Msk                         (1UL << xPSR_C_Pos)                            /*!< xPSR
 286:Drivers/CMSIS/Include/core_cm3.h **** 
 287:Drivers/CMSIS/Include/core_cm3.h **** #define xPSR_V_Pos                         28U                                            /*!< xPSR
 288:Drivers/CMSIS/Include/core_cm3.h **** #define xPSR_V_Msk                         (1UL << xPSR_V_Pos)                            /*!< xPSR
 289:Drivers/CMSIS/Include/core_cm3.h **** 
 290:Drivers/CMSIS/Include/core_cm3.h **** #define xPSR_Q_Pos                         27U                                            /*!< xPSR
 291:Drivers/CMSIS/Include/core_cm3.h **** #define xPSR_Q_Msk                         (1UL << xPSR_Q_Pos)                            /*!< xPSR
 292:Drivers/CMSIS/Include/core_cm3.h **** 
 293:Drivers/CMSIS/Include/core_cm3.h **** #define xPSR_ICI_IT_2_Pos                  25U                                            /*!< xPSR
 294:Drivers/CMSIS/Include/core_cm3.h **** #define xPSR_ICI_IT_2_Msk                  (3UL << xPSR_ICI_IT_2_Pos)                     /*!< xPSR
 295:Drivers/CMSIS/Include/core_cm3.h **** 
 296:Drivers/CMSIS/Include/core_cm3.h **** #define xPSR_T_Pos                         24U                                            /*!< xPSR
 297:Drivers/CMSIS/Include/core_cm3.h **** #define xPSR_T_Msk                         (1UL << xPSR_T_Pos)                            /*!< xPSR
 298:Drivers/CMSIS/Include/core_cm3.h **** 
 299:Drivers/CMSIS/Include/core_cm3.h **** #define xPSR_ICI_IT_1_Pos                  10U                                            /*!< xPSR
ARM GAS  /tmp/ccfbgGae.s 			page 49


 300:Drivers/CMSIS/Include/core_cm3.h **** #define xPSR_ICI_IT_1_Msk                  (0x3FUL << xPSR_ICI_IT_1_Pos)                  /*!< xPSR
 301:Drivers/CMSIS/Include/core_cm3.h **** 
 302:Drivers/CMSIS/Include/core_cm3.h **** #define xPSR_ISR_Pos                        0U                                            /*!< xPSR
 303:Drivers/CMSIS/Include/core_cm3.h **** #define xPSR_ISR_Msk                       (0x1FFUL /*<< xPSR_ISR_Pos*/)                  /*!< xPSR
 304:Drivers/CMSIS/Include/core_cm3.h **** 
 305:Drivers/CMSIS/Include/core_cm3.h **** 
 306:Drivers/CMSIS/Include/core_cm3.h **** /**
 307:Drivers/CMSIS/Include/core_cm3.h ****   \brief  Union type to access the Control Registers (CONTROL).
 308:Drivers/CMSIS/Include/core_cm3.h ****  */
 309:Drivers/CMSIS/Include/core_cm3.h **** typedef union
 310:Drivers/CMSIS/Include/core_cm3.h **** {
 311:Drivers/CMSIS/Include/core_cm3.h ****   struct
 312:Drivers/CMSIS/Include/core_cm3.h ****   {
 313:Drivers/CMSIS/Include/core_cm3.h ****     uint32_t nPRIV:1;                    /*!< bit:      0  Execution privilege in Thread mode */
 314:Drivers/CMSIS/Include/core_cm3.h ****     uint32_t SPSEL:1;                    /*!< bit:      1  Stack to be used */
 315:Drivers/CMSIS/Include/core_cm3.h ****     uint32_t _reserved1:30;              /*!< bit:  2..31  Reserved */
 316:Drivers/CMSIS/Include/core_cm3.h ****   } b;                                   /*!< Structure used for bit  access */
 317:Drivers/CMSIS/Include/core_cm3.h ****   uint32_t w;                            /*!< Type      used for word access */
 318:Drivers/CMSIS/Include/core_cm3.h **** } CONTROL_Type;
 319:Drivers/CMSIS/Include/core_cm3.h **** 
 320:Drivers/CMSIS/Include/core_cm3.h **** /* CONTROL Register Definitions */
 321:Drivers/CMSIS/Include/core_cm3.h **** #define CONTROL_SPSEL_Pos                   1U                                            /*!< CONT
 322:Drivers/CMSIS/Include/core_cm3.h **** #define CONTROL_SPSEL_Msk                  (1UL << CONTROL_SPSEL_Pos)                     /*!< CONT
 323:Drivers/CMSIS/Include/core_cm3.h **** 
 324:Drivers/CMSIS/Include/core_cm3.h **** #define CONTROL_nPRIV_Pos                   0U                                            /*!< CONT
 325:Drivers/CMSIS/Include/core_cm3.h **** #define CONTROL_nPRIV_Msk                  (1UL /*<< CONTROL_nPRIV_Pos*/)                 /*!< CONT
 326:Drivers/CMSIS/Include/core_cm3.h **** 
 327:Drivers/CMSIS/Include/core_cm3.h **** /*@} end of group CMSIS_CORE */
 328:Drivers/CMSIS/Include/core_cm3.h **** 
 329:Drivers/CMSIS/Include/core_cm3.h **** 
 330:Drivers/CMSIS/Include/core_cm3.h **** /**
 331:Drivers/CMSIS/Include/core_cm3.h ****   \ingroup    CMSIS_core_register
 332:Drivers/CMSIS/Include/core_cm3.h ****   \defgroup   CMSIS_NVIC  Nested Vectored Interrupt Controller (NVIC)
 333:Drivers/CMSIS/Include/core_cm3.h ****   \brief      Type definitions for the NVIC Registers
 334:Drivers/CMSIS/Include/core_cm3.h ****   @{
 335:Drivers/CMSIS/Include/core_cm3.h ****  */
 336:Drivers/CMSIS/Include/core_cm3.h **** 
 337:Drivers/CMSIS/Include/core_cm3.h **** /**
 338:Drivers/CMSIS/Include/core_cm3.h ****   \brief  Structure type to access the Nested Vectored Interrupt Controller (NVIC).
 339:Drivers/CMSIS/Include/core_cm3.h ****  */
 340:Drivers/CMSIS/Include/core_cm3.h **** typedef struct
 341:Drivers/CMSIS/Include/core_cm3.h **** {
 342:Drivers/CMSIS/Include/core_cm3.h ****   __IOM uint32_t ISER[8U];               /*!< Offset: 0x000 (R/W)  Interrupt Set Enable Register */
 343:Drivers/CMSIS/Include/core_cm3.h ****         uint32_t RESERVED0[24U];
 344:Drivers/CMSIS/Include/core_cm3.h ****   __IOM uint32_t ICER[8U];               /*!< Offset: 0x080 (R/W)  Interrupt Clear Enable Register 
 345:Drivers/CMSIS/Include/core_cm3.h ****         uint32_t RSERVED1[24U];
 346:Drivers/CMSIS/Include/core_cm3.h ****   __IOM uint32_t ISPR[8U];               /*!< Offset: 0x100 (R/W)  Interrupt Set Pending Register *
 347:Drivers/CMSIS/Include/core_cm3.h ****         uint32_t RESERVED2[24U];
 348:Drivers/CMSIS/Include/core_cm3.h ****   __IOM uint32_t ICPR[8U];               /*!< Offset: 0x180 (R/W)  Interrupt Clear Pending Register
 349:Drivers/CMSIS/Include/core_cm3.h ****         uint32_t RESERVED3[24U];
 350:Drivers/CMSIS/Include/core_cm3.h ****   __IOM uint32_t IABR[8U];               /*!< Offset: 0x200 (R/W)  Interrupt Active bit Register */
 351:Drivers/CMSIS/Include/core_cm3.h ****         uint32_t RESERVED4[56U];
 352:Drivers/CMSIS/Include/core_cm3.h ****   __IOM uint8_t  IP[240U];               /*!< Offset: 0x300 (R/W)  Interrupt Priority Register (8Bi
 353:Drivers/CMSIS/Include/core_cm3.h ****         uint32_t RESERVED5[644U];
 354:Drivers/CMSIS/Include/core_cm3.h ****   __OM  uint32_t STIR;                   /*!< Offset: 0xE00 ( /W)  Software Trigger Interrupt Regis
 355:Drivers/CMSIS/Include/core_cm3.h **** }  NVIC_Type;
 356:Drivers/CMSIS/Include/core_cm3.h **** 
ARM GAS  /tmp/ccfbgGae.s 			page 50


 357:Drivers/CMSIS/Include/core_cm3.h **** /* Software Triggered Interrupt Register Definitions */
 358:Drivers/CMSIS/Include/core_cm3.h **** #define NVIC_STIR_INTID_Pos                 0U                                         /*!< STIR: I
 359:Drivers/CMSIS/Include/core_cm3.h **** #define NVIC_STIR_INTID_Msk                (0x1FFUL /*<< NVIC_STIR_INTID_Pos*/)        /*!< STIR: I
 360:Drivers/CMSIS/Include/core_cm3.h **** 
 361:Drivers/CMSIS/Include/core_cm3.h **** /*@} end of group CMSIS_NVIC */
 362:Drivers/CMSIS/Include/core_cm3.h **** 
 363:Drivers/CMSIS/Include/core_cm3.h **** 
 364:Drivers/CMSIS/Include/core_cm3.h **** /**
 365:Drivers/CMSIS/Include/core_cm3.h ****   \ingroup  CMSIS_core_register
 366:Drivers/CMSIS/Include/core_cm3.h ****   \defgroup CMSIS_SCB     System Control Block (SCB)
 367:Drivers/CMSIS/Include/core_cm3.h ****   \brief    Type definitions for the System Control Block Registers
 368:Drivers/CMSIS/Include/core_cm3.h ****   @{
 369:Drivers/CMSIS/Include/core_cm3.h ****  */
 370:Drivers/CMSIS/Include/core_cm3.h **** 
 371:Drivers/CMSIS/Include/core_cm3.h **** /**
 372:Drivers/CMSIS/Include/core_cm3.h ****   \brief  Structure type to access the System Control Block (SCB).
 373:Drivers/CMSIS/Include/core_cm3.h ****  */
 374:Drivers/CMSIS/Include/core_cm3.h **** typedef struct
 375:Drivers/CMSIS/Include/core_cm3.h **** {
 376:Drivers/CMSIS/Include/core_cm3.h ****   __IM  uint32_t CPUID;                  /*!< Offset: 0x000 (R/ )  CPUID Base Register */
 377:Drivers/CMSIS/Include/core_cm3.h ****   __IOM uint32_t ICSR;                   /*!< Offset: 0x004 (R/W)  Interrupt Control and State Regi
 378:Drivers/CMSIS/Include/core_cm3.h ****   __IOM uint32_t VTOR;                   /*!< Offset: 0x008 (R/W)  Vector Table Offset Register */
 379:Drivers/CMSIS/Include/core_cm3.h ****   __IOM uint32_t AIRCR;                  /*!< Offset: 0x00C (R/W)  Application Interrupt and Reset 
 380:Drivers/CMSIS/Include/core_cm3.h ****   __IOM uint32_t SCR;                    /*!< Offset: 0x010 (R/W)  System Control Register */
 381:Drivers/CMSIS/Include/core_cm3.h ****   __IOM uint32_t CCR;                    /*!< Offset: 0x014 (R/W)  Configuration Control Register *
 382:Drivers/CMSIS/Include/core_cm3.h ****   __IOM uint8_t  SHP[12U];               /*!< Offset: 0x018 (R/W)  System Handlers Priority Registe
 383:Drivers/CMSIS/Include/core_cm3.h ****   __IOM uint32_t SHCSR;                  /*!< Offset: 0x024 (R/W)  System Handler Control and State
 384:Drivers/CMSIS/Include/core_cm3.h ****   __IOM uint32_t CFSR;                   /*!< Offset: 0x028 (R/W)  Configurable Fault Status Regist
 385:Drivers/CMSIS/Include/core_cm3.h ****   __IOM uint32_t HFSR;                   /*!< Offset: 0x02C (R/W)  HardFault Status Register */
 386:Drivers/CMSIS/Include/core_cm3.h ****   __IOM uint32_t DFSR;                   /*!< Offset: 0x030 (R/W)  Debug Fault Status Register */
 387:Drivers/CMSIS/Include/core_cm3.h ****   __IOM uint32_t MMFAR;                  /*!< Offset: 0x034 (R/W)  MemManage Fault Address Register
 388:Drivers/CMSIS/Include/core_cm3.h ****   __IOM uint32_t BFAR;                   /*!< Offset: 0x038 (R/W)  BusFault Address Register */
 389:Drivers/CMSIS/Include/core_cm3.h ****   __IOM uint32_t AFSR;                   /*!< Offset: 0x03C (R/W)  Auxiliary Fault Status Register 
 390:Drivers/CMSIS/Include/core_cm3.h ****   __IM  uint32_t PFR[2U];                /*!< Offset: 0x040 (R/ )  Processor Feature Register */
 391:Drivers/CMSIS/Include/core_cm3.h ****   __IM  uint32_t DFR;                    /*!< Offset: 0x048 (R/ )  Debug Feature Register */
 392:Drivers/CMSIS/Include/core_cm3.h ****   __IM  uint32_t ADR;                    /*!< Offset: 0x04C (R/ )  Auxiliary Feature Register */
 393:Drivers/CMSIS/Include/core_cm3.h ****   __IM  uint32_t MMFR[4U];               /*!< Offset: 0x050 (R/ )  Memory Model Feature Register */
 394:Drivers/CMSIS/Include/core_cm3.h ****   __IM  uint32_t ISAR[5U];               /*!< Offset: 0x060 (R/ )  Instruction Set Attributes Regis
 395:Drivers/CMSIS/Include/core_cm3.h ****         uint32_t RESERVED0[5U];
 396:Drivers/CMSIS/Include/core_cm3.h ****   __IOM uint32_t CPACR;                  /*!< Offset: 0x088 (R/W)  Coprocessor Access Control Regis
 397:Drivers/CMSIS/Include/core_cm3.h **** } SCB_Type;
 398:Drivers/CMSIS/Include/core_cm3.h **** 
 399:Drivers/CMSIS/Include/core_cm3.h **** /* SCB CPUID Register Definitions */
 400:Drivers/CMSIS/Include/core_cm3.h **** #define SCB_CPUID_IMPLEMENTER_Pos          24U                                            /*!< SCB 
 401:Drivers/CMSIS/Include/core_cm3.h **** #define SCB_CPUID_IMPLEMENTER_Msk          (0xFFUL << SCB_CPUID_IMPLEMENTER_Pos)          /*!< SCB 
 402:Drivers/CMSIS/Include/core_cm3.h **** 
 403:Drivers/CMSIS/Include/core_cm3.h **** #define SCB_CPUID_VARIANT_Pos              20U                                            /*!< SCB 
 404:Drivers/CMSIS/Include/core_cm3.h **** #define SCB_CPUID_VARIANT_Msk              (0xFUL << SCB_CPUID_VARIANT_Pos)               /*!< SCB 
 405:Drivers/CMSIS/Include/core_cm3.h **** 
 406:Drivers/CMSIS/Include/core_cm3.h **** #define SCB_CPUID_ARCHITECTURE_Pos         16U                                            /*!< SCB 
 407:Drivers/CMSIS/Include/core_cm3.h **** #define SCB_CPUID_ARCHITECTURE_Msk         (0xFUL << SCB_CPUID_ARCHITECTURE_Pos)          /*!< SCB 
 408:Drivers/CMSIS/Include/core_cm3.h **** 
 409:Drivers/CMSIS/Include/core_cm3.h **** #define SCB_CPUID_PARTNO_Pos                4U                                            /*!< SCB 
 410:Drivers/CMSIS/Include/core_cm3.h **** #define SCB_CPUID_PARTNO_Msk               (0xFFFUL << SCB_CPUID_PARTNO_Pos)              /*!< SCB 
 411:Drivers/CMSIS/Include/core_cm3.h **** 
 412:Drivers/CMSIS/Include/core_cm3.h **** #define SCB_CPUID_REVISION_Pos              0U                                            /*!< SCB 
 413:Drivers/CMSIS/Include/core_cm3.h **** #define SCB_CPUID_REVISION_Msk             (0xFUL /*<< SCB_CPUID_REVISION_Pos*/)          /*!< SCB 
ARM GAS  /tmp/ccfbgGae.s 			page 51


 414:Drivers/CMSIS/Include/core_cm3.h **** 
 415:Drivers/CMSIS/Include/core_cm3.h **** /* SCB Interrupt Control State Register Definitions */
 416:Drivers/CMSIS/Include/core_cm3.h **** #define SCB_ICSR_NMIPENDSET_Pos            31U                                            /*!< SCB 
 417:Drivers/CMSIS/Include/core_cm3.h **** #define SCB_ICSR_NMIPENDSET_Msk            (1UL << SCB_ICSR_NMIPENDSET_Pos)               /*!< SCB 
 418:Drivers/CMSIS/Include/core_cm3.h **** 
 419:Drivers/CMSIS/Include/core_cm3.h **** #define SCB_ICSR_PENDSVSET_Pos             28U                                            /*!< SCB 
 420:Drivers/CMSIS/Include/core_cm3.h **** #define SCB_ICSR_PENDSVSET_Msk             (1UL << SCB_ICSR_PENDSVSET_Pos)                /*!< SCB 
 421:Drivers/CMSIS/Include/core_cm3.h **** 
 422:Drivers/CMSIS/Include/core_cm3.h **** #define SCB_ICSR_PENDSVCLR_Pos             27U                                            /*!< SCB 
 423:Drivers/CMSIS/Include/core_cm3.h **** #define SCB_ICSR_PENDSVCLR_Msk             (1UL << SCB_ICSR_PENDSVCLR_Pos)                /*!< SCB 
 424:Drivers/CMSIS/Include/core_cm3.h **** 
 425:Drivers/CMSIS/Include/core_cm3.h **** #define SCB_ICSR_PENDSTSET_Pos             26U                                            /*!< SCB 
 426:Drivers/CMSIS/Include/core_cm3.h **** #define SCB_ICSR_PENDSTSET_Msk             (1UL << SCB_ICSR_PENDSTSET_Pos)                /*!< SCB 
 427:Drivers/CMSIS/Include/core_cm3.h **** 
 428:Drivers/CMSIS/Include/core_cm3.h **** #define SCB_ICSR_PENDSTCLR_Pos             25U                                            /*!< SCB 
 429:Drivers/CMSIS/Include/core_cm3.h **** #define SCB_ICSR_PENDSTCLR_Msk             (1UL << SCB_ICSR_PENDSTCLR_Pos)                /*!< SCB 
 430:Drivers/CMSIS/Include/core_cm3.h **** 
 431:Drivers/CMSIS/Include/core_cm3.h **** #define SCB_ICSR_ISRPREEMPT_Pos            23U                                            /*!< SCB 
 432:Drivers/CMSIS/Include/core_cm3.h **** #define SCB_ICSR_ISRPREEMPT_Msk            (1UL << SCB_ICSR_ISRPREEMPT_Pos)               /*!< SCB 
 433:Drivers/CMSIS/Include/core_cm3.h **** 
 434:Drivers/CMSIS/Include/core_cm3.h **** #define SCB_ICSR_ISRPENDING_Pos            22U                                            /*!< SCB 
 435:Drivers/CMSIS/Include/core_cm3.h **** #define SCB_ICSR_ISRPENDING_Msk            (1UL << SCB_ICSR_ISRPENDING_Pos)               /*!< SCB 
 436:Drivers/CMSIS/Include/core_cm3.h **** 
 437:Drivers/CMSIS/Include/core_cm3.h **** #define SCB_ICSR_VECTPENDING_Pos           12U                                            /*!< SCB 
 438:Drivers/CMSIS/Include/core_cm3.h **** #define SCB_ICSR_VECTPENDING_Msk           (0x1FFUL << SCB_ICSR_VECTPENDING_Pos)          /*!< SCB 
 439:Drivers/CMSIS/Include/core_cm3.h **** 
 440:Drivers/CMSIS/Include/core_cm3.h **** #define SCB_ICSR_RETTOBASE_Pos             11U                                            /*!< SCB 
 441:Drivers/CMSIS/Include/core_cm3.h **** #define SCB_ICSR_RETTOBASE_Msk             (1UL << SCB_ICSR_RETTOBASE_Pos)                /*!< SCB 
 442:Drivers/CMSIS/Include/core_cm3.h **** 
 443:Drivers/CMSIS/Include/core_cm3.h **** #define SCB_ICSR_VECTACTIVE_Pos             0U                                            /*!< SCB 
 444:Drivers/CMSIS/Include/core_cm3.h **** #define SCB_ICSR_VECTACTIVE_Msk            (0x1FFUL /*<< SCB_ICSR_VECTACTIVE_Pos*/)       /*!< SCB 
 445:Drivers/CMSIS/Include/core_cm3.h **** 
 446:Drivers/CMSIS/Include/core_cm3.h **** /* SCB Vector Table Offset Register Definitions */
 447:Drivers/CMSIS/Include/core_cm3.h **** #if defined (__CM3_REV) && (__CM3_REV < 0x0201U)                   /* core r2p1 */
 448:Drivers/CMSIS/Include/core_cm3.h **** #define SCB_VTOR_TBLBASE_Pos               29U                                            /*!< SCB 
 449:Drivers/CMSIS/Include/core_cm3.h **** #define SCB_VTOR_TBLBASE_Msk               (1UL << SCB_VTOR_TBLBASE_Pos)                  /*!< SCB 
 450:Drivers/CMSIS/Include/core_cm3.h **** 
 451:Drivers/CMSIS/Include/core_cm3.h **** #define SCB_VTOR_TBLOFF_Pos                 7U                                            /*!< SCB 
 452:Drivers/CMSIS/Include/core_cm3.h **** #define SCB_VTOR_TBLOFF_Msk                (0x3FFFFFUL << SCB_VTOR_TBLOFF_Pos)            /*!< SCB 
 453:Drivers/CMSIS/Include/core_cm3.h **** #else
 454:Drivers/CMSIS/Include/core_cm3.h **** #define SCB_VTOR_TBLOFF_Pos                 7U                                            /*!< SCB 
 455:Drivers/CMSIS/Include/core_cm3.h **** #define SCB_VTOR_TBLOFF_Msk                (0x1FFFFFFUL << SCB_VTOR_TBLOFF_Pos)           /*!< SCB 
 456:Drivers/CMSIS/Include/core_cm3.h **** #endif
 457:Drivers/CMSIS/Include/core_cm3.h **** 
 458:Drivers/CMSIS/Include/core_cm3.h **** /* SCB Application Interrupt and Reset Control Register Definitions */
 459:Drivers/CMSIS/Include/core_cm3.h **** #define SCB_AIRCR_VECTKEY_Pos              16U                                            /*!< SCB 
 460:Drivers/CMSIS/Include/core_cm3.h **** #define SCB_AIRCR_VECTKEY_Msk              (0xFFFFUL << SCB_AIRCR_VECTKEY_Pos)            /*!< SCB 
 461:Drivers/CMSIS/Include/core_cm3.h **** 
 462:Drivers/CMSIS/Include/core_cm3.h **** #define SCB_AIRCR_VECTKEYSTAT_Pos          16U                                            /*!< SCB 
 463:Drivers/CMSIS/Include/core_cm3.h **** #define SCB_AIRCR_VECTKEYSTAT_Msk          (0xFFFFUL << SCB_AIRCR_VECTKEYSTAT_Pos)        /*!< SCB 
 464:Drivers/CMSIS/Include/core_cm3.h **** 
 465:Drivers/CMSIS/Include/core_cm3.h **** #define SCB_AIRCR_ENDIANESS_Pos            15U                                            /*!< SCB 
 466:Drivers/CMSIS/Include/core_cm3.h **** #define SCB_AIRCR_ENDIANESS_Msk            (1UL << SCB_AIRCR_ENDIANESS_Pos)               /*!< SCB 
 467:Drivers/CMSIS/Include/core_cm3.h **** 
 468:Drivers/CMSIS/Include/core_cm3.h **** #define SCB_AIRCR_PRIGROUP_Pos              8U                                            /*!< SCB 
 469:Drivers/CMSIS/Include/core_cm3.h **** #define SCB_AIRCR_PRIGROUP_Msk             (7UL << SCB_AIRCR_PRIGROUP_Pos)                /*!< SCB 
 470:Drivers/CMSIS/Include/core_cm3.h **** 
ARM GAS  /tmp/ccfbgGae.s 			page 52


 471:Drivers/CMSIS/Include/core_cm3.h **** #define SCB_AIRCR_SYSRESETREQ_Pos           2U                                            /*!< SCB 
 472:Drivers/CMSIS/Include/core_cm3.h **** #define SCB_AIRCR_SYSRESETREQ_Msk          (1UL << SCB_AIRCR_SYSRESETREQ_Pos)             /*!< SCB 
 473:Drivers/CMSIS/Include/core_cm3.h **** 
 474:Drivers/CMSIS/Include/core_cm3.h **** #define SCB_AIRCR_VECTCLRACTIVE_Pos         1U                                            /*!< SCB 
 475:Drivers/CMSIS/Include/core_cm3.h **** #define SCB_AIRCR_VECTCLRACTIVE_Msk        (1UL << SCB_AIRCR_VECTCLRACTIVE_Pos)           /*!< SCB 
 476:Drivers/CMSIS/Include/core_cm3.h **** 
 477:Drivers/CMSIS/Include/core_cm3.h **** #define SCB_AIRCR_VECTRESET_Pos             0U                                            /*!< SCB 
 478:Drivers/CMSIS/Include/core_cm3.h **** #define SCB_AIRCR_VECTRESET_Msk            (1UL /*<< SCB_AIRCR_VECTRESET_Pos*/)           /*!< SCB 
 479:Drivers/CMSIS/Include/core_cm3.h **** 
 480:Drivers/CMSIS/Include/core_cm3.h **** /* SCB System Control Register Definitions */
 481:Drivers/CMSIS/Include/core_cm3.h **** #define SCB_SCR_SEVONPEND_Pos               4U                                            /*!< SCB 
 482:Drivers/CMSIS/Include/core_cm3.h **** #define SCB_SCR_SEVONPEND_Msk              (1UL << SCB_SCR_SEVONPEND_Pos)                 /*!< SCB 
 483:Drivers/CMSIS/Include/core_cm3.h **** 
 484:Drivers/CMSIS/Include/core_cm3.h **** #define SCB_SCR_SLEEPDEEP_Pos               2U                                            /*!< SCB 
 485:Drivers/CMSIS/Include/core_cm3.h **** #define SCB_SCR_SLEEPDEEP_Msk              (1UL << SCB_SCR_SLEEPDEEP_Pos)                 /*!< SCB 
 486:Drivers/CMSIS/Include/core_cm3.h **** 
 487:Drivers/CMSIS/Include/core_cm3.h **** #define SCB_SCR_SLEEPONEXIT_Pos             1U                                            /*!< SCB 
 488:Drivers/CMSIS/Include/core_cm3.h **** #define SCB_SCR_SLEEPONEXIT_Msk            (1UL << SCB_SCR_SLEEPONEXIT_Pos)               /*!< SCB 
 489:Drivers/CMSIS/Include/core_cm3.h **** 
 490:Drivers/CMSIS/Include/core_cm3.h **** /* SCB Configuration Control Register Definitions */
 491:Drivers/CMSIS/Include/core_cm3.h **** #define SCB_CCR_STKALIGN_Pos                9U                                            /*!< SCB 
 492:Drivers/CMSIS/Include/core_cm3.h **** #define SCB_CCR_STKALIGN_Msk               (1UL << SCB_CCR_STKALIGN_Pos)                  /*!< SCB 
 493:Drivers/CMSIS/Include/core_cm3.h **** 
 494:Drivers/CMSIS/Include/core_cm3.h **** #define SCB_CCR_BFHFNMIGN_Pos               8U                                            /*!< SCB 
 495:Drivers/CMSIS/Include/core_cm3.h **** #define SCB_CCR_BFHFNMIGN_Msk              (1UL << SCB_CCR_BFHFNMIGN_Pos)                 /*!< SCB 
 496:Drivers/CMSIS/Include/core_cm3.h **** 
 497:Drivers/CMSIS/Include/core_cm3.h **** #define SCB_CCR_DIV_0_TRP_Pos               4U                                            /*!< SCB 
 498:Drivers/CMSIS/Include/core_cm3.h **** #define SCB_CCR_DIV_0_TRP_Msk              (1UL << SCB_CCR_DIV_0_TRP_Pos)                 /*!< SCB 
 499:Drivers/CMSIS/Include/core_cm3.h **** 
 500:Drivers/CMSIS/Include/core_cm3.h **** #define SCB_CCR_UNALIGN_TRP_Pos             3U                                            /*!< SCB 
 501:Drivers/CMSIS/Include/core_cm3.h **** #define SCB_CCR_UNALIGN_TRP_Msk            (1UL << SCB_CCR_UNALIGN_TRP_Pos)               /*!< SCB 
 502:Drivers/CMSIS/Include/core_cm3.h **** 
 503:Drivers/CMSIS/Include/core_cm3.h **** #define SCB_CCR_USERSETMPEND_Pos            1U                                            /*!< SCB 
 504:Drivers/CMSIS/Include/core_cm3.h **** #define SCB_CCR_USERSETMPEND_Msk           (1UL << SCB_CCR_USERSETMPEND_Pos)              /*!< SCB 
 505:Drivers/CMSIS/Include/core_cm3.h **** 
 506:Drivers/CMSIS/Include/core_cm3.h **** #define SCB_CCR_NONBASETHRDENA_Pos          0U                                            /*!< SCB 
 507:Drivers/CMSIS/Include/core_cm3.h **** #define SCB_CCR_NONBASETHRDENA_Msk         (1UL /*<< SCB_CCR_NONBASETHRDENA_Pos*/)        /*!< SCB 
 508:Drivers/CMSIS/Include/core_cm3.h **** 
 509:Drivers/CMSIS/Include/core_cm3.h **** /* SCB System Handler Control and State Register Definitions */
 510:Drivers/CMSIS/Include/core_cm3.h **** #define SCB_SHCSR_USGFAULTENA_Pos          18U                                            /*!< SCB 
 511:Drivers/CMSIS/Include/core_cm3.h **** #define SCB_SHCSR_USGFAULTENA_Msk          (1UL << SCB_SHCSR_USGFAULTENA_Pos)             /*!< SCB 
 512:Drivers/CMSIS/Include/core_cm3.h **** 
 513:Drivers/CMSIS/Include/core_cm3.h **** #define SCB_SHCSR_BUSFAULTENA_Pos          17U                                            /*!< SCB 
 514:Drivers/CMSIS/Include/core_cm3.h **** #define SCB_SHCSR_BUSFAULTENA_Msk          (1UL << SCB_SHCSR_BUSFAULTENA_Pos)             /*!< SCB 
 515:Drivers/CMSIS/Include/core_cm3.h **** 
 516:Drivers/CMSIS/Include/core_cm3.h **** #define SCB_SHCSR_MEMFAULTENA_Pos          16U                                            /*!< SCB 
 517:Drivers/CMSIS/Include/core_cm3.h **** #define SCB_SHCSR_MEMFAULTENA_Msk          (1UL << SCB_SHCSR_MEMFAULTENA_Pos)             /*!< SCB 
 518:Drivers/CMSIS/Include/core_cm3.h **** 
 519:Drivers/CMSIS/Include/core_cm3.h **** #define SCB_SHCSR_SVCALLPENDED_Pos         15U                                            /*!< SCB 
 520:Drivers/CMSIS/Include/core_cm3.h **** #define SCB_SHCSR_SVCALLPENDED_Msk         (1UL << SCB_SHCSR_SVCALLPENDED_Pos)            /*!< SCB 
 521:Drivers/CMSIS/Include/core_cm3.h **** 
 522:Drivers/CMSIS/Include/core_cm3.h **** #define SCB_SHCSR_BUSFAULTPENDED_Pos       14U                                            /*!< SCB 
 523:Drivers/CMSIS/Include/core_cm3.h **** #define SCB_SHCSR_BUSFAULTPENDED_Msk       (1UL << SCB_SHCSR_BUSFAULTPENDED_Pos)          /*!< SCB 
 524:Drivers/CMSIS/Include/core_cm3.h **** 
 525:Drivers/CMSIS/Include/core_cm3.h **** #define SCB_SHCSR_MEMFAULTPENDED_Pos       13U                                            /*!< SCB 
 526:Drivers/CMSIS/Include/core_cm3.h **** #define SCB_SHCSR_MEMFAULTPENDED_Msk       (1UL << SCB_SHCSR_MEMFAULTPENDED_Pos)          /*!< SCB 
 527:Drivers/CMSIS/Include/core_cm3.h **** 
ARM GAS  /tmp/ccfbgGae.s 			page 53


 528:Drivers/CMSIS/Include/core_cm3.h **** #define SCB_SHCSR_USGFAULTPENDED_Pos       12U                                            /*!< SCB 
 529:Drivers/CMSIS/Include/core_cm3.h **** #define SCB_SHCSR_USGFAULTPENDED_Msk       (1UL << SCB_SHCSR_USGFAULTPENDED_Pos)          /*!< SCB 
 530:Drivers/CMSIS/Include/core_cm3.h **** 
 531:Drivers/CMSIS/Include/core_cm3.h **** #define SCB_SHCSR_SYSTICKACT_Pos           11U                                            /*!< SCB 
 532:Drivers/CMSIS/Include/core_cm3.h **** #define SCB_SHCSR_SYSTICKACT_Msk           (1UL << SCB_SHCSR_SYSTICKACT_Pos)              /*!< SCB 
 533:Drivers/CMSIS/Include/core_cm3.h **** 
 534:Drivers/CMSIS/Include/core_cm3.h **** #define SCB_SHCSR_PENDSVACT_Pos            10U                                            /*!< SCB 
 535:Drivers/CMSIS/Include/core_cm3.h **** #define SCB_SHCSR_PENDSVACT_Msk            (1UL << SCB_SHCSR_PENDSVACT_Pos)               /*!< SCB 
 536:Drivers/CMSIS/Include/core_cm3.h **** 
 537:Drivers/CMSIS/Include/core_cm3.h **** #define SCB_SHCSR_MONITORACT_Pos            8U                                            /*!< SCB 
 538:Drivers/CMSIS/Include/core_cm3.h **** #define SCB_SHCSR_MONITORACT_Msk           (1UL << SCB_SHCSR_MONITORACT_Pos)              /*!< SCB 
 539:Drivers/CMSIS/Include/core_cm3.h **** 
 540:Drivers/CMSIS/Include/core_cm3.h **** #define SCB_SHCSR_SVCALLACT_Pos             7U                                            /*!< SCB 
 541:Drivers/CMSIS/Include/core_cm3.h **** #define SCB_SHCSR_SVCALLACT_Msk            (1UL << SCB_SHCSR_SVCALLACT_Pos)               /*!< SCB 
 542:Drivers/CMSIS/Include/core_cm3.h **** 
 543:Drivers/CMSIS/Include/core_cm3.h **** #define SCB_SHCSR_USGFAULTACT_Pos           3U                                            /*!< SCB 
 544:Drivers/CMSIS/Include/core_cm3.h **** #define SCB_SHCSR_USGFAULTACT_Msk          (1UL << SCB_SHCSR_USGFAULTACT_Pos)             /*!< SCB 
 545:Drivers/CMSIS/Include/core_cm3.h **** 
 546:Drivers/CMSIS/Include/core_cm3.h **** #define SCB_SHCSR_BUSFAULTACT_Pos           1U                                            /*!< SCB 
 547:Drivers/CMSIS/Include/core_cm3.h **** #define SCB_SHCSR_BUSFAULTACT_Msk          (1UL << SCB_SHCSR_BUSFAULTACT_Pos)             /*!< SCB 
 548:Drivers/CMSIS/Include/core_cm3.h **** 
 549:Drivers/CMSIS/Include/core_cm3.h **** #define SCB_SHCSR_MEMFAULTACT_Pos           0U                                            /*!< SCB 
 550:Drivers/CMSIS/Include/core_cm3.h **** #define SCB_SHCSR_MEMFAULTACT_Msk          (1UL /*<< SCB_SHCSR_MEMFAULTACT_Pos*/)         /*!< SCB 
 551:Drivers/CMSIS/Include/core_cm3.h **** 
 552:Drivers/CMSIS/Include/core_cm3.h **** /* SCB Configurable Fault Status Register Definitions */
 553:Drivers/CMSIS/Include/core_cm3.h **** #define SCB_CFSR_USGFAULTSR_Pos            16U                                            /*!< SCB 
 554:Drivers/CMSIS/Include/core_cm3.h **** #define SCB_CFSR_USGFAULTSR_Msk            (0xFFFFUL << SCB_CFSR_USGFAULTSR_Pos)          /*!< SCB 
 555:Drivers/CMSIS/Include/core_cm3.h **** 
 556:Drivers/CMSIS/Include/core_cm3.h **** #define SCB_CFSR_BUSFAULTSR_Pos             8U                                            /*!< SCB 
 557:Drivers/CMSIS/Include/core_cm3.h **** #define SCB_CFSR_BUSFAULTSR_Msk            (0xFFUL << SCB_CFSR_BUSFAULTSR_Pos)            /*!< SCB 
 558:Drivers/CMSIS/Include/core_cm3.h **** 
 559:Drivers/CMSIS/Include/core_cm3.h **** #define SCB_CFSR_MEMFAULTSR_Pos             0U                                            /*!< SCB 
